

Microchip MPLAB XC8 Assembler V2.10 build 88905656 
                                                                                               Mon Nov 30 08:32:32 2020

Microchip MPLAB XC8 C Compiler v2.10 (Free license) build 20190730164152 Og1 
     1                           	processor	18F46K22
     2                           	fnconf	rparam,??,?,0
     3                           	opt	pw 120
     4                           	opt	flic
     5                           	psect	smallconst,global,reloc=2,class=SMALLCONST,delta=1,noexec
     6                           	psect	cinit,global,reloc=2,class=CODE,delta=1
     7                           	psect	bssCOMRAM,global,class=COMRAM,space=1,delta=1,noexec
     8                           	psect	bssBANK0,global,class=BANK0,space=1,delta=1,lowdata,noexec
     9                           	psect	bssBANK1,global,class=BANK1,space=1,delta=1,lowdata,noexec
    10                           	psect	cstackBANK1,global,class=BANK1,space=1,delta=1,noexec
    11                           	psect	cstackBANK0,global,class=BANK0,space=1,delta=1,noexec
    12                           	psect	cstackCOMRAM,global,class=COMRAM,space=1,delta=1,noexec
    13                           	psect	text0,global,reloc=2,class=CODE,delta=1
    14                           	psect	text1,global,reloc=2,class=CODE,delta=1
    15                           	psect	text2,global,reloc=2,class=CODE,delta=1
    16                           	psect	text3,global,reloc=2,class=CODE,delta=1
    17                           	psect	text4,global,reloc=2,class=CODE,delta=1,group=2
    18                           	psect	text5,global,reloc=2,class=CODE,delta=1
    19                           	psect	text6,global,reloc=2,class=CODE,delta=1
    20                           	psect	text7,global,reloc=2,class=CODE,delta=1
    21                           	psect	text8,global,reloc=2,class=CODE,delta=1
    22                           	psect	text9,global,reloc=2,class=CODE,delta=1,group=2
    23                           	psect	text10,global,reloc=2,class=CODE,delta=1,group=2
    24                           	psect	text11,global,reloc=2,class=CODE,delta=1,group=2
    25                           	psect	text12,global,reloc=2,class=CODE,delta=1
    26                           	psect	text13,global,reloc=2,class=CODE,delta=1
    27                           	psect	text14,global,reloc=2,class=CODE,delta=1
    28                           	psect	text15,global,reloc=2,class=CODE,delta=1,group=2
    29                           	psect	text16,global,reloc=2,class=CODE,delta=1,group=1
    30                           	psect	text17,global,reloc=2,class=CODE,delta=1,group=1
    31                           	psect	text18,global,reloc=2,class=CODE,delta=1
    32                           	psect	text19,global,reloc=2,class=CODE,delta=1
    33                           	psect	text20,global,reloc=2,class=CODE,delta=1
    34                           	psect	text21,global,reloc=2,class=CODE,delta=1,group=1
    35                           	psect	text22,global,reloc=2,class=CODE,delta=1
    36                           	psect	text23,global,reloc=2,class=CODE,delta=1
    37                           	psect	text24,global,reloc=2,class=CODE,delta=1
    38                           	psect	text25,global,reloc=2,class=CODE,delta=1
    39                           	psect	text26,global,reloc=2,class=CODE,delta=1
    40                           	psect	text27,global,reloc=2,class=CODE,delta=1,group=1
    41                           	psect	text28,global,reloc=2,class=CODE,delta=1
    42                           	psect	text29,global,reloc=2,class=CODE,delta=1
    43                           	psect	text30,global,reloc=2,class=CODE,delta=1
    44                           	psect	text31,global,reloc=2,class=CODE,delta=1
    45                           	psect	text32,global,reloc=2,class=CODE,delta=1
    46                           	psect	text33,global,reloc=2,class=CODE,delta=1
    47                           	psect	text34,global,reloc=2,class=CODE,delta=1
    48                           	psect	text35,global,reloc=2,class=CODE,delta=1
    49                           	psect	text36,global,reloc=2,class=CODE,delta=1
    50                           	psect	text37,global,reloc=2,class=CODE,delta=1
    51                           	psect	text38,global,reloc=2,class=CODE,delta=1
    52                           	psect	text39,global,reloc=2,class=CODE,delta=1
    53                           	psect	text40,global,reloc=2,class=CODE,delta=1,group=1
    54                           	psect	text41,global,reloc=2,class=CODE,delta=1
    55                           	psect	text42,global,reloc=2,class=CODE,delta=1
    56                           	psect	text43,global,reloc=2,class=CODE,delta=1
    57                           	psect	text44,global,reloc=2,class=CODE,delta=1
    58                           	psect	text45,global,reloc=2,class=CODE,delta=1
    59                           	psect	text46,global,reloc=2,class=CODE,delta=1
    60                           	psect	text47,global,reloc=2,class=CODE,delta=1
    61                           	psect	text48,global,reloc=2,class=CODE,delta=1
    62                           	psect	text49,global,reloc=2,class=CODE,delta=1
    63                           	psect	text50,global,reloc=2,class=CODE,delta=1
    64                           	psect	text51,global,reloc=2,class=CODE,delta=1
    65                           	psect	text52,global,reloc=2,class=CODE,delta=1
    66                           	psect	text53,global,reloc=2,class=CODE,delta=1
    67                           	psect	text54,global,reloc=2,class=CODE,delta=1
    68                           	psect	text55,global,reloc=2,class=CODE,delta=1
    69                           	psect	text56,global,reloc=2,class=CODE,delta=1
    70                           	psect	text57,global,reloc=2,class=CODE,delta=1
    71                           	psect	text58,global,reloc=2,class=CODE,delta=1
    72                           	psect	text59,global,reloc=2,class=CODE,delta=1
    73                           	psect	text60,global,reloc=2,class=CODE,delta=1
    74                           	psect	text61,global,reloc=2,class=CODE,delta=1
    75                           	psect	text62,global,reloc=2,class=CODE,delta=1
    76                           	psect	text63,global,reloc=2,class=CODE,delta=1,group=1
    77                           	psect	text64,global,reloc=2,class=CODE,delta=1
    78                           	psect	text65,global,reloc=2,class=CODE,delta=1
    79                           	psect	text66,global,reloc=2,class=CODE,delta=1
    80                           	psect	text67,global,reloc=2,class=CODE,delta=1,group=1
    81                           	psect	text68,global,reloc=2,class=CODE,delta=1,group=1
    82                           	psect	text69,global,reloc=2,class=CODE,delta=1
    83                           	psect	text70,global,reloc=2,class=CODE,delta=1,group=1
    84                           	psect	text71,global,reloc=2,class=CODE,delta=1,group=1
    85                           	psect	text72,global,reloc=2,class=CODE,delta=1,group=1
    86                           	psect	text73,global,reloc=2,class=CODE,delta=1
    87                           	psect	intcodelo,global,reloc=2,class=CODE,delta=1
    88                           	psect	text75,global,reloc=2,class=CODE,delta=1
    89                           	psect	text76,global,reloc=2,class=CODE,delta=1
    90                           	psect	text77,global,reloc=2,class=CODE,delta=1
    91                           	psect	text78,global,reloc=2,class=CODE,delta=1
    92                           	psect	text79,global,reloc=2,class=CODE,delta=1
    93                           	psect	text80,global,reloc=2,class=CODE,delta=1
    94                           	psect	text81,global,reloc=2,class=CODE,delta=1
    95                           	psect	text82,global,reloc=2,class=CODE,delta=1
    96                           	psect	intcode,global,reloc=2,class=CODE,delta=1
    97                           	psect	intcode_body,global,reloc=2,class=CODE,delta=1
    98                           	psect	text84,global,reloc=2,class=CODE,delta=1
    99                           	psect	text85,global,reloc=2,class=CODE,delta=1
   100                           	psect	text86,global,reloc=2,class=CODE,delta=1
   101                           	psect	text87,global,reloc=2,class=CODE,delta=1
   102                           	psect	text88,global,reloc=2,class=CODE,delta=1
   103                           	psect	text89,global,reloc=2,class=CODE,delta=1
   104                           	psect	text90,global,reloc=2,class=CODE,delta=1
   105                           	psect	text91,global,reloc=2,class=CODE,delta=1
   106                           	psect	intsave_regs,global,class=BIGRAM,space=1,delta=1,noexec
   107                           	psect	text92,global,reloc=2,class=CODE,delta=1
   108                           	psect	rparam,global,class=COMRAM,space=1,delta=1,noexec
   109                           	psect	temp,global,ovrld,common,class=COMRAM,space=1,delta=1
   110  0000                     
   111                           ; Version 2.10
   112                           ; Generated 31/07/2019 GMT
   113                           ; 
   114                           ; Copyright © 2019, Microchip Technology Inc. and its subsidiaries ("Microchip")
   115                           ; All rights reserved.
   116                           ; 
   117                           ; This software is developed by Microchip Technology Inc. and its subsidiaries ("Microch
      +                          ip").
   118                           ; 
   119                           ; Redistribution and use in source and binary forms, with or without modification, are
   120                           ; permitted provided that the following conditions are met:
   121                           ; 
   122                           ;     1. Redistributions of source code must retain the above copyright notice, this lis
      +                          t of
   123                           ;        conditions and the following disclaimer.
   124                           ; 
   125                           ;     2. Redistributions in binary form must reproduce the above copyright notice, this 
      +                          list
   126                           ;        of conditions and the following disclaimer in the documentation and/or other
   127                           ;        materials provided with the distribution.
   128                           ; 
   129                           ;     3. Microchip's name may not be used to endorse or promote products derived from th
      +                          is
   130                           ;        software without specific prior written permission.
   131                           ; 
   132                           ; THIS SOFTWARE IS PROVIDED BY MICROCHIP "AS IS" AND ANY EXPRESS OR IMPLIED WARRANTIES,
   133                           ; INCLUDING, BUT NOT LIMITED TO, THE IMPLIED WARRANTIES OF MERCHANTABILITY AND FITNESS F
      +                          OR
   134                           ; PURPOSE ARE DISCLAIMED.  IN NO EVENT SHALL MICROCHIP BE LIABLE FOR ANY DIRECT, INDIREC
      +                          T,
   135                           ; INCIDENTAL, SPECIAL, EXEMPLARY, OR CONSEQUENTIAL DAMAGES (INCLUDING BUT NOT LIMITED TO
   136                           ; PROCUREMENT OF SUBSTITUTE GOODS OR SERVICES; LOSS OF USE, DATA OR PROFITS; OR BUSINESS
   137                           ; INTERRUPTION) HOWSOEVER CAUSED AND ON ANY THEORY OF LIABILITY, WHETHER IN CONTRACT, ST
      +                          RICT
   138                           ; LIABILITY, OR TORT (INCLUDING NEGLIGENCE OR OTHERWISE) ARISING IN ANY WAY OUT OF THE U
      +                          SE OF
   139                           ; THIS SOFTWARE, EVEN IF ADVISED OF THE POSSIBILITY OF SUCH DAMAGE.
   140                           ; 
   141                           ; 
   142                           ; Code-generator required, PIC18F46K22 Definitions
   143                           ; 
   144                           ; SFR Addresses
   145  0000                     _PR4	set	3922
   146  0000                     _TMR4	set	3923
   147  0000                     _CCPR3L	set	3934
   148  0000                     _T4CONbits	set	3921
   149  0000                     _CCP3CONbits	set	3933
   150  0000                     _PWM3CONbits	set	3932
   151  0000                     _ECCP3ASbits	set	3931
   152  0000                     _CCPTMRS0bits	set	3913
   153  0000                     _PSTR3CON	set	3930
   154  0000                     _ANSELE	set	3900
   155  0000                     _ANSELD	set	3899
   156  0000                     _ANSELC	set	3898
   157  0000                     _ANSELB	set	3897
   158  0000                     _ANSELA	set	3896
   159  0000                     _PORTD	set	3971
   160  0000                     _ADCON0bits	set	4034
   161  0000                     _ADRESH	set	4036
   162  0000                     _ADRESL	set	4035
   163  0000                     _ADCON2	set	4032
   164  0000                     _ADCON1	set	4033
   165  0000                     _ADCON0	set	4034
   166  0000                     _T3CONbits	set	4017
   167  0000                     _T3CON	set	4017
   168  0000                     _TMR3L	set	4018
   169  0000                     _TMR3H	set	4019
   170  0000                     _T3GCON	set	4020
   171  0000                     _PR2	set	4027
   172  0000                     _TMR2	set	4028
   173  0000                     _EECON2	set	4007
   174  0000                     _EECON1bits	set	4006
   175  0000                     _EEDATA	set	4008
   176  0000                     _EEADR	set	4009
   177  0000                     _EEADRH	set	4010
   178  0000                     _T1CONbits	set	4045
   179  0000                     _T1CON	set	4045
   180  0000                     _TMR1L	set	4046
   181  0000                     _TMR1H	set	4047
   182  0000                     _T1GCON	set	4044
   183  0000                     _TMR0L	set	4054
   184  0000                     _TMR0H	set	4055
   185  0000                     _T0CONbits	set	4053
   186  0000                     _T0CON	set	4053
   187  0000                     _PIR2bits	set	4001
   188  0000                     _PIE2bits	set	4000
   189  0000                     _PIR1bits	set	3998
   190  0000                     _IPR2bits	set	4002
   191  0000                     _IPR1bits	set	3999
   192  0000                     _RCONbits	set	4048
   193  0000                     _RCREG1	set	4014
   194  0000                     _RCSTA1bits	set	4011
   195  0000                     _TXREG1	set	4013
   196  0000                     _SPBRGH1	set	4016
   197  0000                     _SPBRG1	set	4015
   198  0000                     _TXSTA1	set	4012
   199  0000                     _RCSTA1	set	4011
   200  0000                     _BAUDCON1	set	4024
   201  0000                     _PIE1bits	set	3997
   202  0000                     _SSP2STATbits	set	3949
   203  0000                     _SSP2CON2	set	3947
   204  0000                     _SSP1BUF	set	4041
   205  0000                     _SSP2BUF	set	3951
   206  0000                     _SSP2CON2bits	set	3947
   207  0000                     _SSP2ADD	set	3950
   208  0000                     _SSP2CON3	set	3945
   209  0000                     _SSP2CON1	set	3948
   210  0000                     _SSP2STAT	set	3949
   211  0000                     _CCPR2L	set	3943
   212  0000                     _T2CONbits	set	4026
   213  0000                     _CCP2CONbits	set	3942
   214  0000                     _PWM2CONbits	set	3941
   215  0000                     _ECCP2ASbits	set	3940
   216  0000                     _PSTR2CON	set	3939
   217  0000                     _TRISAbits	set	3986
   218  0000                     _LATAbits	set	3977
   219  0000                     _INTCONbits	set	4082
   220  0000                     _INTCON3bits	set	4080
   221  0000                     _TRISCbits	set	3988
   222  0000                     _LATCbits	set	3979
   223  0000                     _INTCON2bits	set	4081
   224  0000                     _WPUB	set	3937
   225  0000                     _TRISE	set	3990
   226  0000                     _TRISD	set	3989
   227  0000                     _TRISC	set	3988
   228  0000                     _TRISB	set	3987
   229  0000                     _TRISA	set	3986
   230  0000                     _LATE	set	3981
   231  0000                     _LATD	set	3980
   232  0000                     _LATC	set	3979
   233  0000                     _LATB	set	3978
   234  0000                     _LATA	set	3977
   235  0000                     _OSCCON2bits	set	4050
   236  0000                     _OSCCON2	set	4050
   237  0000                     _OSCCON	set	4051
   238                           
   239                           	psect	smallconst
   240  001000                     __psmallconst:
   241                           	opt callstack 0
   242  001000  00                 	db	0
   243  001001                     STR_1:
   244                           
   245                           ; BSR set to: 0
   246  001001  25                 	db	37
   247  001002  24                 	db	36
   248  001003  4C                 	db	76	;'L'
   249  001004  25                 	db	37
   250  001005  64                 	db	100	;'d'
   251  001006  2C                 	db	44
   252  001007  25                 	db	37
   253  001008  64                 	db	100	;'d'
   254  001009  2C                 	db	44
   255  00100A  25                 	db	37
   256  00100B  64                 	db	100	;'d'
   257  00100C  2C                 	db	44
   258  00100D  25                 	db	37
   259  00100E  64                 	db	100	;'d'
   260  00100F  3B                 	db	59	;';'
   261  001010  00                 	db	0
   262  001011                     STR_14:
   263                           
   264                           ; BSR set to: 0
   265  001011  24                 	db	36
   266  001012  46                 	db	70	;'F'
   267  001013  32                 	db	50	;'2'
   268  001014  3B                 	db	59	;';'
   269  001015  00                 	db	0
   270  001016                     
   271                           ; BSR set to: 0
   272  001016  24                 	db	36
   273  001017  50                 	db	80	;'P'
   274  001018  3B                 	db	59	;';'
   275  001019  00                 	db	0
   276  00101A                     STR_6:
   277                           
   278                           ; BSR set to: 0
   279  00101A  24                 	db	36
   280  00101B  61                 	db	97	;'a'
   281  00101C  3B                 	db	59	;';'
   282  00101D  00                 	db	0
   283  00101E                     
   284                           ; BSR set to: 0
   285  00101E  24                 	db	36
   286  00101F  62                 	db	98	;'b'
   287  001020  3B                 	db	59	;';'
   288  001021  00                 	db	0
   289  001022                     STR_7:
   290                           
   291                           ; BSR set to: 0
   292  001022  24                 	db	36
   293  001023  64                 	db	100	;'d'
   294  001024  3B                 	db	59	;';'
   295  001025  00                 	db	0
   296  001026                     
   297                           ; BSR set to: 0
   298  001026  24                 	db	36
   299  001027  65                 	db	101	;'e'
   300  001028  3B                 	db	59	;';'
   301  001029  00                 	db	0
   302  00102A                     STR_15:
   303                           
   304                           ; BSR set to: 0
   305  00102A  24                 	db	36
   306  00102B  66                 	db	102	;'f'
   307  00102C  3B                 	db	59	;';'
   308  00102D  00                 	db	0
   309  00102E                     STR_8:
   310                           
   311                           ; BSR set to: 0
   312  00102E  24                 	db	36
   313  00102F  6D                 	db	109	;'m'
   314  001030  3B                 	db	59	;';'
   315  001031  00                 	db	0
   316  001032                     
   317                           ; BSR set to: 0
   318  001032  24                 	db	36
   319  001033  6F                 	db	111	;'o'
   320  001034  3B                 	db	59	;';'
   321  001035  00                 	db	0
   322  001036                     
   323                           ; BSR set to: 0
   324  001036  24                 	db	36
   325  001037  73                 	db	115	;'s'
   326  001038  3B                 	db	59	;';'
   327  001039  00                 	db	0
   328  0000                     
   329                           ; #config settings
   330  00103A  00                 	db	0	; dummy byte at the end
   331  0000                     
   332                           	psect	cinit
   333  003B4E                     __pcinit:
   334                           	opt callstack 0
   335  003B4E                     start_initialization:
   336                           	opt callstack 0
   337  003B4E                     __initialization:
   338                           	opt callstack 0
   339                           
   340                           ; Clear objects allocated to BANK1 (104 bytes)
   341  003B4E  EE01  F000         	lfsr	0,__pbssBANK1
   342  003B52  0E68               	movlw	104
   343  003B54                     clear_0:
   344  003B54  6AEE               	clrf	postinc0,c
   345  003B56  06E8               	decf	wreg,f,c
   346  003B58  E1FD               	bnz	clear_0
   347                           
   348                           ; Clear objects allocated to BANK0 (100 bytes)
   349  003B5A  EE00  F060         	lfsr	0,__pbssBANK0
   350  003B5E  0E64               	movlw	100
   351  003B60                     clear_1:
   352  003B60  6AEE               	clrf	postinc0,c
   353  003B62  06E8               	decf	wreg,f,c
   354  003B64  E1FD               	bnz	clear_1
   355                           
   356                           ; Clear objects allocated to COMRAM (19 bytes)
   357  003B66  EE00  F039         	lfsr	0,__pbssCOMRAM
   358  003B6A  0E13               	movlw	19
   359  003B6C                     clear_2:
   360  003B6C  6AEE               	clrf	postinc0,c
   361  003B6E  06E8               	decf	wreg,f,c
   362  003B70  E1FD               	bnz	clear_2
   363  003B72                     end_of_initialization:
   364                           	opt callstack 0
   365  003B72                     __end_of__initialization:
   366                           	opt callstack 0
   367  003B72  904C               	bcf	int$flags,0,c	;clear compiler interrupt flag (level 1)
   368  003B74  924C               	bcf	int$flags,1,c	;clear compiler interrupt flag (level 2)
   369  003B76  0100               	movlb	0
   370  003B78  EF3F  F014         	goto	_main	;jump to C main() function
   371                           
   372                           	psect	bssCOMRAM
   373  000039                     __pbssCOMRAM:
   374                           	opt callstack 0
   375  000039                     _syst_Stat:
   376                           	opt callstack 0
   377  000039                     	ds	3
   378  00003C                     _flags:
   379                           	opt callstack 0
   380  00003C                     	ds	2
   381  00003E                     _STATUS_Eng_V:
   382                           	opt callstack 0
   383  00003E                     	ds	2
   384  000040                     _STATUS_Eng_A:
   385                           	opt callstack 0
   386  000040                     	ds	2
   387  000042                     _eusart1RxTail:
   388                           	opt callstack 0
   389  000042                     	ds	1
   390  000043                     _eusart1RxHead:
   391                           	opt callstack 0
   392  000043                     	ds	1
   393  000044                     _eusart1TxBufferRemaining:
   394                           	opt callstack 0
   395  000044                     	ds	1
   396  000045                     _eusart1TxTail:
   397                           	opt callstack 0
   398  000045                     	ds	1
   399  000046                     _eusart1TxHead:
   400                           	opt callstack 0
   401  000046                     	ds	1
   402  000047                     _count_EPWM2_SStop:
   403                           	opt callstack 0
   404  000047                     	ds	1
   405  000048                     _count_EPWM2_SStart:
   406                           	opt callstack 0
   407  000048                     	ds	1
   408  000049                     _count_EPWM3_SStop:
   409                           	opt callstack 0
   410  000049                     	ds	1
   411  00004A                     _count_EPWM3_SStart:
   412                           	opt callstack 0
   413  00004A                     	ds	1
   414  00004B                     _usart1_busy:
   415                           	opt callstack 0
   416  00004B                     	ds	1
   417                           
   418                           	psect	bssBANK0
   419  000060                     __pbssBANK0:
   420                           	opt callstack 0
   421  000060                     _eusart1RxStatusBuffer:
   422                           	opt callstack 0
   423  000060                     	ds	24
   424  000078                     _request_elec:
   425                           	opt callstack 0
   426  000078                     	ds	10
   427  000082                     _request_light:
   428                           	opt callstack 0
   429  000082                     	ds	8
   430  00008A                     _request_pos:
   431                           	opt callstack 0
   432  00008A                     	ds	4
   433  00008E                     _previous_pos:
   434                           	opt callstack 0
   435  00008E                     	ds	4
   436  000092                     _current_pos:
   437                           	opt callstack 0
   438  000092                     	ds	4
   439  000096                     EPWM2_duty_const@interval:
   440                           	opt callstack 0
   441  000096                     	ds	4
   442  00009A                     EPWM3_duty_const@interval:
   443                           	opt callstack 0
   444  00009A                     	ds	4
   445  00009E                     _i2c_Error:
   446                           	opt callstack 0
   447  00009E                     	ds	4
   448  0000A2                     _nout:
   449                           	opt callstack 0
   450  0000A2                     	ds	2
   451  0000A4                     _width:
   452                           	opt callstack 0
   453  0000A4                     	ds	2
   454  0000A6                     _prec:
   455                           	opt callstack 0
   456  0000A6                     	ds	2
   457  0000A8                     _timer3ReloadVal:
   458                           	opt callstack 0
   459  0000A8                     	ds	2
   460  0000AA                     _timer1ReloadVal:
   461                           	opt callstack 0
   462  0000AA                     	ds	2
   463  0000AC                     _timer0ReloadVal:
   464                           	opt callstack 0
   465  0000AC                     	ds	2
   466  0000AE                     _EUSART1_ErrorHandler:
   467                           	opt callstack 0
   468  0000AE                     	ds	2
   469  0000B0                     _EUSART1_OverrunErrorHandler:
   470                           	opt callstack 0
   471  0000B0                     	ds	2
   472  0000B2                     _EUSART1_FramingErrorHandler:
   473                           	opt callstack 0
   474  0000B2                     	ds	2
   475  0000B4                     _EUSART1_RxDefaultInterruptHandler:
   476                           	opt callstack 0
   477  0000B4                     	ds	2
   478  0000B6                     _EUSART1_TxDefaultInterruptHandler:
   479                           	opt callstack 0
   480  0000B6                     	ds	2
   481  0000B8                     _i2c_error_counter:
   482                           	opt callstack 0
   483  0000B8                     	ds	1
   484  0000B9                     _caract_count:
   485                           	opt callstack 0
   486  0000B9                     	ds	1
   487  0000BA                     _flag_jump_azi_pos:
   488                           	opt callstack 0
   489  0000BA                     	ds	1
   490  0000BB                     _T:
   491                           	opt callstack 0
   492  0000BB                     	ds	1
   493  0000BC                     _caracter_count:
   494                           	opt callstack 0
   495  0000BC                     	ds	1
   496  0000BD                     _DataRx1:
   497                           	opt callstack 0
   498  0000BD                     	ds	1
   499  0000BE                     _eusart1RxLastError:
   500                           	opt callstack 0
   501  0000BE                     	ds	1
   502  0000BF                     _eusart1RxCount:
   503                           	opt callstack 0
   504  0000BF                     	ds	1
   505  0000C0                     EPWM2_period@freq_lure:
   506                           	opt callstack 0
   507  0000C0                     	ds	1
   508  0000C1                     EPWM3_period@freq_lure:
   509                           	opt callstack 0
   510  0000C1                     	ds	1
   511  0000C2                     _MODE_BUTTON:
   512                           	opt callstack 0
   513  0000C2                     	ds	1
   514  0000C3                     _interval_ISR:
   515                           	opt callstack 0
   516  0000C3                     	ds	1
   517                           
   518                           	psect	bssBANK1
   519  000100                     __pbssBANK1:
   520                           	opt callstack 0
   521  000100                     _command:
   522                           	opt callstack 0
   523  000100                     	ds	24
   524  000118                     _eusart1RxBuffer:
   525                           	opt callstack 0
   526  000118                     	ds	24
   527  000130                     _eusart1TxBuffer:
   528                           	opt callstack 0
   529  000130                     	ds	24
   530  000148                     _dbuf:
   531                           	opt callstack 0
   532  000148                     	ds	32
   533                           
   534                           	psect	cstackBANK1
   535  000168                     __pcstackBANK1:
   536                           	opt callstack 0
   537  000168                     ?_printf:
   538                           	opt callstack 0
   539  000168                     printf@fmt:
   540                           	opt callstack 0
   541                           
   542                           ; 2 bytes @ 0x0
   543  000168                     	ds	10
   544  000172                     azi_lim_control@move:
   545                           	opt callstack 0
   546                           
   547                           ; 1 bytes @ 0xA
   548  000172                     	ds	1
   549  000173                     ??_main:
   550                           
   551                           ; 1 bytes @ 0xB
   552  000173                     	ds	2
   553                           
   554                           	psect	cstackBANK0
   555  0000C4                     __pcstackBANK0:
   556                           	opt callstack 0
   557  0000C4                     ?_dtoa:
   558                           	opt callstack 0
   559  0000C4                     i2c2_Open@address:
   560                           	opt callstack 0
   561  0000C4                     ___flmul@sign:
   562                           	opt callstack 0
   563  0000C4                     i2c2_gets@ptrData:
   564                           	opt callstack 0
   565  0000C4                     dtoa@fp:
   566                           	opt callstack 0
   567  0000C4                     ___fldiv@rem:
   568                           	opt callstack 0
   569                           
   570                           ; 4 bytes @ 0x0
   571  0000C4                     	ds	1
   572  0000C5                     i2c2_Open@slaveAddress:
   573                           	opt callstack 0
   574  0000C5                     ___flmul@aexp:
   575                           	opt callstack 0
   576                           
   577                           ; 1 bytes @ 0x1
   578  0000C5                     	ds	1
   579  0000C6                     ??_i2c_BH1750_open:
   580  0000C6                     i2c2_gets@length:
   581                           	opt callstack 0
   582  0000C6                     ___flmul@grs:
   583                           	opt callstack 0
   584  0000C6                     dtoa@d:
   585                           	opt callstack 0
   586                           
   587                           ; 8 bytes @ 0x2
   588  0000C6                     	ds	1
   589  0000C7                     i2c2_gets@slaveAddress:
   590                           	opt callstack 0
   591                           
   592                           ; 1 bytes @ 0x3
   593  0000C7                     	ds	1
   594  0000C8                     i2c_BH1750_open@channel:
   595                           	opt callstack 0
   596  0000C8                     ___fldiv@sign:
   597                           	opt callstack 0
   598                           
   599                           ; 1 bytes @ 0x4
   600  0000C8                     	ds	1
   601  0000C9                     ___fldiv@new_exp:
   602                           	opt callstack 0
   603                           
   604                           ; 2 bytes @ 0x5
   605  0000C9                     	ds	1
   606  0000CA                     ___flmul@bexp:
   607                           	opt callstack 0
   608                           
   609                           ; 1 bytes @ 0x6
   610  0000CA                     	ds	1
   611  0000CB                     ___fldiv@grs:
   612                           	opt callstack 0
   613  0000CB                     ___flmul@prod:
   614                           	opt callstack 0
   615                           
   616                           ; 4 bytes @ 0x7
   617  0000CB                     	ds	3
   618  0000CE                     _dtoa$3012:
   619                           	opt callstack 0
   620                           
   621                           ; 2 bytes @ 0xA
   622  0000CE                     	ds	1
   623  0000CF                     ___fldiv@bexp:
   624                           	opt callstack 0
   625  0000CF                     ___flmul@temp:
   626                           	opt callstack 0
   627                           
   628                           ; 2 bytes @ 0xB
   629  0000CF                     	ds	1
   630  0000D0                     ___fldiv@aexp:
   631                           	opt callstack 0
   632  0000D0                     dtoa@p:
   633                           	opt callstack 0
   634                           
   635                           ; 2 bytes @ 0xC
   636  0000D0                     	ds	1
   637  0000D1                     ??_EPWM2_period:
   638  0000D1                     ??___fltol:
   639                           
   640                           ; 1 bytes @ 0xD
   641  0000D1                     	ds	1
   642  0000D2                     dtoa@w:
   643                           	opt callstack 0
   644                           
   645                           ; 2 bytes @ 0xE
   646  0000D2                     	ds	1
   647  0000D3                     EPWM2_period@freq:
   648                           	opt callstack 0
   649                           
   650                           ; 1 bytes @ 0xF
   651  0000D3                     	ds	1
   652  0000D4                     dtoa@s:
   653                           	opt callstack 0
   654                           
   655                           ; 2 bytes @ 0x10
   656  0000D4                     	ds	1
   657  0000D5                     ___fltol@sign1:
   658                           	opt callstack 0
   659                           
   660                           ; 1 bytes @ 0x11
   661  0000D5                     	ds	1
   662  0000D6                     ___fltol@exp1:
   663                           	opt callstack 0
   664  0000D6                     dtoa@n:
   665                           	opt callstack 0
   666                           
   667                           ; 8 bytes @ 0x12
   668  0000D6                     	ds	1
   669  0000D7                     ?_BH1750_Data_Read:
   670                           	opt callstack 0
   671  0000D7                     ?_EPWM3_duty_const:
   672                           	opt callstack 0
   673  0000D7                     EPWM2_engine_config@duty:
   674                           	opt callstack 0
   675                           
   676                           ; 1 bytes @ 0x13
   677  0000D7                     	ds	1
   678  0000D8                     ??_EPWM2_engine_config:
   679                           
   680                           ; 1 bytes @ 0x14
   681  0000D8                     	ds	1
   682  0000D9                     ??_BH1750_Data_Read:
   683                           
   684                           ; 1 bytes @ 0x15
   685  0000D9                     	ds	1
   686  0000DA                     EPWM2_engine_config@interval:
   687                           	opt callstack 0
   688                           
   689                           ; 4 bytes @ 0x16
   690  0000DA                     	ds	1
   691  0000DB                     ??_EPWM3_period:
   692  0000DB                     EPWM3_engine_config@duty:
   693                           	opt callstack 0
   694  0000DB                     BH1750_Data_Read@Read_meas:
   695                           	opt callstack 0
   696                           
   697                           ; 1 bytes @ 0x17
   698  0000DB                     	ds	1
   699  0000DC                     ??_EPWM3_engine_config:
   700  0000DC                     BH1750_Data_Read@lux_value:
   701                           	opt callstack 0
   702                           
   703                           ; 2 bytes @ 0x18
   704  0000DC                     	ds	1
   705  0000DD                     EPWM3_period@freq:
   706                           	opt callstack 0
   707                           
   708                           ; 1 bytes @ 0x19
   709  0000DD                     	ds	1
   710  0000DE                     EPWM2_engine_config@turn:
   711                           	opt callstack 0
   712  0000DE                     BH1750_Data_Read@raw_value:
   713                           	opt callstack 0
   714  0000DE                     dtoa@i:
   715                           	opt callstack 0
   716  0000DE                     EPWM3_engine_config@interval:
   717                           	opt callstack 0
   718                           
   719                           ; 4 bytes @ 0x1A
   720  0000DE                     	ds	1
   721  0000DF                     EPWM2_engine_config@pulse_width_bit:
   722                           	opt callstack 0
   723                           
   724                           ; 2 bytes @ 0x1B
   725  0000DF                     	ds	1
   726  0000E0                     ?_BH1750_measure:
   727                           	opt callstack 0
   728  0000E0                     ?_vfpfcnvrt:
   729                           	opt callstack 0
   730  0000E0                     BH1750_measure@average:
   731                           	opt callstack 0
   732  0000E0                     vfpfcnvrt@fp:
   733                           	opt callstack 0
   734                           
   735                           ; 2 bytes @ 0x1C
   736  0000E0                     	ds	1
   737  0000E1                     EPWM2_Initialize@freq:
   738                           	opt callstack 0
   739                           
   740                           ; 1 bytes @ 0x1D
   741  0000E1                     	ds	1
   742  0000E2                     ??_BH1750_measure:
   743  0000E2                     EPWM3_engine_config@turn:
   744                           	opt callstack 0
   745  0000E2                     vfpfcnvrt@fmt:
   746                           	opt callstack 0
   747                           
   748                           ; 2 bytes @ 0x1E
   749  0000E2                     	ds	1
   750  0000E3                     EPWM3_engine_config@pulse_width_bit:
   751                           	opt callstack 0
   752                           
   753                           ; 2 bytes @ 0x1F
   754  0000E3                     	ds	1
   755  0000E4                     vfpfcnvrt@ap:
   756                           	opt callstack 0
   757  0000E4                     BH1750_measure@acum:
   758                           	opt callstack 0
   759                           
   760                           ; 4 bytes @ 0x20
   761  0000E4                     	ds	1
   762  0000E5                     EPWM3_Initialize@freq:
   763                           	opt callstack 0
   764                           
   765                           ; 1 bytes @ 0x21
   766  0000E5                     	ds	1
   767  0000E6                     ??_vfpfcnvrt:
   768                           
   769                           ; 1 bytes @ 0x22
   770  0000E6                     	ds	2
   771  0000E8                     BH1750_measure@Data_lux:
   772                           	opt callstack 0
   773  0000E8                     vfpfcnvrt@ll:
   774                           	opt callstack 0
   775                           
   776                           ; 8 bytes @ 0x24
   777  0000E8                     	ds	2
   778  0000EA                     BH1750_measure@i:
   779                           	opt callstack 0
   780                           
   781                           ; 1 bytes @ 0x26
   782  0000EA                     	ds	1
   783  0000EB                     BH1750_measure@channel:
   784                           	opt callstack 0
   785                           
   786                           ; 1 bytes @ 0x27
   787  0000EB                     	ds	5
   788  0000F0                     ?_vfprintf:
   789                           	opt callstack 0
   790  0000F0                     vfprintf@fp:
   791                           	opt callstack 0
   792                           
   793                           ; 2 bytes @ 0x2C
   794  0000F0                     	ds	2
   795  0000F2                     vfprintf@fmt:
   796                           	opt callstack 0
   797                           
   798                           ; 2 bytes @ 0x2E
   799  0000F2                     	ds	2
   800  0000F4                     vfprintf@ap:
   801                           	opt callstack 0
   802                           
   803                           ; 2 bytes @ 0x30
   804  0000F4                     	ds	2
   805  0000F6                     vfprintf@cfmt:
   806                           	opt callstack 0
   807                           
   808                           ; 2 bytes @ 0x32
   809  0000F6                     	ds	4
   810  0000FA                     printf@ap:
   811                           	opt callstack 0
   812                           
   813                           ; 2 bytes @ 0x36
   814  0000FA                     	ds	2
   815  0000FC                     jump_azi_ctrl@dif_value:
   816                           	opt callstack 0
   817                           
   818                           ; 2 bytes @ 0x38
   819  0000FC                     	ds	2
   820  0000FE                     ??_azi_lim_control:
   821                           
   822                           ; 1 bytes @ 0x3A
   823  0000FE                     	ds	2
   824                           
   825                           	psect	cstackCOMRAM
   826  000001                     __pcstackCOMRAM:
   827                           	opt callstack 0
   828  000001                     ??_EPWM3_STOP:
   829  000001                     
   830                           ; 1 bytes @ 0x0
   831  000001                     	ds	1
   832  000002                     
   833                           ; 1 bytes @ 0x1
   834  000002                     	ds	1
   835  000003                     EPWM3_STOP@pulse_width_bit:
   836                           	opt callstack 0
   837                           
   838                           ; 2 bytes @ 0x2
   839  000003                     	ds	2
   840  000005                     ??_INTERRUPT_InterruptManagerHigh:
   841                           
   842                           ; 1 bytes @ 0x4
   843  000005                     	ds	6
   844  00000B                     TMR1_WriteTimer@timerVal:
   845                           	opt callstack 0
   846  00000B                     TMR3_WriteTimer@timerVal:
   847                           	opt callstack 0
   848                           
   849                           ; 2 bytes @ 0xA
   850  00000B                     	ds	2
   851  00000D                     ??_INTERRUPT_InterruptManagerLow:
   852  00000D                     
   853                           ; 1 bytes @ 0xC
   854  00000D                     	ds	7
   855  000014                     ?_strlen:
   856                           	opt callstack 0
   857  000014                     ?___wmul:
   858                           	opt callstack 0
   859  000014                     ?___lwdiv:
   860                           	opt callstack 0
   861  000014                     ?___lmul:
   862                           	opt callstack 0
   863  000014                     ?___lldiv:
   864                           	opt callstack 0
   865  000014                     ?___aodiv:
   866                           	opt callstack 0
   867  000014                     ?___aomod:
   868                           	opt callstack 0
   869  000014                     EUSART1_Write@txData:
   870                           	opt callstack 0
   871  000014                     TMR2_WriteTimer@timerVal:
   872                           	opt callstack 0
   873  000014                     TMR2_LoadPeriodRegister@periodVal:
   874                           	opt callstack 0
   875  000014                     TMR4_WriteTimer@timerVal:
   876                           	opt callstack 0
   877  000014                     TMR4_LoadPeriodRegister@periodVal:
   878                           	opt callstack 0
   879  000014                     EUSART1_SetFramingErrorHandler@interruptHandler:
   880                           	opt callstack 0
   881  000014                     EUSART1_SetOverrunErrorHandler@interruptHandler:
   882                           	opt callstack 0
   883  000014                     EUSART1_SetErrorHandler@interruptHandler:
   884                           	opt callstack 0
   885  000014                     EUSART1_SetTxInterruptHandler@interruptHandler:
   886                           	opt callstack 0
   887  000014                     EUSART1_SetRxInterruptHandler@interruptHandler:
   888                           	opt callstack 0
   889  000014                     ___wmul@multiplier:
   890                           	opt callstack 0
   891  000014                     ___lwdiv@dividend:
   892                           	opt callstack 0
   893  000014                     strlen@s:
   894                           	opt callstack 0
   895  000014                     ___lmul@multiplier:
   896                           	opt callstack 0
   897  000014                     ___lldiv@dividend:
   898                           	opt callstack 0
   899  000014                     ___aodiv@dividend:
   900                           	opt callstack 0
   901  000014                     ___aomod@dividend:
   902                           	opt callstack 0
   903                           
   904                           ; 8 bytes @ 0x13
   905  000014                     	ds	1
   906  000015                     putch@txData:
   907                           	opt callstack 0
   908                           
   909                           ; 1 bytes @ 0x14
   910  000015                     	ds	1
   911  000016                     ___wmul@multiplicand:
   912                           	opt callstack 0
   913  000016                     ___lwdiv@divisor:
   914                           	opt callstack 0
   915  000016                     fputc@c:
   916                           	opt callstack 0
   917  000016                     strlen@a:
   918                           	opt callstack 0
   919                           
   920                           ; 2 bytes @ 0x15
   921  000016                     	ds	2
   922  000018                     ___lwdiv@counter:
   923                           	opt callstack 0
   924  000018                     ___wmul@product:
   925                           	opt callstack 0
   926  000018                     fputc@fp:
   927                           	opt callstack 0
   928  000018                     ___lmul@multiplicand:
   929                           	opt callstack 0
   930  000018                     ___lldiv@divisor:
   931                           	opt callstack 0
   932                           
   933                           ; 4 bytes @ 0x17
   934  000018                     	ds	1
   935  000019                     ___lwdiv@quotient:
   936                           	opt callstack 0
   937                           
   938                           ; 2 bytes @ 0x18
   939  000019                     	ds	1
   940  00001A                     ??_fputc:
   941  00001A                     ?___xxtofl:
   942                           	opt callstack 0
   943  00001A                     ___xxtofl@val:
   944                           	opt callstack 0
   945                           
   946                           ; 4 bytes @ 0x19
   947  00001A                     	ds	1
   948  00001B                     ?_ADC_GetConversion:
   949                           	opt callstack 0
   950  00001B                     ADC_GetConversion@averaged:
   951                           	opt callstack 0
   952                           
   953                           ; 1 bytes @ 0x1A
   954  00001B                     	ds	1
   955  00001C                     ___lmul@product:
   956                           	opt callstack 0
   957  00001C                     ___lldiv@quotient:
   958                           	opt callstack 0
   959  00001C                     ___aodiv@divisor:
   960                           	opt callstack 0
   961  00001C                     ___aomod@divisor:
   962                           	opt callstack 0
   963                           
   964                           ; 8 bytes @ 0x1B
   965  00001C                     	ds	1
   966  00001D                     ??_ADC_GetConversion:
   967                           
   968                           ; 1 bytes @ 0x1C
   969  00001D                     	ds	1
   970  00001E                     ??___xxtofl:
   971                           
   972                           ; 1 bytes @ 0x1D
   973  00001E                     	ds	1
   974  00001F                     ADC_GetConversion@channel:
   975                           	opt callstack 0
   976  00001F                     fputs@s:
   977                           	opt callstack 0
   978                           
   979                           ; 2 bytes @ 0x1E
   980  00001F                     	ds	1
   981  000020                     ?___aldiv:
   982                           	opt callstack 0
   983  000020                     ___lldiv@counter:
   984                           	opt callstack 0
   985  000020                     ADC_GetConversion@accum:
   986                           	opt callstack 0
   987  000020                     ___aldiv@dividend:
   988                           	opt callstack 0
   989                           
   990                           ; 4 bytes @ 0x1F
   991  000020                     	ds	1
   992  000021                     fputs@fp:
   993                           	opt callstack 0
   994                           
   995                           ; 2 bytes @ 0x20
   996  000021                     	ds	1
   997  000022                     ADC_GetConversion@count:
   998                           	opt callstack 0
   999  000022                     ___xxtofl@sign:
  1000                           	opt callstack 0
  1001                           
  1002                           ; 1 bytes @ 0x21
  1003  000022                     	ds	1
  1004  000023                     init_App@i:
  1005                           	opt callstack 0
  1006  000023                     ___xxtofl@exp:
  1007                           	opt callstack 0
  1008  000023                     fputs@c:
  1009                           	opt callstack 0
  1010                           
  1011                           ; 1 bytes @ 0x22
  1012  000023                     	ds	1
  1013  000024                     ___aodiv@counter:
  1014                           	opt callstack 0
  1015  000024                     ___aomod@counter:
  1016                           	opt callstack 0
  1017  000024                     fputs@i:
  1018                           	opt callstack 0
  1019  000024                     ___aldiv@divisor:
  1020                           	opt callstack 0
  1021  000024                     ___xxtofl@arg:
  1022                           	opt callstack 0
  1023                           
  1024                           ; 4 bytes @ 0x23
  1025  000024                     	ds	1
  1026  000025                     ___aodiv@sign:
  1027                           	opt callstack 0
  1028  000025                     ___aomod@sign:
  1029                           	opt callstack 0
  1030                           
  1031                           ; 1 bytes @ 0x24
  1032  000025                     	ds	1
  1033  000026                     ?_abs:
  1034                           	opt callstack 0
  1035  000026                     ?_pad:
  1036                           	opt callstack 0
  1037  000026                     pad@fp:
  1038                           	opt callstack 0
  1039  000026                     abs@a:
  1040                           	opt callstack 0
  1041  000026                     ___aodiv@quotient:
  1042                           	opt callstack 0
  1043                           
  1044                           ; 8 bytes @ 0x25
  1045  000026                     	ds	2
  1046  000028                     ??_abs:
  1047  000028                     ?___fldiv:
  1048                           	opt callstack 0
  1049  000028                     ?___flmul:
  1050                           	opt callstack 0
  1051  000028                     ___aldiv@counter:
  1052                           	opt callstack 0
  1053  000028                     pad@buf:
  1054                           	opt callstack 0
  1055  000028                     ___fldiv@b:
  1056                           	opt callstack 0
  1057  000028                     ___flmul@b:
  1058                           	opt callstack 0
  1059                           
  1060                           ; 4 bytes @ 0x27
  1061  000028                     	ds	1
  1062  000029                     ___aldiv@sign:
  1063                           	opt callstack 0
  1064                           
  1065                           ; 1 bytes @ 0x28
  1066  000029                     	ds	1
  1067  00002A                     pad@p:
  1068                           	opt callstack 0
  1069  00002A                     ___aldiv@quotient:
  1070                           	opt callstack 0
  1071                           
  1072                           ; 4 bytes @ 0x29
  1073  00002A                     	ds	2
  1074  00002C                     ??_pad:
  1075  00002C                     ___fldiv@a:
  1076                           	opt callstack 0
  1077  00002C                     ___flmul@a:
  1078                           	opt callstack 0
  1079                           
  1080                           ; 4 bytes @ 0x2B
  1081  00002C                     	ds	1
  1082  00002D                     pad@i:
  1083                           	opt callstack 0
  1084                           
  1085                           ; 2 bytes @ 0x2C
  1086  00002D                     	ds	1
  1087  00002E                     ?_TMR0_WriteTimer:
  1088                           	opt callstack 0
  1089                           
  1090                           ; 2 bytes @ 0x2D
  1091  00002E                     	ds	1
  1092  00002F                     pad@w:
  1093                           	opt callstack 0
  1094                           
  1095                           ; 2 bytes @ 0x2E
  1096  00002F                     	ds	1
  1097  000030                     ??_TMR0_WriteTimer:
  1098  000030                     ??___fldiv:
  1099  000030                     ??___flmul:
  1100                           
  1101                           ; 1 bytes @ 0x2F
  1102  000030                     	ds	1
  1103  000031                     ??_dtoa:
  1104                           
  1105                           ; 1 bytes @ 0x30
  1106  000031                     	ds	1
  1107  000032                     TMR0_WriteTimer@timerVal:
  1108                           	opt callstack 0
  1109                           
  1110                           ; 1 bytes @ 0x31
  1111  000032                     	ds	1
  1112  000033                     TMR0_WriteTimer@period:
  1113                           	opt callstack 0
  1114                           
  1115                           ; 2 bytes @ 0x32
  1116  000033                     	ds	1
  1117  000034                     ?_EPWM2_duty_const:
  1118                           	opt callstack 0
  1119  000034                     ?___fltol:
  1120                           	opt callstack 0
  1121  000034                     ___fltol@f1:
  1122                           	opt callstack 0
  1123                           
  1124                           ; 4 bytes @ 0x33
  1125  000034                     	ds	1
  1126  000035                     TMR0_Initialize@period:
  1127                           	opt callstack 0
  1128  000035                     TMR0_period@per:
  1129                           	opt callstack 0
  1130                           
  1131                           ; 1 bytes @ 0x34
  1132  000035                     	ds	1
  1133  000036                     ??_i2c2_control:
  1134                           
  1135                           ; 1 bytes @ 0x35
  1136  000036                     	ds	2
  1137  000038                     EPWM3_duty_const@freq:
  1138                           	opt callstack 0
  1139  000038                     EPWM2_duty_const@freq:
  1140                           	opt callstack 0
  1141  000038                     i2c2_control@bit_field:
  1142                           	opt callstack 0
  1143                           
  1144                           ; 1 bytes @ 0x37
  1145  000038                     	ds	1
  1146  000039                     
  1147                           ; 1 bytes @ 0x38
  1148 ;;
  1149 ;;Main: autosize = 0, tempsize = 2, incstack = 0, save=0
  1150 ;;
  1151 ;; *************** function _main *****************
  1152 ;; Defined at:
  1153 ;;		line 8 in file "main.c"
  1154 ;; Parameters:    Size  Location     Type
  1155 ;;		None
  1156 ;; Auto vars:     Size  Location     Type
  1157 ;;  comm_receive    1    0        unsigned char 
  1158 ;; Return value:  Size  Location     Type
  1159 ;;                  1    wreg      void 
  1160 ;; Registers used:
  1161 ;;		wreg, fsr1l, fsr1h, fsr2l, fsr2h, status,2, status,0, tblptrl, tblptrh, tblptru, prodl, prodh, cstack
  1162 ;; Tracked objects:
  1163 ;;		On entry : 0/0
  1164 ;;		On exit  : 0/0
  1165 ;;		Unchanged: 0/0
  1166 ;; Data sizes:     COMRAM   BANK0   BANK1   BANK2   BANK3   BANK4   BANK5   BANK6   BANK7   BANK8   BANK9  BANK10  BANK1
      +1  BANK12  BANK13  BANK14  BANK15
  1167 ;;      Params:         0       0       0       0       0       0       0       0       0       0       0       0       
      +0       0       0       0       0
  1168 ;;      Locals:         0       0       0       0       0       0       0       0       0       0       0       0       
      +0       0       0       0       0
  1169 ;;      Temps:          0       0       2       0       0       0       0       0       0       0       0       0       
      +0       0       0       0       0
  1170 ;;      Totals:         0       0       2       0       0       0       0       0       0       0       0       0       
      +0       0       0       0       0
  1171 ;;Total ram usage:        2 bytes
  1172 ;; Hardware stack levels required when called:   20
  1173 ;; This function calls:
  1174 ;;		_BH1750_measure
  1175 ;;		_SYSTEM_Initialize
  1176 ;;		_azi_lim_control
  1177 ;;		_init_App
  1178 ;;		_printf
  1179 ;; This function is called by:
  1180 ;;		Startup code after reset
  1181 ;; This function uses a non-reentrant model
  1182 ;;
  1183                           
  1184                           	psect	text0
  1185  00287E                     __ptext0:
  1186                           	opt callstack 0
  1187  00287E                     _main:
  1188                           	opt callstack 11
  1189  00287E                     
  1190                           ;main.c: 9:     uint8_t comm_received;;main.c: 10:     SYSTEM_Initialize();
  1191  00287E  EC8F  F01D         	call	_SYSTEM_Initialize	;wreg free
  1192  002882                     
  1193                           ;main.c: 14:     (INTCONbits.GIEH = 1);
  1194  002882  8EF2               	bsf	242,7,c	;volatile
  1195  002884                     
  1196                           ;main.c: 15:     (INTCONbits.GIEL = 1);
  1197  002884  8CF2               	bsf	242,6,c	;volatile
  1198  002886                     
  1199                           ;main.c: 16:     init_App();
  1200  002886  ECAE  F018         	call	_init_App	;wreg free
  1201  00288A                     
  1202                           ;main.c: 17:     syst_Stat.mode = 'a';
  1203  00288A  0E61               	movlw	97
  1204  00288C  6E39               	movwf	_syst_Stat^0,c
  1205  00288E                     l8220:
  1206                           
  1207                           ;main.c: 19:         request_light.Average_Sensor[0] = BH1750_measure(1, 1);
  1208  00288E  0E01               	movlw	1
  1209  002890  0100               	movlb	0	; () banked
  1210  002892  6FE0               	movwf	BH1750_measure@average& (0+255),b
  1211  002894  0E01               	movlw	1
  1212  002896  EC0E  F012         	call	_BH1750_measure
  1213  00289A  C0E0  F082         	movff	?_BH1750_measure,_request_light
  1214  00289E  C0E1  F083         	movff	?_BH1750_measure+1,_request_light+1
  1215  0028A2                     
  1216                           ;main.c: 20:         printf("%$L%d,%d,%d,%d;",request_light.Average_Sensor[0],20,800,150
      +                          0);
  1217  0028A2  0E01               	movlw	low STR_1
  1218  0028A4  0101               	movlb	1	; () banked
  1219  0028A6  6F68               	movwf	printf@fmt& (0+255),b
  1220  0028A8  0E10               	movlw	high STR_1
  1221  0028AA  6F69               	movwf	(printf@fmt+1)& (0+255),b
  1222  0028AC  C082  F16A         	movff	_request_light,?_printf+2
  1223  0028B0  C083  F16B         	movff	_request_light+1,?_printf+3
  1224  0028B4  0E00               	movlw	0
  1225  0028B6  6F6D               	movwf	(?_printf+5)& (0+255),b
  1226  0028B8  0E14               	movlw	20
  1227  0028BA  6F6C               	movwf	(?_printf+4)& (0+255),b
  1228  0028BC  0E03               	movlw	3
  1229  0028BE  6F6F               	movwf	(?_printf+7)& (0+255),b
  1230  0028C0  0E20               	movlw	32
  1231  0028C2  6F6E               	movwf	(?_printf+6)& (0+255),b
  1232  0028C4  0E05               	movlw	5
  1233  0028C6  6F71               	movwf	(?_printf+9)& (0+255),b
  1234  0028C8  0EDC               	movlw	220
  1235  0028CA  6F70               	movwf	(?_printf+8)& (0+255),b
  1236  0028CC  ECBE  F01D         	call	_printf	;wreg free
  1237  0028D0                     
  1238                           ;main.c: 21:         _delay((unsigned long)((1000)*(64000000/4000.0)));
  1239  0028D0  0E52               	movlw	82
  1240  0028D2  0101               	movlb	1	; () banked
  1241  0028D4  6F74               	movwf	(??_main+1)& (0+255),b
  1242  0028D6  0E2B               	movlw	43
  1243  0028D8  6F73               	movwf	??_main& (0+255),b
  1244  0028DA  0E00               	movlw	0
  1245  0028DC                     u7797:
  1246  0028DC  2EE8               	decfsz	wreg,f,c
  1247  0028DE  D7FE               	bra	u7797
  1248  0028E0  2F73               	decfsz	??_main& (0+255),f,b
  1249  0028E2  D7FC               	bra	u7797
  1250  0028E4  2F74               	decfsz	(??_main+1)& (0+255),f,b
  1251  0028E6  D7FA               	bra	u7797
  1252  0028E8  F000               	nop	
  1253                           
  1254                           ;main.c: 23:         switch (syst_Stat.mode) {
  1255  0028EA  EF9D  F014         	goto	l8242
  1256  0028EE                     l8228:
  1257                           
  1258                           ; BSR set to: 1
  1259                           ;main.c: 32:                 if (STATUS_Eng_A.status == 1)
  1260  0028EE  0440               	decf	_STATUS_Eng_A^0,w,c
  1261  0028F0  A4D8               	btfss	status,2,c
  1262  0028F2  EF7D  F014         	goto	u7501
  1263  0028F6  EF7F  F014         	goto	u7500
  1264  0028FA                     u7501:
  1265  0028FA  EF82  F014         	goto	l8232
  1266  0028FE                     u7500:
  1267  0028FE                     
  1268                           ; BSR set to: 1
  1269                           ;main.c: 33:                     azi_lim_control(STATUS_Eng_A.turn);
  1270  0028FE  5041               	movf	(_STATUS_Eng_A+1)^0,w,c
  1271  002900  ECA3  F012         	call	_azi_lim_control
  1272  002904                     l8232:
  1273                           
  1274                           ;main.c: 34:                 if ((usart1_busy == 0) && (STATUS_Eng_A.status == 0) && (ST
      +                          ATUS_Eng_V.status == 0))
  1275  002904  504B               	movf	_usart1_busy^0,w,c	;volatile
  1276  002906  A4D8               	btfss	status,2,c
  1277  002908  EF88  F014         	goto	u7511
  1278  00290C  EF8A  F014         	goto	u7510
  1279  002910                     u7511:
  1280  002910  EF47  F014         	goto	l8220
  1281  002914                     u7510:
  1282  002914  5040               	movf	_STATUS_Eng_A^0,w,c
  1283  002916  A4D8               	btfss	status,2,c
  1284  002918  EF90  F014         	goto	u7521
  1285  00291C  EF92  F014         	goto	u7520
  1286  002920                     u7521:
  1287  002920  EF47  F014         	goto	l8220
  1288  002924                     u7520:
  1289  002924  503E               	movf	_STATUS_Eng_V^0,w,c
  1290  002926  A4D8               	btfss	status,2,c
  1291  002928  EF98  F014         	goto	u7531
  1292  00292C  EF9A  F014         	goto	u7530
  1293  002930                     u7531:
  1294  002930  EF47  F014         	goto	l8220
  1295  002934                     u7530:
  1296  002934  0003               	sleep		;# 
  1297  002936  EF47  F014         	goto	l8220
  1298  00293A                     l8242:
  1299  00293A  5039               	movf	_syst_Stat^0,w,c
  1300  00293C  0101               	movlb	1	; () banked
  1301  00293E  6F73               	movwf	??_main& (0+255),b
  1302  002940  6B74               	clrf	(??_main+1)& (0+255),b
  1303                           
  1304                           ; Switch on 2 bytes has been partitioned into a top level switch of size 1, and 1 sub-sw
      +                          itches
  1305                           ; Switch size 1, requested type "simple"
  1306                           ; Number of cases is 1, Range of values is 0 to 0
  1307                           ; switch strategies available:
  1308                           ; Name         Instructions Cycles
  1309                           ; simple_byte            4     3 (average)
  1310                           ;	Chosen strategy is simple_byte
  1311  002942  5174               	movf	(??_main+1)& (0+255),w,b
  1312  002944  0A00               	xorlw	0	; case 0
  1313  002946  B4D8               	btfsc	status,2,c
  1314  002948  EFA8  F014         	goto	l8562
  1315  00294C  EF47  F014         	goto	l8220
  1316  002950                     l8562:
  1317                           
  1318                           ; BSR set to: 1
  1319                           ; Switch size 1, requested type "simple"
  1320                           ; Number of cases is 3, Range of values is 97 to 109
  1321                           ; switch strategies available:
  1322                           ; Name         Instructions Cycles
  1323                           ; simple_byte           10     6 (average)
  1324                           ;	Chosen strategy is simple_byte
  1325  002950  5173               	movf	??_main& (0+255),w,b
  1326  002952  0A61               	xorlw	97	; case 97
  1327  002954  B4D8               	btfsc	status,2,c
  1328  002956  EF47  F014         	goto	l8220
  1329  00295A  0A05               	xorlw	5	; case 100
  1330  00295C  B4D8               	btfsc	status,2,c
  1331  00295E  EF47  F014         	goto	l8220
  1332  002962  0A09               	xorlw	9	; case 109
  1333  002964  B4D8               	btfsc	status,2,c
  1334  002966  EF77  F014         	goto	l8228
  1335  00296A  EF47  F014         	goto	l8220
  1336  00296E  EF7E  F000         	goto	start
  1337  002972                     __end_of_main:
  1338                           	opt callstack 0
  1339                           
  1340 ;; *************** function _init_App *****************
  1341 ;; Defined at:
  1342 ;;		line 26 in file "user.c"
  1343 ;; Parameters:    Size  Location     Type
  1344 ;;		None
  1345 ;; Auto vars:     Size  Location     Type
  1346 ;;  i               1   34[COMRAM] unsigned char 
  1347 ;; Return value:  Size  Location     Type
  1348 ;;                  1    wreg      void 
  1349 ;; Registers used:
  1350 ;;		wreg, fsr2l, fsr2h, status,2, status,0, cstack
  1351 ;; Tracked objects:
  1352 ;;		On entry : 0/0
  1353 ;;		On exit  : 0/0
  1354 ;;		Unchanged: 0/0
  1355 ;; Data sizes:     COMRAM   BANK0   BANK1   BANK2   BANK3   BANK4   BANK5   BANK6   BANK7   BANK8   BANK9  BANK10  BANK1
      +1  BANK12  BANK13  BANK14  BANK15
  1356 ;;      Params:         0       0       0       0       0       0       0       0       0       0       0       0       
      +0       0       0       0       0
  1357 ;;      Locals:         1       0       0       0       0       0       0       0       0       0       0       0       
      +0       0       0       0       0
  1358 ;;      Temps:          0       0       0       0       0       0       0       0       0       0       0       0       
      +0       0       0       0       0
  1359 ;;      Totals:         1       0       0       0       0       0       0       0       0       0       0       0       
      +0       0       0       0       0
  1360 ;;Total ram usage:        1 bytes
  1361 ;; Hardware stack levels used:    1
  1362 ;; Hardware stack levels required when called:   10
  1363 ;; This function calls:
  1364 ;;		_ADC_GetConversion
  1365 ;; This function is called by:
  1366 ;;		_main
  1367 ;; This function uses a non-reentrant model
  1368 ;;
  1369                           
  1370                           	psect	text1
  1371  00315C                     __ptext1:
  1372                           	opt callstack 0
  1373  00315C                     _init_App:
  1374                           	opt callstack 20
  1375  00315C                     
  1376                           ;user.c: 27:     uint8_t i = 0;
  1377  00315C  0E00               	movlw	0
  1378  00315E  6E23               	movwf	init_App@i^0,c
  1379                           
  1380                           ;user.c: 29:     for (i = 0; i < 24; i++)
  1381  003160  0E00               	movlw	0
  1382  003162  6E23               	movwf	init_App@i^0,c
  1383  003164                     l8110:
  1384                           
  1385                           ;user.c: 30:         command[i] = '\0';
  1386  003164  0E00               	movlw	low _command
  1387  003166  2423               	addwf	init_App@i^0,w,c
  1388  003168  6ED9               	movwf	fsr2l,c
  1389  00316A  6ADA               	clrf	fsr2h,c
  1390  00316C  0E01               	movlw	high _command
  1391  00316E  22DA               	addwfc	fsr2h,f,c
  1392  003170  0E00               	movlw	0
  1393  003172  6EDF               	movwf	indf2,c
  1394  003174  2A23               	incf	init_App@i^0,f,c
  1395  003176  0E17               	movlw	23
  1396  003178  6423               	cpfsgt	init_App@i^0,c
  1397  00317A  EFC1  F018         	goto	u7361
  1398  00317E  EFC3  F018         	goto	u7360
  1399  003182                     u7361:
  1400  003182  EFB2  F018         	goto	l8110
  1401  003186                     u7360:
  1402  003186                     
  1403                           ;user.c: 31:     caract_count = 0;
  1404  003186  0E00               	movlw	0
  1405  003188  0100               	movlb	0	; () banked
  1406  00318A  6FB9               	movwf	_caract_count& (0+255),b
  1407                           
  1408                           ;user.c: 33:     syst_Stat.i2c_stat = 0;
  1409  00318C  0E00               	movlw	0
  1410  00318E  6E3A               	movwf	(_syst_Stat+1)^0,c
  1411  003190                     
  1412                           ; BSR set to: 0
  1413                           ;user.c: 34:     request_pos.azimut_angle = ADC_GetConversion(0x01, 10);
  1414  003190  0E0A               	movlw	10
  1415  003192  6E1B               	movwf	ADC_GetConversion@averaged^0,c
  1416  003194  0E01               	movlw	1
  1417  003196  EC23  F01A         	call	_ADC_GetConversion
  1418  00319A  C01B  F08A         	movff	?_ADC_GetConversion,_request_pos
  1419  00319E  C01C  F08B         	movff	?_ADC_GetConversion+1,_request_pos+1
  1420  0031A2                     
  1421                           ;user.c: 37:     if (request_pos.azimut_angle <= 38)
  1422  0031A2  0100               	movlb	0	; () banked
  1423  0031A4  518B               	movf	(_request_pos+1)& (0+255),w,b
  1424  0031A6  E107               	bnz	u7371
  1425  0031A8  0E27               	movlw	39
  1426  0031AA  5D8A               	subwf	_request_pos& (0+255),w,b
  1427  0031AC  B0D8               	btfsc	status,0,c
  1428  0031AE  EFDB  F018         	goto	u7371
  1429  0031B2  EFDD  F018         	goto	u7370
  1430  0031B6                     u7371:
  1431  0031B6  EFE1  F018         	goto	l8124
  1432  0031BA                     u7370:
  1433  0031BA                     
  1434                           ; BSR set to: 0
  1435                           ;user.c: 38:         syst_Stat.lim_azimuth = 1;
  1436  0031BA  0E01               	movlw	1
  1437  0031BC  6E3B               	movwf	(_syst_Stat+2)^0,c
  1438  0031BE  EFF2  F018         	goto	l1080
  1439  0031C2                     l8124:
  1440                           
  1441                           ; BSR set to: 0
  1442  0031C2  0EE0               	movlw	224
  1443  0031C4  5D8A               	subwf	_request_pos& (0+255),w,b
  1444  0031C6  0E02               	movlw	2
  1445  0031C8  598B               	subwfb	(_request_pos+1)& (0+255),w,b
  1446  0031CA  A0D8               	btfss	status,0,c
  1447  0031CC  EFEA  F018         	goto	u7381
  1448  0031D0  EFEC  F018         	goto	u7380
  1449  0031D4                     u7381:
  1450  0031D4  EFF0  F018         	goto	l8128
  1451  0031D8                     u7380:
  1452  0031D8                     
  1453                           ; BSR set to: 0
  1454                           ;user.c: 40:         syst_Stat.lim_azimuth = 2;
  1455  0031D8  0E02               	movlw	2
  1456  0031DA  6E3B               	movwf	(_syst_Stat+2)^0,c
  1457  0031DC  EFF2  F018         	goto	l1080
  1458  0031E0                     l8128:
  1459                           
  1460                           ; BSR set to: 0
  1461                           ;user.c: 42:         syst_Stat.lim_azimuth = 0;
  1462  0031E0  0E00               	movlw	0
  1463  0031E2  6E3B               	movwf	(_syst_Stat+2)^0,c
  1464  0031E4                     l1080:
  1465                           
  1466                           ; BSR set to: 0
  1467                           ;user.c: 44:     request_pos.elevation_angle = 0;
  1468  0031E4  0E00               	movlw	0
  1469  0031E6  6F8D               	movwf	(_request_pos+3)& (0+255),b
  1470  0031E8  0E00               	movlw	0
  1471  0031EA  6F8C               	movwf	(_request_pos+2)& (0+255),b
  1472  0031EC                     
  1473                           ; BSR set to: 0
  1474                           ;user.c: 45:     previous_pos.azimut_angle = request_pos.azimut_angle;
  1475  0031EC  C08A  F08E         	movff	_request_pos,_previous_pos
  1476  0031F0  C08B  F08F         	movff	_request_pos+1,_previous_pos+1
  1477  0031F4                     
  1478                           ; BSR set to: 0
  1479  0031F4  0012               	return		;funcret
  1480  0031F6                     __end_of_init_App:
  1481                           	opt callstack 0
  1482                           
  1483 ;; *************** function _azi_lim_control *****************
  1484 ;; Defined at:
  1485 ;;		line 230 in file "user.c"
  1486 ;; Parameters:    Size  Location     Type
  1487 ;;  move            1    wreg     unsigned char 
  1488 ;; Auto vars:     Size  Location     Type
  1489 ;;  move            1   10[BANK1 ] unsigned char 
  1490 ;; Return value:  Size  Location     Type
  1491 ;;                  1    wreg      unsigned char 
  1492 ;; Registers used:
  1493 ;;		wreg, fsr1l, fsr1h, fsr2l, fsr2h, status,2, status,0, tblptrl, tblptrh, tblptru, prodl, prodh, cstack
  1494 ;; Tracked objects:
  1495 ;;		On entry : 0/0
  1496 ;;		On exit  : 0/0
  1497 ;;		Unchanged: 0/0
  1498 ;; Data sizes:     COMRAM   BANK0   BANK1   BANK2   BANK3   BANK4   BANK5   BANK6   BANK7   BANK8   BANK9  BANK10  BANK1
      +1  BANK12  BANK13  BANK14  BANK15
  1499 ;;      Params:         0       0       0       0       0       0       0       0       0       0       0       0       
      +0       0       0       0       0
  1500 ;;      Locals:         0       0       1       0       0       0       0       0       0       0       0       0       
      +0       0       0       0       0
  1501 ;;      Temps:          0       2       0       0       0       0       0       0       0       0       0       0       
      +0       0       0       0       0
  1502 ;;      Totals:         0       2       1       0       0       0       0       0       0       0       0       0       
      +0       0       0       0       0
  1503 ;;Total ram usage:        3 bytes
  1504 ;; Hardware stack levels used:    1
  1505 ;; Hardware stack levels required when called:   19
  1506 ;; This function calls:
  1507 ;;		_ADC_GetConversion
  1508 ;;		_EPWM2_engine_SoftStop
  1509 ;;		_jump_azi_ctrl
  1510 ;;		_printf
  1511 ;; This function is called by:
  1512 ;;		_main
  1513 ;;		_short_commands
  1514 ;; This function uses a non-reentrant model
  1515 ;;
  1516                           
  1517                           	psect	text2
  1518  002546                     __ptext2:
  1519                           	opt callstack 0
  1520  002546                     _azi_lim_control:
  1521                           	opt callstack 11
  1522                           
  1523                           ; BSR set to: 0
  1524                           ;incstack = 0
  1525                           ;azi_lim_control@move stored from wreg
  1526  002546  0101               	movlb	1	; () banked
  1527  002548  6F72               	movwf	azi_lim_control@move& (0+255),b
  1528  00254A                     
  1529                           ;user.c: 231:     current_pos.azimut_angle = ADC_GetConversion(0x01, 10);
  1530  00254A  0E0A               	movlw	10
  1531  00254C  6E1B               	movwf	ADC_GetConversion@averaged^0,c
  1532  00254E  0E01               	movlw	1
  1533  002550  EC23  F01A         	call	_ADC_GetConversion
  1534  002554  C01B  F092         	movff	?_ADC_GetConversion,_current_pos
  1535  002558  C01C  F093         	movff	?_ADC_GetConversion+1,_current_pos+1
  1536                           
  1537                           ;user.c: 232:     switch (move) {
  1538  00255C  EF1C  F013         	goto	l8182
  1539  002560                     l8136:
  1540                           
  1541                           ; BSR set to: 0
  1542                           ;user.c: 234:             if (jump_azi_ctrl() == 9) {
  1543  002560  EC23  F01B         	call	_jump_azi_ctrl	;wreg free
  1544  002564  0A09               	xorlw	9
  1545  002566  A4D8               	btfss	status,2,c
  1546  002568  EFB8  F012         	goto	u7391
  1547  00256C  EFBA  F012         	goto	u7390
  1548  002570                     u7391:
  1549  002570  EFBD  F012         	goto	l8142
  1550  002574                     u7390:
  1551  002574                     l8138:
  1552                           
  1553                           ;user.c: 235:                 return 9;
  1554  002574  0E09               	movlw	9
  1555  002576  EF34  F013         	goto	l1162
  1556  00257A                     l8142:
  1557                           
  1558                           ;user.c: 237:             if (current_pos.azimut_angle < 38) {
  1559  00257A  0100               	movlb	0	; () banked
  1560  00257C  5193               	movf	(_current_pos+1)& (0+255),w,b
  1561  00257E  E107               	bnz	u7401
  1562  002580  0E26               	movlw	38
  1563  002582  5D92               	subwf	_current_pos& (0+255),w,b
  1564  002584  B0D8               	btfsc	status,0,c
  1565  002586  EFC7  F012         	goto	u7401
  1566  00258A  EFC9  F012         	goto	u7400
  1567  00258E                     u7401:
  1568  00258E  EF33  F013         	goto	l8184
  1569  002592                     u7400:
  1570  002592                     
  1571                           ; BSR set to: 0
  1572                           ;user.c: 238:                 if (STATUS_Eng_A.status == 1) {
  1573  002592  0440               	decf	_STATUS_Eng_A^0,w,c
  1574  002594  A4D8               	btfss	status,2,c
  1575  002596  EFCF  F012         	goto	u7411
  1576  00259A  EFD1  F012         	goto	u7410
  1577  00259E                     u7411:
  1578  00259E  EFDA  F012         	goto	l8150
  1579  0025A2                     u7410:
  1580  0025A2                     
  1581                           ; BSR set to: 0
  1582                           ;user.c: 239:                     EPWM2_engine_SoftStop();
  1583  0025A2  ECE5  F01A         	call	_EPWM2_engine_SoftStop	;wreg free
  1584  0025A6                     
  1585                           ;user.c: 240:                     printf("$f;");
  1586  0025A6  0E2A               	movlw	low STR_15
  1587  0025A8  0101               	movlb	1	; () banked
  1588  0025AA  6F68               	movwf	printf@fmt& (0+255),b
  1589  0025AC  0E10               	movlw	high STR_15
  1590  0025AE  6F69               	movwf	(printf@fmt+1)& (0+255),b
  1591  0025B0  ECBE  F01D         	call	_printf	;wreg free
  1592  0025B4                     l8150:
  1593                           
  1594                           ;user.c: 242:                 if (syst_Stat.lim_azimuth == 0)
  1595  0025B4  503B               	movf	(_syst_Stat+2)^0,w,c
  1596  0025B6  A4D8               	btfss	status,2,c
  1597  0025B8  EFE0  F012         	goto	u7421
  1598  0025BC  EFE2  F012         	goto	u7420
  1599  0025C0                     u7421:
  1600  0025C0  EFE4  F012         	goto	l8154
  1601  0025C4                     u7420:
  1602  0025C4                     
  1603                           ;user.c: 243:                     syst_Stat.lim_azimuth = 1;
  1604  0025C4  0E01               	movlw	1
  1605  0025C6  6E3B               	movwf	(_syst_Stat+2)^0,c
  1606  0025C8                     l8154:
  1607                           
  1608                           ;user.c: 244:                 return 4;
  1609  0025C8  0E04               	movlw	4
  1610  0025CA  EF34  F013         	goto	l1162
  1611  0025CE                     l8158:
  1612                           
  1613                           ; BSR set to: 0
  1614                           ;user.c: 248:             if (jump_azi_ctrl() == 9)
  1615  0025CE  EC23  F01B         	call	_jump_azi_ctrl	;wreg free
  1616  0025D2  0A09               	xorlw	9
  1617  0025D4  A4D8               	btfss	status,2,c
  1618  0025D6  EFEF  F012         	goto	u7431
  1619  0025DA  EFF1  F012         	goto	u7430
  1620  0025DE                     u7431:
  1621  0025DE  EFF3  F012         	goto	l8164
  1622  0025E2                     u7430:
  1623  0025E2  EFBA  F012         	goto	l8138
  1624  0025E6                     l8164:
  1625                           
  1626                           ;user.c: 250:             if (current_pos.azimut_angle > 736) {
  1627  0025E6  0EE1               	movlw	225
  1628  0025E8  0100               	movlb	0	; () banked
  1629  0025EA  5D92               	subwf	_current_pos& (0+255),w,b
  1630  0025EC  0E02               	movlw	2
  1631  0025EE  5993               	subwfb	(_current_pos+1)& (0+255),w,b
  1632  0025F0  A0D8               	btfss	status,0,c
  1633  0025F2  EFFD  F012         	goto	u7441
  1634  0025F6  EFFF  F012         	goto	u7440
  1635  0025FA                     u7441:
  1636  0025FA  EF33  F013         	goto	l8184
  1637  0025FE                     u7440:
  1638  0025FE                     
  1639                           ; BSR set to: 0
  1640                           ;user.c: 251:                 if (STATUS_Eng_A.status == 1) {
  1641  0025FE  0440               	decf	_STATUS_Eng_A^0,w,c
  1642  002600  A4D8               	btfss	status,2,c
  1643  002602  EF05  F013         	goto	u7451
  1644  002606  EF07  F013         	goto	u7450
  1645  00260A                     u7451:
  1646  00260A  EF10  F013         	goto	l8172
  1647  00260E                     u7450:
  1648  00260E                     
  1649                           ; BSR set to: 0
  1650                           ;user.c: 252:                     EPWM2_engine_SoftStop();
  1651  00260E  ECE5  F01A         	call	_EPWM2_engine_SoftStop	;wreg free
  1652  002612                     
  1653                           ;user.c: 253:                     printf("$f;");
  1654  002612  0E2A               	movlw	low STR_15
  1655  002614  0101               	movlb	1	; () banked
  1656  002616  6F68               	movwf	printf@fmt& (0+255),b
  1657  002618  0E10               	movlw	high STR_15
  1658  00261A  6F69               	movwf	(printf@fmt+1)& (0+255),b
  1659  00261C  ECBE  F01D         	call	_printf	;wreg free
  1660  002620                     l8172:
  1661                           
  1662                           ;user.c: 255:                 if (syst_Stat.lim_azimuth == 0)
  1663  002620  503B               	movf	(_syst_Stat+2)^0,w,c
  1664  002622  A4D8               	btfss	status,2,c
  1665  002624  EF16  F013         	goto	u7461
  1666  002628  EF18  F013         	goto	u7460
  1667  00262C                     u7461:
  1668  00262C  EFE4  F012         	goto	l8154
  1669  002630                     u7460:
  1670  002630                     
  1671                           ;user.c: 256:                     syst_Stat.lim_azimuth = 2;
  1672  002630  0E02               	movlw	2
  1673  002632  6E3B               	movwf	(_syst_Stat+2)^0,c
  1674  002634  EFE4  F012         	goto	l8154
  1675  002638                     l8182:
  1676  002638  0101               	movlb	1	; () banked
  1677  00263A  5172               	movf	azi_lim_control@move& (0+255),w,b
  1678  00263C  0100               	movlb	0	; () banked
  1679  00263E  6FFE               	movwf	??_azi_lim_control& (0+255),b
  1680  002640  6BFF               	clrf	(??_azi_lim_control+1)& (0+255),b
  1681                           
  1682                           ; Switch on 2 bytes has been partitioned into a top level switch of size 1, and 1 sub-sw
      +                          itches
  1683                           ; Switch size 1, requested type "simple"
  1684                           ; Number of cases is 1, Range of values is 0 to 0
  1685                           ; switch strategies available:
  1686                           ; Name         Instructions Cycles
  1687                           ; simple_byte            4     3 (average)
  1688                           ;	Chosen strategy is simple_byte
  1689  002642  51FF               	movf	(??_azi_lim_control+1)& (0+255),w,b
  1690  002644  0A00               	xorlw	0	; case 0
  1691  002646  B4D8               	btfsc	status,2,c
  1692  002648  EF28  F013         	goto	l8564
  1693  00264C  EF33  F013         	goto	l8184
  1694  002650                     l8564:
  1695                           
  1696                           ; BSR set to: 0
  1697                           ; Switch size 1, requested type "simple"
  1698                           ; Number of cases is 2, Range of values is 1 to 2
  1699                           ; switch strategies available:
  1700                           ; Name         Instructions Cycles
  1701                           ; simple_byte            7     4 (average)
  1702                           ;	Chosen strategy is simple_byte
  1703  002650  51FE               	movf	??_azi_lim_control& (0+255),w,b
  1704  002652  0A01               	xorlw	1	; case 1
  1705  002654  B4D8               	btfsc	status,2,c
  1706  002656  EFE7  F012         	goto	l8158
  1707  00265A  0A03               	xorlw	3	; case 2
  1708  00265C  B4D8               	btfsc	status,2,c
  1709  00265E  EFB0  F012         	goto	l8136
  1710  002662  EF33  F013         	goto	l8184
  1711  002666                     l8184:
  1712                           
  1713                           ; BSR set to: 0
  1714                           ;user.c: 261:     return 1;
  1715  002666  0E01               	movlw	1
  1716  002668                     l1162:
  1717  002668  0012               	return		;funcret
  1718  00266A                     __end_of_azi_lim_control:
  1719                           	opt callstack 0
  1720                           
  1721 ;; *************** function _jump_azi_ctrl *****************
  1722 ;; Defined at:
  1723 ;;		line 212 in file "user.c"
  1724 ;; Parameters:    Size  Location     Type
  1725 ;;		None
  1726 ;; Auto vars:     Size  Location     Type
  1727 ;;  dif_value       2   56[BANK0 ] unsigned short 
  1728 ;; Return value:  Size  Location     Type
  1729 ;;                  1    wreg      unsigned char 
  1730 ;; Registers used:
  1731 ;;		wreg, fsr1l, fsr1h, fsr2l, fsr2h, status,2, status,0, tblptrl, tblptrh, tblptru, prodl, prodh, cstack
  1732 ;; Tracked objects:
  1733 ;;		On entry : 0/0
  1734 ;;		On exit  : 0/0
  1735 ;;		Unchanged: 0/0
  1736 ;; Data sizes:     COMRAM   BANK0   BANK1   BANK2   BANK3   BANK4   BANK5   BANK6   BANK7   BANK8   BANK9  BANK10  BANK1
      +1  BANK12  BANK13  BANK14  BANK15
  1737 ;;      Params:         0       0       0       0       0       0       0       0       0       0       0       0       
      +0       0       0       0       0
  1738 ;;      Locals:         0       2       0       0       0       0       0       0       0       0       0       0       
      +0       0       0       0       0
  1739 ;;      Temps:          0       0       0       0       0       0       0       0       0       0       0       0       
      +0       0       0       0       0
  1740 ;;      Totals:         0       2       0       0       0       0       0       0       0       0       0       0       
      +0       0       0       0       0
  1741 ;;Total ram usage:        2 bytes
  1742 ;; Hardware stack levels used:    1
  1743 ;; Hardware stack levels required when called:   18
  1744 ;; This function calls:
  1745 ;;		_EPWM2_engine_SoftStop
  1746 ;;		_abs
  1747 ;;		_printf
  1748 ;; This function is called by:
  1749 ;;		_azi_lim_control
  1750 ;; This function uses a non-reentrant model
  1751 ;;
  1752                           
  1753                           	psect	text3
  1754  003646                     __ptext3:
  1755                           	opt callstack 0
  1756  003646                     _jump_azi_ctrl:
  1757                           	opt callstack 11
  1758  003646                     
  1759                           ;user.c: 213:     uint16_t dif_value;;user.c: 214:     if (flag_jump_azi_pos == 0) {
  1760  003646  0100               	movlb	0	; () banked
  1761  003648  51BA               	movf	_flag_jump_azi_pos& (0+255),w,b
  1762  00364A  A4D8               	btfss	status,2,c
  1763  00364C  EF2A  F01B         	goto	u7211
  1764  003650  EF2C  F01B         	goto	u7210
  1765  003654                     u7211:
  1766  003654  EF5B  F01B         	goto	l7966
  1767  003658                     u7210:
  1768  003658                     
  1769                           ; BSR set to: 0
  1770                           ;user.c: 215:         dif_value = abs(current_pos.azimut_angle - previous_pos.azimut_ang
      +                          le);
  1771  003658  518E               	movf	_previous_pos& (0+255),w,b
  1772  00365A  5D92               	subwf	_current_pos& (0+255),w,b
  1773  00365C  6E26               	movwf	abs@a^0,c
  1774  00365E  518F               	movf	(_previous_pos+1)& (0+255),w,b
  1775  003660  5993               	subwfb	(_current_pos+1)& (0+255),w,b
  1776  003662  6E27               	movwf	(abs@a+1)^0,c
  1777  003664  EC17  F01D         	call	_abs	;wreg free
  1778  003668  C026  F0FC         	movff	?_abs,jump_azi_ctrl@dif_value
  1779  00366C  C027  F0FD         	movff	?_abs+1,jump_azi_ctrl@dif_value+1
  1780  003670                     
  1781                           ;user.c: 216:         previous_pos.azimut_angle = current_pos.azimut_angle;
  1782  003670  C092  F08E         	movff	_current_pos,_previous_pos
  1783  003674  C093  F08F         	movff	_current_pos+1,_previous_pos+1
  1784  003678                     
  1785                           ;user.c: 217:         if (dif_value > 50) {
  1786  003678  0100               	movlb	0	; () banked
  1787  00367A  51FD               	movf	(jump_azi_ctrl@dif_value+1)& (0+255),w,b
  1788  00367C  E109               	bnz	u7220
  1789  00367E  0E33               	movlw	51
  1790  003680  5DFC               	subwf	jump_azi_ctrl@dif_value& (0+255),w,b
  1791  003682  A0D8               	btfss	status,0,c
  1792  003684  EF46  F01B         	goto	u7221
  1793  003688  EF48  F01B         	goto	u7220
  1794  00368C                     u7221:
  1795  00368C  EF5E  F01B         	goto	l7974
  1796  003690                     u7220:
  1797  003690                     
  1798                           ; BSR set to: 0
  1799                           ;user.c: 218:             flag_jump_azi_pos = 1;
  1800  003690  0E01               	movlw	1
  1801  003692  6FBA               	movwf	_flag_jump_azi_pos& (0+255),b
  1802  003694                     
  1803                           ; BSR set to: 0
  1804                           ;user.c: 219:             if (STATUS_Eng_A.status == 1) {
  1805  003694  0440               	decf	_STATUS_Eng_A^0,w,c
  1806  003696  A4D8               	btfss	status,2,c
  1807  003698  EF50  F01B         	goto	u7231
  1808  00369C  EF52  F01B         	goto	u7230
  1809  0036A0                     u7231:
  1810  0036A0  EF5B  F01B         	goto	l7966
  1811  0036A4                     u7230:
  1812  0036A4                     
  1813                           ; BSR set to: 0
  1814                           ;user.c: 220:                 EPWM2_engine_SoftStop();
  1815  0036A4  ECE5  F01A         	call	_EPWM2_engine_SoftStop	;wreg free
  1816  0036A8                     
  1817                           ;user.c: 221:                 printf("$F2;");
  1818  0036A8  0E11               	movlw	low STR_14
  1819  0036AA  0101               	movlb	1	; () banked
  1820  0036AC  6F68               	movwf	printf@fmt& (0+255),b
  1821  0036AE  0E10               	movlw	high STR_14
  1822  0036B0  6F69               	movwf	(printf@fmt+1)& (0+255),b
  1823  0036B2  ECBE  F01D         	call	_printf	;wreg free
  1824  0036B6                     l7966:
  1825                           
  1826                           ;user.c: 223:             return 9;
  1827  0036B6  0E09               	movlw	9
  1828  0036B8  EF5F  F01B         	goto	l1155
  1829  0036BC                     l7974:
  1830                           
  1831                           ; BSR set to: 0
  1832                           ;user.c: 227:     return 1;
  1833  0036BC  0E01               	movlw	1
  1834  0036BE                     l1155:
  1835  0036BE  0012               	return		;funcret
  1836  0036C0                     __end_of_jump_azi_ctrl:
  1837                           	opt callstack 0
  1838                           
  1839 ;; *************** function _printf *****************
  1840 ;; Defined at:
  1841 ;;		line 5 in file "C:\Program Files (x86)\Microchip\xc8\v2.10\pic\sources\c99\common\printf.c"
  1842 ;; Parameters:    Size  Location     Type
  1843 ;;  fmt             2    0[BANK1 ] PTR const unsigned char 
  1844 ;;		 -> STR_16(4), STR_15(4), STR_14(5), STR_13(4), 
  1845 ;;		 -> STR_12(4), STR_11(4), STR_10(4), STR_9(4), 
  1846 ;;		 -> STR_8(4), STR_7(4), STR_6(4), STR_5(4), 
  1847 ;;		 -> STR_4(4), STR_3(4), STR_2(4), STR_1(16), 
  1848 ;; Auto vars:     Size  Location     Type
  1849 ;;  ap              2   54[BANK0 ] PTR void [1]
  1850 ;;		 -> ?_printf(2), 
  1851 ;;  ret             2    0        int 
  1852 ;; Return value:  Size  Location     Type
  1853 ;;                  2    0[BANK1 ] int 
  1854 ;; Registers used:
  1855 ;;		wreg, fsr1l, fsr1h, fsr2l, fsr2h, status,2, status,0, tblptrl, tblptrh, tblptru, cstack
  1856 ;; Tracked objects:
  1857 ;;		On entry : 0/0
  1858 ;;		On exit  : 0/0
  1859 ;;		Unchanged: 0/0
  1860 ;; Data sizes:     COMRAM   BANK0   BANK1   BANK2   BANK3   BANK4   BANK5   BANK6   BANK7   BANK8   BANK9  BANK10  BANK1
      +1  BANK12  BANK13  BANK14  BANK15
  1861 ;;      Params:         0       0      10       0       0       0       0       0       0       0       0       0       
      +0       0       0       0       0
  1862 ;;      Locals:         0       4       0       0       0       0       0       0       0       0       0       0       
      +0       0       0       0       0
  1863 ;;      Temps:          0       0       0       0       0       0       0       0       0       0       0       0       
      +0       0       0       0       0
  1864 ;;      Totals:         0       4      10       0       0       0       0       0       0       0       0       0       
      +0       0       0       0       0
  1865 ;;Total ram usage:       14 bytes
  1866 ;; Hardware stack levels used:    1
  1867 ;; Hardware stack levels required when called:   17
  1868 ;; This function calls:
  1869 ;;		_vfprintf
  1870 ;; This function is called by:
  1871 ;;		_main
  1872 ;;		_jump_azi_ctrl
  1873 ;;		_azi_lim_control
  1874 ;;		_short_commands
  1875 ;;		_mode_check
  1876 ;;		_Emergency_stop
  1877 ;; This function uses a non-reentrant model
  1878 ;;
  1879                           
  1880                           	psect	text4
  1881  003B7C                     __ptext4:
  1882                           	opt callstack 0
  1883  003B7C                     _printf:
  1884                           	opt callstack 13
  1885  003B7C  0E6A               	movlw	low (?_printf+2)
  1886  003B7E  0100               	movlb	0	; () banked
  1887  003B80  6FFA               	movwf	printf@ap& (0+255),b
  1888  003B82  0E01               	movlw	high (?_printf+2)
  1889  003B84  6FFB               	movwf	(printf@ap+1)& (0+255),b
  1890  003B86                     
  1891                           ; BSR set to: 0
  1892  003B86  0E00               	movlw	0
  1893  003B88  6FF0               	movwf	vfprintf@fp& (0+255),b
  1894  003B8A  0E00               	movlw	0
  1895  003B8C  6FF1               	movwf	(vfprintf@fp+1)& (0+255),b
  1896  003B8E  C168  F0F2         	movff	printf@fmt,vfprintf@fmt
  1897  003B92  C169  F0F3         	movff	printf@fmt+1,vfprintf@fmt+1
  1898  003B96  0EFA               	movlw	low printf@ap
  1899  003B98  6FF4               	movwf	vfprintf@ap& (0+255),b
  1900  003B9A  0E00               	movlw	high printf@ap
  1901  003B9C  6FF5               	movwf	(vfprintf@ap+1)& (0+255),b
  1902  003B9E  EC47  F01C         	call	_vfprintf	;wreg free
  1903  003BA2  0012               	return		;funcret
  1904  003BA4                     __end_of_printf:
  1905                           	opt callstack 0
  1906                           
  1907 ;; *************** function _vfprintf *****************
  1908 ;; Defined at:
  1909 ;;		line 1368 in file "C:\Program Files (x86)\Microchip\xc8\v2.10\pic\sources\c99\common\doprnt.c"
  1910 ;; Parameters:    Size  Location     Type
  1911 ;;  fp              2   44[BANK0 ] PTR struct _IO_FILE
  1912 ;;		 -> NULL(0), 
  1913 ;;  fmt             2   46[BANK0 ] PTR const unsigned char 
  1914 ;;		 -> STR_16(4), STR_15(4), STR_14(5), STR_13(4), 
  1915 ;;		 -> STR_12(4), STR_11(4), STR_10(4), STR_9(4), 
  1916 ;;		 -> STR_8(4), STR_7(4), STR_6(4), STR_5(4), 
  1917 ;;		 -> STR_4(4), STR_3(4), STR_2(4), STR_1(16), 
  1918 ;;  ap              2   48[BANK0 ] PTR PTR void 
  1919 ;;		 -> printf@ap(2), 
  1920 ;; Auto vars:     Size  Location     Type
  1921 ;;  cfmt            2   50[BANK0 ] PTR unsigned char 
  1922 ;;		 -> STR_16(4), STR_15(4), STR_14(5), STR_13(4), 
  1923 ;;		 -> STR_12(4), STR_11(4), STR_10(4), STR_9(4), 
  1924 ;;		 -> STR_8(4), STR_7(4), STR_6(4), STR_5(4), 
  1925 ;;		 -> STR_4(4), STR_3(4), STR_2(4), STR_1(16), 
  1926 ;; Return value:  Size  Location     Type
  1927 ;;                  2   44[BANK0 ] int 
  1928 ;; Registers used:
  1929 ;;		wreg, fsr1l, fsr1h, fsr2l, fsr2h, status,2, status,0, tblptrl, tblptrh, tblptru, cstack
  1930 ;; Tracked objects:
  1931 ;;		On entry : 0/0
  1932 ;;		On exit  : 0/0
  1933 ;;		Unchanged: 0/0
  1934 ;; Data sizes:     COMRAM   BANK0   BANK1   BANK2   BANK3   BANK4   BANK5   BANK6   BANK7   BANK8   BANK9  BANK10  BANK1
      +1  BANK12  BANK13  BANK14  BANK15
  1935 ;;      Params:         0       6       0       0       0       0       0       0       0       0       0       0       
      +0       0       0       0       0
  1936 ;;      Locals:         0       2       0       0       0       0       0       0       0       0       0       0       
      +0       0       0       0       0
  1937 ;;      Temps:          0       0       0       0       0       0       0       0       0       0       0       0       
      +0       0       0       0       0
  1938 ;;      Totals:         0       8       0       0       0       0       0       0       0       0       0       0       
      +0       0       0       0       0
  1939 ;;Total ram usage:        8 bytes
  1940 ;; Hardware stack levels used:    1
  1941 ;; Hardware stack levels required when called:   16
  1942 ;; This function calls:
  1943 ;;		_vfpfcnvrt
  1944 ;; This function is called by:
  1945 ;;		_printf
  1946 ;; This function uses a non-reentrant model
  1947 ;;
  1948                           
  1949                           	psect	text5
  1950  00388E                     __ptext5:
  1951                           	opt callstack 0
  1952  00388E                     _vfprintf:
  1953                           	opt callstack 13
  1954  00388E                     
  1955                           ;C:\Program Files (x86)\Microchip\xc8\v2.10\pic\sources\c99\common\doprnt.c: 1368: int v
      +                          fprintf(FILE *fp, const char *fmt, va_list ap);C:\Program Files (x86)\Microchip\xc8\v2.1
      +                          0\pic\sources\c99\common\doprnt.c: 1369: {;C:\Program Files (x86)\Microchip\xc8\v2.10\pi
      +                          c\sources\c99\common\doprnt.c: 1371:     char *cfmt;;C:\Program Files (x86)\Microchip\xc
      +                          8\v2.10\pic\sources\c99\common\doprnt.c: 1373:     cfmt = (char *)fmt;
  1956  00388E  C0F2  F0F6         	movff	vfprintf@fmt,vfprintf@cfmt
  1957  003892  C0F3  F0F7         	movff	vfprintf@fmt+1,vfprintf@cfmt+1
  1958  003896                     
  1959                           ;C:\Program Files (x86)\Microchip\xc8\v2.10\pic\sources\c99\common\doprnt.c: 1374:     n
      +                          out = 0;
  1960  003896  0E00               	movlw	0
  1961  003898  0100               	movlb	0	; () banked
  1962  00389A  6FA3               	movwf	(_nout+1)& (0+255),b
  1963  00389C  0E00               	movlw	0
  1964  00389E  6FA2               	movwf	_nout& (0+255),b
  1965                           
  1966                           ;C:\Program Files (x86)\Microchip\xc8\v2.10\pic\sources\c99\common\doprnt.c: 1375:     w
      +                          hile (*cfmt) {
  1967  0038A0  EF65  F01C         	goto	l7668
  1968  0038A4                     l7666:
  1969                           
  1970                           ; BSR set to: 0
  1971                           ;C:\Program Files (x86)\Microchip\xc8\v2.10\pic\sources\c99\common\doprnt.c: 1376:      
      +                             nout += vfpfcnvrt(fp, &cfmt, ap);
  1972  0038A4  C0F0  F0E0         	movff	vfprintf@fp,vfpfcnvrt@fp
  1973  0038A8  C0F1  F0E1         	movff	vfprintf@fp+1,vfpfcnvrt@fp+1
  1974  0038AC  0EF6               	movlw	low vfprintf@cfmt
  1975  0038AE  6FE2               	movwf	vfpfcnvrt@fmt& (0+255),b
  1976  0038B0  0E00               	movlw	high vfprintf@cfmt
  1977  0038B2  6FE3               	movwf	(vfpfcnvrt@fmt+1)& (0+255),b
  1978  0038B4  C0F4  F0E4         	movff	vfprintf@ap,vfpfcnvrt@ap
  1979  0038B8  C0F5  F0E5         	movff	vfprintf@ap+1,vfpfcnvrt@ap+1
  1980  0038BC  EC74  F00D         	call	_vfpfcnvrt	;wreg free
  1981  0038C0  0100               	movlb	0	; () banked
  1982  0038C2  51E0               	movf	?_vfpfcnvrt& (0+255),w,b
  1983  0038C4  27A2               	addwf	_nout& (0+255),f,b
  1984  0038C6  51E1               	movf	(?_vfpfcnvrt+1)& (0+255),w,b
  1985  0038C8  23A3               	addwfc	(_nout+1)& (0+255),f,b
  1986  0038CA                     l7668:
  1987                           
  1988                           ; BSR set to: 0
  1989                           ;C:\Program Files (x86)\Microchip\xc8\v2.10\pic\sources\c99\common\doprnt.c: 1375:     w
      +                          hile (*cfmt) {
  1990  0038CA  C0F6  FFF6         	movff	vfprintf@cfmt,tblptrl
  1991  0038CE  C0F7  FFF7         	movff	vfprintf@cfmt+1,tblptrh
  1992  0038D2                     	if	1	;Program memory is < 0x10000, tblptru is always zero
  1993  0038D2  6AF8               	clrf	tblptru,c
  1994  0038D4                     	endif
  1995  0038D4                     	if	0	;tblptru may be non-zero
  1996  0038D4                     	endif
  1997  0038D4  0008               	tblrd		*
  1998  0038D6  50F5               	movf	tablat,w,c
  1999  0038D8  0900               	iorlw	0
  2000  0038DA  A4D8               	btfss	status,2,c
  2001  0038DC  EF72  F01C         	goto	u6971
  2002  0038E0  EF74  F01C         	goto	u6970
  2003  0038E4                     u6971:
  2004  0038E4  EF52  F01C         	goto	l7666
  2005  0038E8                     u6970:
  2006  0038E8                     
  2007                           ; BSR set to: 0
  2008                           ;C:\Program Files (x86)\Microchip\xc8\v2.10\pic\sources\c99\common\doprnt.c: 1378:     r
      +                          eturn nout;
  2009  0038E8  C0A2  F0F0         	movff	_nout,?_vfprintf
  2010  0038EC  C0A3  F0F1         	movff	_nout+1,?_vfprintf+1
  2011  0038F0                     
  2012                           ; BSR set to: 0
  2013  0038F0  0012               	return		;funcret
  2014  0038F2                     __end_of_vfprintf:
  2015                           	opt callstack 0
  2016                           
  2017 ;; *************** function _vfpfcnvrt *****************
  2018 ;; Defined at:
  2019 ;;		line 670 in file "C:\Program Files (x86)\Microchip\xc8\v2.10\pic\sources\c99\common\doprnt.c"
  2020 ;; Parameters:    Size  Location     Type
  2021 ;;  fp              2   28[BANK0 ] PTR struct _IO_FILE
  2022 ;;		 -> NULL(0), 
  2023 ;;  fmt             2   30[BANK0 ] PTR PTR unsigned char 
  2024 ;;		 -> vfprintf@cfmt(2), 
  2025 ;;  ap              2   32[BANK0 ] PTR PTR void 
  2026 ;;		 -> printf@ap(2), 
  2027 ;; Auto vars:     Size  Location     Type
  2028 ;;  ll              8   36[BANK0 ] long long 
  2029 ;;  llu             8    0        unsigned long long 
  2030 ;;  f               4    0        unsigned long long 
  2031 ;;  vp              3    0        PTR void 
  2032 ;;  ct              3    0        unsigned char [3]
  2033 ;;  cp              3    0        PTR unsigned char 
  2034 ;;  i               2    0        int 
  2035 ;;  done            2    0        int 
  2036 ;;  c               1    0        unsigned char 
  2037 ;; Return value:  Size  Location     Type
  2038 ;;                  2   28[BANK0 ] int 
  2039 ;; Registers used:
  2040 ;;		wreg, fsr1l, fsr1h, fsr2l, fsr2h, status,2, status,0, tblptrl, tblptrh, tblptru, cstack
  2041 ;; Tracked objects:
  2042 ;;		On entry : 0/0
  2043 ;;		On exit  : 0/0
  2044 ;;		Unchanged: 0/0
  2045 ;; Data sizes:     COMRAM   BANK0   BANK1   BANK2   BANK3   BANK4   BANK5   BANK6   BANK7   BANK8   BANK9  BANK10  BANK1
      +1  BANK12  BANK13  BANK14  BANK15
  2046 ;;      Params:         0       6       0       0       0       0       0       0       0       0       0       0       
      +0       0       0       0       0
  2047 ;;      Locals:         0       8       0       0       0       0       0       0       0       0       0       0       
      +0       0       0       0       0
  2048 ;;      Temps:          0       2       0       0       0       0       0       0       0       0       0       0       
      +0       0       0       0       0
  2049 ;;      Totals:         0      16       0       0       0       0       0       0       0       0       0       0       
      +0       0       0       0       0
  2050 ;;Total ram usage:       16 bytes
  2051 ;; Hardware stack levels used:    1
  2052 ;; Hardware stack levels required when called:   15
  2053 ;; This function calls:
  2054 ;;		_dtoa
  2055 ;;		_fputc
  2056 ;; This function is called by:
  2057 ;;		_vfprintf
  2058 ;; This function uses a non-reentrant model
  2059 ;;
  2060                           
  2061                           	psect	text6
  2062  001AE8                     __ptext6:
  2063                           	opt callstack 0
  2064  001AE8                     _vfpfcnvrt:
  2065                           	opt callstack 13
  2066  001AE8                     
  2067                           ;C:\Program Files (x86)\Microchip\xc8\v2.10\pic\sources\c99\common\doprnt.c: 670: static
      +                           int vfpfcnvrt(FILE *fp, char *fmt[], va_list ap);C:\Program Files (x86)\Microchip\xc8\v
      +                          2.10\pic\sources\c99\common\doprnt.c: 671: {;C:\Program Files (x86)\Microchip\xc8\v2.10\
      +                          pic\sources\c99\common\doprnt.c: 672:     char c, *cp, ct[3];;C:\Program Files (x86)\Mic
      +                          rochip\xc8\v2.10\pic\sources\c99\common\doprnt.c: 673:     int done, i;;C:\Program Files
      +                           (x86)\Microchip\xc8\v2.10\pic\sources\c99\common\doprnt.c: 674:     long long ll;
  2068  001AE8  C0E2  FFD9         	movff	vfpfcnvrt@fmt,fsr2l
  2069  001AEC  C0E3  FFDA         	movff	vfpfcnvrt@fmt+1,fsr2h
  2070  001AF0  CFDE FFF6          	movff	postinc2,tblptrl
  2071  001AF4  CFDD FFF7          	movff	postdec2,tblptrh
  2072  001AF8                     	if	1	;Program memory is < 0x10000, tblptru is always zero
  2073  001AF8  6AF8               	clrf	tblptru,c
  2074  001AFA                     	endif
  2075  001AFA                     	if	0	;tblptru may be non-zero
  2076  001AFA                     	endif
  2077  001AFA  0008               	tblrd		*
  2078  001AFC  50F5               	movf	tablat,w,c
  2079  001AFE  0A25               	xorlw	37
  2080  001B00  A4D8               	btfss	status,2,c
  2081  001B02  EF85  F00D         	goto	u6601
  2082  001B06  EF87  F00D         	goto	u6600
  2083  001B0A                     u6601:
  2084  001B0A  EF37  F00E         	goto	l7384
  2085  001B0E                     u6600:
  2086  001B0E                     
  2087                           ;C:\Program Files (x86)\Microchip\xc8\v2.10\pic\sources\c99\common\doprnt.c: 681:       
      +                            ++*fmt;
  2088  001B0E  C0E2  FFD9         	movff	vfpfcnvrt@fmt,fsr2l
  2089  001B12  C0E3  FFDA         	movff	vfpfcnvrt@fmt+1,fsr2h
  2090  001B16  2ADE               	incf	postinc2,f,c
  2091  001B18  0E00               	movlw	0
  2092  001B1A  22DD               	addwfc	postdec2,f,c
  2093  001B1C                     
  2094                           ;C:\Program Files (x86)\Microchip\xc8\v2.10\pic\sources\c99\common\doprnt.c: 683:       
      +                            flags = width = 0;
  2095  001B1C  0E00               	movlw	0
  2096  001B1E  0100               	movlb	0	; () banked
  2097  001B20  6FA5               	movwf	(_width+1)& (0+255),b
  2098  001B22  0E00               	movlw	0
  2099  001B24  6FA4               	movwf	_width& (0+255),b
  2100  001B26  C0A4  F03C         	movff	_width,_flags
  2101  001B2A  C0A5  F03D         	movff	_width+1,_flags+1
  2102  001B2E                     
  2103                           ; BSR set to: 0
  2104                           ;C:\Program Files (x86)\Microchip\xc8\v2.10\pic\sources\c99\common\doprnt.c: 684:       
      +                            prec = -1;
  2105  001B2E  69A6               	setf	_prec& (0+255),b
  2106  001B30  69A7               	setf	(_prec+1)& (0+255),b
  2107  001B32                     
  2108                           ; BSR set to: 0
  2109                           ;C:\Program Files (x86)\Microchip\xc8\v2.10\pic\sources\c99\common\doprnt.c: 825:       
      +                            if ((*fmt[0] == 'd') || (*fmt[0] == 'i')) {
  2110  001B32  C0E2  FFD9         	movff	vfpfcnvrt@fmt,fsr2l
  2111  001B36  C0E3  FFDA         	movff	vfpfcnvrt@fmt+1,fsr2h
  2112  001B3A  CFDE FFF6          	movff	postinc2,tblptrl
  2113  001B3E  CFDD FFF7          	movff	postdec2,tblptrh
  2114  001B42                     	if	1	;Program memory is < 0x10000, tblptru is always zero
  2115  001B42  6AF8               	clrf	tblptru,c
  2116  001B44                     	endif
  2117  001B44                     	if	0	;tblptru may be non-zero
  2118  001B44                     	endif
  2119  001B44  0008               	tblrd		*
  2120  001B46  50F5               	movf	tablat,w,c
  2121  001B48  0A64               	xorlw	100
  2122  001B4A  B4D8               	btfsc	status,2,c
  2123  001B4C  EFAA  F00D         	goto	u6611
  2124  001B50  EFAC  F00D         	goto	u6610
  2125  001B54                     u6611:
  2126  001B54  EFBF  F00D         	goto	l7362
  2127  001B58                     u6610:
  2128  001B58                     
  2129                           ; BSR set to: 0
  2130  001B58  C0E2  FFD9         	movff	vfpfcnvrt@fmt,fsr2l
  2131  001B5C  C0E3  FFDA         	movff	vfpfcnvrt@fmt+1,fsr2h
  2132  001B60  CFDE FFF6          	movff	postinc2,tblptrl
  2133  001B64  CFDD FFF7          	movff	postdec2,tblptrh
  2134  001B68                     	if	1	;Program memory is < 0x10000, tblptru is always zero
  2135  001B68  6AF8               	clrf	tblptru,c
  2136  001B6A                     	endif
  2137  001B6A                     	if	0	;tblptru may be non-zero
  2138  001B6A                     	endif
  2139  001B6A  0008               	tblrd		*
  2140  001B6C  50F5               	movf	tablat,w,c
  2141  001B6E  0A69               	xorlw	105
  2142  001B70  A4D8               	btfss	status,2,c
  2143  001B72  EFBD  F00D         	goto	u6621
  2144  001B76  EFBF  F00D         	goto	u6620
  2145  001B7A                     u6621:
  2146  001B7A  EFFF  F00D         	goto	l7368
  2147  001B7E                     u6620:
  2148  001B7E                     l7362:
  2149                           
  2150                           ; BSR set to: 0
  2151                           ;C:\Program Files (x86)\Microchip\xc8\v2.10\pic\sources\c99\common\doprnt.c: 827:       
      +                                ++*fmt;
  2152  001B7E  C0E2  FFD9         	movff	vfpfcnvrt@fmt,fsr2l
  2153  001B82  C0E3  FFDA         	movff	vfpfcnvrt@fmt+1,fsr2h
  2154  001B86  2ADE               	incf	postinc2,f,c
  2155  001B88  0E00               	movlw	0
  2156  001B8A  22DD               	addwfc	postdec2,f,c
  2157                           
  2158                           ;C:\Program Files (x86)\Microchip\xc8\v2.10\pic\sources\c99\common\doprnt.c: 828:       
      +                                ll = (long long)(*(int *)__va_arg(*(int **)ap, (int)0));
  2159  001B8C  C0E4  FFD9         	movff	vfpfcnvrt@ap,fsr2l
  2160  001B90  C0E5  FFDA         	movff	vfpfcnvrt@ap+1,fsr2h
  2161  001B94  CFDF F0E6          	movff	indf2,??_vfpfcnvrt
  2162  001B98  0E02               	movlw	2
  2163  001B9A  26DE               	addwf	postinc2,f,c
  2164  001B9C  CFDF F0E7          	movff	indf2,??_vfpfcnvrt+1
  2165  001BA0  0E00               	movlw	0
  2166  001BA2  22DD               	addwfc	postdec2,f,c
  2167  001BA4  C0E6  FFD9         	movff	??_vfpfcnvrt,fsr2l
  2168  001BA8  C0E7  FFDA         	movff	??_vfpfcnvrt+1,fsr2h
  2169  001BAC  CFDE F0E8          	movff	postinc2,vfpfcnvrt@ll
  2170  001BB0  CFDD F0E9          	movff	postdec2,vfpfcnvrt@ll+1
  2171  001BB4  0E00               	movlw	0
  2172  001BB6  BFE9               	btfsc	(vfpfcnvrt@ll+1)& (0+255),7,b
  2173  001BB8  0EFF               	movlw	-1
  2174  001BBA  6FEA               	movwf	(vfpfcnvrt@ll+2)& (0+255),b
  2175  001BBC  6FEB               	movwf	(vfpfcnvrt@ll+3)& (0+255),b
  2176  001BBE  6FEC               	movwf	(vfpfcnvrt@ll+4)& (0+255),b
  2177  001BC0  6FED               	movwf	(vfpfcnvrt@ll+5)& (0+255),b
  2178  001BC2  6FEE               	movwf	(vfpfcnvrt@ll+6)& (0+255),b
  2179  001BC4  6FEF               	movwf	(vfpfcnvrt@ll+7)& (0+255),b
  2180  001BC6                     
  2181                           ; BSR set to: 0
  2182                           ;C:\Program Files (x86)\Microchip\xc8\v2.10\pic\sources\c99\common\doprnt.c: 830:       
      +                                return dtoa(fp, ll);
  2183  001BC6  C0E0  F0C4         	movff	vfpfcnvrt@fp,dtoa@fp
  2184  001BCA  C0E1  F0C5         	movff	vfpfcnvrt@fp+1,dtoa@fp+1
  2185  001BCE  C0E8  F0C6         	movff	vfpfcnvrt@ll,dtoa@d
  2186  001BD2  C0E9  F0C7         	movff	vfpfcnvrt@ll+1,dtoa@d+1
  2187  001BD6  C0EA  F0C8         	movff	vfpfcnvrt@ll+2,dtoa@d+2
  2188  001BDA  C0EB  F0C9         	movff	vfpfcnvrt@ll+3,dtoa@d+3
  2189  001BDE  C0EC  F0CA         	movff	vfpfcnvrt@ll+4,dtoa@d+4
  2190  001BE2  C0ED  F0CB         	movff	vfpfcnvrt@ll+5,dtoa@d+5
  2191  001BE6  C0EE  F0CC         	movff	vfpfcnvrt@ll+6,dtoa@d+6
  2192  001BEA  C0EF  F0CD         	movff	vfpfcnvrt@ll+7,dtoa@d+7
  2193  001BEE  EC02  F00C         	call	_dtoa	;wreg free
  2194  001BF2  C0C4  F0E0         	movff	?_dtoa,?_vfpfcnvrt
  2195  001BF6  C0C5  F0E1         	movff	?_dtoa+1,?_vfpfcnvrt+1
  2196  001BFA  EF53  F00E         	goto	l1251
  2197  001BFE                     l7368:
  2198                           
  2199                           ; BSR set to: 0
  2200                           ;C:\Program Files (x86)\Microchip\xc8\v2.10\pic\sources\c99\common\doprnt.c: 1350:      
      +                             if ((*fmt)[0] == '%') {
  2201  001BFE  C0E2  FFD9         	movff	vfpfcnvrt@fmt,fsr2l
  2202  001C02  C0E3  FFDA         	movff	vfpfcnvrt@fmt+1,fsr2h
  2203  001C06  CFDE FFF6          	movff	postinc2,tblptrl
  2204  001C0A  CFDD FFF7          	movff	postdec2,tblptrh
  2205  001C0E                     	if	1	;Program memory is < 0x10000, tblptru is always zero
  2206  001C0E  6AF8               	clrf	tblptru,c
  2207  001C10                     	endif
  2208  001C10                     	if	0	;tblptru may be non-zero
  2209  001C10                     	endif
  2210  001C10  0008               	tblrd		*
  2211  001C12  50F5               	movf	tablat,w,c
  2212  001C14  0A25               	xorlw	37
  2213  001C16  A4D8               	btfss	status,2,c
  2214  001C18  EF10  F00E         	goto	u6631
  2215  001C1C  EF12  F00E         	goto	u6630
  2216  001C20                     u6631:
  2217  001C20  EF2A  F00E         	goto	l7378
  2218  001C24                     u6630:
  2219  001C24                     
  2220                           ; BSR set to: 0
  2221                           ;C:\Program Files (x86)\Microchip\xc8\v2.10\pic\sources\c99\common\doprnt.c: 1351:      
      +                                 ++*fmt;
  2222  001C24  C0E2  FFD9         	movff	vfpfcnvrt@fmt,fsr2l
  2223  001C28  C0E3  FFDA         	movff	vfpfcnvrt@fmt+1,fsr2h
  2224  001C2C  2ADE               	incf	postinc2,f,c
  2225  001C2E  0E00               	movlw	0
  2226  001C30  22DD               	addwfc	postdec2,f,c
  2227  001C32                     
  2228                           ; BSR set to: 0
  2229                           ;C:\Program Files (x86)\Microchip\xc8\v2.10\pic\sources\c99\common\doprnt.c: 1352:      
      +                                 fputc((int)'%', fp);
  2230  001C32  0E00               	movlw	0
  2231  001C34  6E17               	movwf	(fputc@c+1)^0,c
  2232  001C36  0E25               	movlw	37
  2233  001C38  6E16               	movwf	fputc@c^0,c
  2234  001C3A  C0E0  F018         	movff	vfpfcnvrt@fp,fputc@fp
  2235  001C3E  C0E1  F019         	movff	vfpfcnvrt@fp+1,fputc@fp+1
  2236  001C42  ECFB  F018         	call	_fputc	;wreg free
  2237  001C46                     l7374:
  2238                           
  2239                           ;C:\Program Files (x86)\Microchip\xc8\v2.10\pic\sources\c99\common\doprnt.c: 1353:      
      +                                 return 1;
  2240  001C46  0E00               	movlw	0
  2241  001C48  0100               	movlb	0	; () banked
  2242  001C4A  6FE1               	movwf	(?_vfpfcnvrt+1)& (0+255),b
  2243  001C4C  0E01               	movlw	1
  2244  001C4E  6FE0               	movwf	?_vfpfcnvrt& (0+255),b
  2245  001C50  EF53  F00E         	goto	l1251
  2246  001C54                     l7378:
  2247                           
  2248                           ; BSR set to: 0
  2249                           ;C:\Program Files (x86)\Microchip\xc8\v2.10\pic\sources\c99\common\doprnt.c: 1357:      
      +                             ++*fmt;
  2250  001C54  C0E2  FFD9         	movff	vfpfcnvrt@fmt,fsr2l
  2251  001C58  C0E3  FFDA         	movff	vfpfcnvrt@fmt+1,fsr2h
  2252  001C5C  2ADE               	incf	postinc2,f,c
  2253  001C5E  0E00               	movlw	0
  2254  001C60  22DD               	addwfc	postdec2,f,c
  2255  001C62                     
  2256                           ; BSR set to: 0
  2257                           ;C:\Program Files (x86)\Microchip\xc8\v2.10\pic\sources\c99\common\doprnt.c: 1358:      
      +                             return 0;
  2258  001C62  0E00               	movlw	0
  2259  001C64  6FE1               	movwf	(?_vfpfcnvrt+1)& (0+255),b
  2260  001C66  0E00               	movlw	0
  2261  001C68  6FE0               	movwf	?_vfpfcnvrt& (0+255),b
  2262  001C6A  EF53  F00E         	goto	l1251
  2263  001C6E                     l7384:
  2264                           
  2265                           ;C:\Program Files (x86)\Microchip\xc8\v2.10\pic\sources\c99\common\doprnt.c: 1362:     f
      +                          putc((int)(*fmt)[0], fp);
  2266  001C6E  C0E2  FFD9         	movff	vfpfcnvrt@fmt,fsr2l
  2267  001C72  C0E3  FFDA         	movff	vfpfcnvrt@fmt+1,fsr2h
  2268  001C76  CFDE FFF6          	movff	postinc2,tblptrl
  2269  001C7A  CFDD FFF7          	movff	postdec2,tblptrh
  2270  001C7E                     	if	1	;Program memory is < 0x10000, tblptru is always zero
  2271  001C7E  6AF8               	clrf	tblptru,c
  2272  001C80                     	endif
  2273  001C80                     	if	0	;tblptru may be non-zero
  2274  001C80                     	endif
  2275  001C80  0008               	tblrd		*
  2276  001C82  50F5               	movf	tablat,w,c
  2277  001C84  6E16               	movwf	fputc@c^0,c
  2278  001C86  6A17               	clrf	(fputc@c+1)^0,c
  2279  001C88  C0E0  F018         	movff	vfpfcnvrt@fp,fputc@fp
  2280  001C8C  C0E1  F019         	movff	vfpfcnvrt@fp+1,fputc@fp+1
  2281  001C90  ECFB  F018         	call	_fputc	;wreg free
  2282  001C94                     
  2283                           ;C:\Program Files (x86)\Microchip\xc8\v2.10\pic\sources\c99\common\doprnt.c: 1363:     +
      +                          +*fmt;
  2284  001C94  C0E2  FFD9         	movff	vfpfcnvrt@fmt,fsr2l
  2285  001C98  C0E3  FFDA         	movff	vfpfcnvrt@fmt+1,fsr2h
  2286  001C9C  2ADE               	incf	postinc2,f,c
  2287  001C9E  0E00               	movlw	0
  2288  001CA0  22DD               	addwfc	postdec2,f,c
  2289  001CA2  EF23  F00E         	goto	l7374
  2290  001CA6                     l1251:
  2291  001CA6  0012               	return		;funcret
  2292  001CA8                     __end_of_vfpfcnvrt:
  2293                           	opt callstack 0
  2294                           
  2295 ;; *************** function _dtoa *****************
  2296 ;; Defined at:
  2297 ;;		line 274 in file "C:\Program Files (x86)\Microchip\xc8\v2.10\pic\sources\c99\common\doprnt.c"
  2298 ;; Parameters:    Size  Location     Type
  2299 ;;  fp              2    0[BANK0 ] PTR struct _IO_FILE
  2300 ;;		 -> NULL(0), 
  2301 ;;  d               8    2[BANK0 ] long long 
  2302 ;; Auto vars:     Size  Location     Type
  2303 ;;  n               8   18[BANK0 ] long long 
  2304 ;;  i               2   26[BANK0 ] int 
  2305 ;;  s               2   16[BANK0 ] int 
  2306 ;;  w               2   14[BANK0 ] int 
  2307 ;;  p               2   12[BANK0 ] int 
  2308 ;; Return value:  Size  Location     Type
  2309 ;;                  2    0[BANK0 ] int 
  2310 ;; Registers used:
  2311 ;;		wreg, fsr1l, fsr1h, fsr2l, fsr2h, status,2, status,0, cstack
  2312 ;; Tracked objects:
  2313 ;;		On entry : 0/0
  2314 ;;		On exit  : 0/0
  2315 ;;		Unchanged: 0/0
  2316 ;; Data sizes:     COMRAM   BANK0   BANK1   BANK2   BANK3   BANK4   BANK5   BANK6   BANK7   BANK8   BANK9  BANK10  BANK1
      +1  BANK12  BANK13  BANK14  BANK15
  2317 ;;      Params:         0      10       0       0       0       0       0       0       0       0       0       0       
      +0       0       0       0       0
  2318 ;;      Locals:         0      18       0       0       0       0       0       0       0       0       0       0       
      +0       0       0       0       0
  2319 ;;      Temps:          8       0       0       0       0       0       0       0       0       0       0       0       
      +0       0       0       0       0
  2320 ;;      Totals:         8      28       0       0       0       0       0       0       0       0       0       0       
      +0       0       0       0       0
  2321 ;;Total ram usage:       36 bytes
  2322 ;; Hardware stack levels used:    1
  2323 ;; Hardware stack levels required when called:   14
  2324 ;; This function calls:
  2325 ;;		___aodiv
  2326 ;;		___aomod
  2327 ;;		_abs
  2328 ;;		_pad
  2329 ;; This function is called by:
  2330 ;;		_vfpfcnvrt
  2331 ;; This function uses a non-reentrant model
  2332 ;;
  2333                           
  2334                           	psect	text7
  2335  001804                     __ptext7:
  2336                           	opt callstack 0
  2337  001804                     _dtoa:
  2338                           	opt callstack 13
  2339  001804                     
  2340                           ;C:\Program Files (x86)\Microchip\xc8\v2.10\pic\sources\c99\common\doprnt.c: 274: static
      +                           int dtoa(FILE *fp, long long d);C:\Program Files (x86)\Microchip\xc8\v2.10\pic\sources\
      +                          c99\common\doprnt.c: 275: {;C:\Program Files (x86)\Microchip\xc8\v2.10\pic\sources\c99\c
      +                          ommon\doprnt.c: 276:     int i, p, s, w;;C:\Program Files (x86)\Microchip\xc8\v2.10\pic\
      +                          sources\c99\common\doprnt.c: 277:     long long n;;C:\Program Files (x86)\Microchip\xc8\
      +                          v2.10\pic\sources\c99\common\doprnt.c: 280:     n = d;
  2341  001804  C0C6  F0D6         	movff	dtoa@d,dtoa@n
  2342  001808  C0C7  F0D7         	movff	dtoa@d+1,dtoa@n+1
  2343  00180C  C0C8  F0D8         	movff	dtoa@d+2,dtoa@n+2
  2344  001810  C0C9  F0D9         	movff	dtoa@d+3,dtoa@n+3
  2345  001814  C0CA  F0DA         	movff	dtoa@d+4,dtoa@n+4
  2346  001818  C0CB  F0DB         	movff	dtoa@d+5,dtoa@n+5
  2347  00181C  C0CC  F0DC         	movff	dtoa@d+6,dtoa@n+6
  2348  001820  C0CD  F0DD         	movff	dtoa@d+7,dtoa@n+7
  2349  001824                     
  2350                           ;C:\Program Files (x86)\Microchip\xc8\v2.10\pic\sources\c99\common\doprnt.c: 281:     s 
      +                          = n < 0 ? 1 : 0;
  2351  001824  0100               	movlb	0	; () banked
  2352  001826  BFDD               	btfsc	(dtoa@n+7)& (0+255),7,b
  2353  001828  EF18  F00C         	goto	u5971
  2354  00182C  EF1B  F00C         	goto	u5970
  2355  001830                     u5971:
  2356  001830  0E01               	movlw	1
  2357  001832  EF1C  F00C         	goto	u5980
  2358  001836                     u5970:
  2359  001836  0E00               	movlw	0
  2360  001838                     u5980:
  2361  001838  6FD4               	movwf	dtoa@s& (0+255),b
  2362  00183A  6BD5               	clrf	(dtoa@s+1)& (0+255),b
  2363                           
  2364                           ;C:\Program Files (x86)\Microchip\xc8\v2.10\pic\sources\c99\common\doprnt.c: 282:     if
      +                           (s) {
  2365  00183C  51D4               	movf	dtoa@s& (0+255),w,b
  2366  00183E  11D5               	iorwf	(dtoa@s+1)& (0+255),w,b
  2367  001840  B4D8               	btfsc	status,2,c
  2368  001842  EF25  F00C         	goto	u5991
  2369  001846  EF27  F00C         	goto	u5990
  2370  00184A                     u5991:
  2371  00184A  EF37  F00C         	goto	l7000
  2372  00184E                     u5990:
  2373  00184E                     
  2374                           ; BSR set to: 0
  2375                           ;C:\Program Files (x86)\Microchip\xc8\v2.10\pic\sources\c99\common\doprnt.c: 283:       
      +                            n = -n;
  2376  00184E  1FDD               	comf	(dtoa@n+7)& (0+255),f,b
  2377  001850  1FDC               	comf	(dtoa@n+6)& (0+255),f,b
  2378  001852  1FDB               	comf	(dtoa@n+5)& (0+255),f,b
  2379  001854  1FDA               	comf	(dtoa@n+4)& (0+255),f,b
  2380  001856  1FD9               	comf	(dtoa@n+3)& (0+255),f,b
  2381  001858  1FD8               	comf	(dtoa@n+2)& (0+255),f,b
  2382  00185A  1FD7               	comf	(dtoa@n+1)& (0+255),f,b
  2383  00185C  6DD6               	negf	dtoa@n& (0+255),b
  2384  00185E  0E00               	movlw	0
  2385  001860  23D7               	addwfc	(dtoa@n+1)& (0+255),f,b
  2386  001862  23D8               	addwfc	(dtoa@n+2)& (0+255),f,b
  2387  001864  23D9               	addwfc	(dtoa@n+3)& (0+255),f,b
  2388  001866  23DA               	addwfc	(dtoa@n+4)& (0+255),f,b
  2389  001868  23DB               	addwfc	(dtoa@n+5)& (0+255),f,b
  2390  00186A  23DC               	addwfc	(dtoa@n+6)& (0+255),f,b
  2391  00186C  23DD               	addwfc	(dtoa@n+7)& (0+255),f,b
  2392  00186E                     l7000:
  2393                           
  2394                           ; BSR set to: 0
  2395                           ;C:\Program Files (x86)\Microchip\xc8\v2.10\pic\sources\c99\common\doprnt.c: 287:     if
      +                           (!(prec < 0)) {
  2396  00186E  BFA7               	btfsc	(_prec+1)& (0+255),7,b
  2397  001870  EF3C  F00C         	goto	u6001
  2398  001874  EF3E  F00C         	goto	u6000
  2399  001878                     u6001:
  2400  001878  EF3F  F00C         	goto	l7004
  2401  00187C                     u6000:
  2402  00187C                     
  2403                           ; BSR set to: 0
  2404                           ;C:\Program Files (x86)\Microchip\xc8\v2.10\pic\sources\c99\common\doprnt.c: 288:       
      +                            flags &= ~(1 << 1);
  2405  00187C  923C               	bcf	_flags^0,1,c
  2406  00187E                     l7004:
  2407                           
  2408                           ; BSR set to: 0
  2409                           ;C:\Program Files (x86)\Microchip\xc8\v2.10\pic\sources\c99\common\doprnt.c: 290:     p 
      +                          = (0 < prec) ? prec : 1;
  2410  00187E  BFA7               	btfsc	(_prec+1)& (0+255),7,b
  2411  001880  EF4C  F00C         	goto	u6010
  2412  001884  51A7               	movf	(_prec+1)& (0+255),w,b
  2413  001886  E106               	bnz	u6011
  2414  001888  05A6               	decf	_prec& (0+255),w,b
  2415  00188A  B0D8               	btfsc	status,0,c
  2416  00188C  EF4A  F00C         	goto	u6011
  2417  001890  EF4C  F00C         	goto	u6010
  2418  001894                     u6011:
  2419  001894  EF52  F00C         	goto	l1224
  2420  001898                     u6010:
  2421  001898                     
  2422                           ; BSR set to: 0
  2423  001898  0E00               	movlw	0
  2424  00189A  6FD1               	movwf	(dtoa@p+1)& (0+255),b
  2425  00189C  0E01               	movlw	1
  2426  00189E  6FD0               	movwf	dtoa@p& (0+255),b
  2427  0018A0  EF56  F00C         	goto	l1226
  2428  0018A4                     l1224:
  2429                           
  2430                           ; BSR set to: 0
  2431  0018A4  C0A6  F0D0         	movff	_prec,dtoa@p
  2432  0018A8  C0A7  F0D1         	movff	_prec+1,dtoa@p+1
  2433  0018AC                     l1226:
  2434                           
  2435                           ; BSR set to: 0
  2436                           ;C:\Program Files (x86)\Microchip\xc8\v2.10\pic\sources\c99\common\doprnt.c: 291:     w 
      +                          = width;
  2437  0018AC  C0A4  F0D2         	movff	_width,dtoa@w
  2438  0018B0  C0A5  F0D3         	movff	_width+1,dtoa@w+1
  2439  0018B4                     
  2440                           ; BSR set to: 0
  2441                           ;C:\Program Files (x86)\Microchip\xc8\v2.10\pic\sources\c99\common\doprnt.c: 292:     if
      +                           (s || (flags & (1 << 2))) {
  2442  0018B4  51D4               	movf	dtoa@s& (0+255),w,b
  2443  0018B6  11D5               	iorwf	(dtoa@s+1)& (0+255),w,b
  2444  0018B8  A4D8               	btfss	status,2,c
  2445  0018BA  EF61  F00C         	goto	u6021
  2446  0018BE  EF63  F00C         	goto	u6020
  2447  0018C2                     u6021:
  2448  0018C2  EF6A  F00C         	goto	l7012
  2449  0018C6                     u6020:
  2450  0018C6                     
  2451                           ; BSR set to: 0
  2452  0018C6  A43C               	btfss	_flags^0,2,c
  2453  0018C8  EF68  F00C         	goto	u6031
  2454  0018CC  EF6A  F00C         	goto	u6030
  2455  0018D0                     u6031:
  2456  0018D0  EF6D  F00C         	goto	l7014
  2457  0018D4                     u6030:
  2458  0018D4                     l7012:
  2459                           
  2460                           ; BSR set to: 0
  2461                           ;C:\Program Files (x86)\Microchip\xc8\v2.10\pic\sources\c99\common\doprnt.c: 293:       
      +                            --w;
  2462  0018D4  07D2               	decf	dtoa@w& (0+255),f,b
  2463  0018D6  A0D8               	btfss	status,0,c
  2464  0018D8  07D3               	decf	(dtoa@w+1)& (0+255),f,b
  2465  0018DA                     l7014:
  2466                           
  2467                           ; BSR set to: 0
  2468                           ;C:\Program Files (x86)\Microchip\xc8\v2.10\pic\sources\c99\common\doprnt.c: 297:     i 
      +                          = sizeof(dbuf) - 1;
  2469  0018DA  0E00               	movlw	0
  2470  0018DC  6FDF               	movwf	(dtoa@i+1)& (0+255),b
  2471  0018DE  0E1F               	movlw	31
  2472  0018E0  6FDE               	movwf	dtoa@i& (0+255),b
  2473  0018E2                     
  2474                           ; BSR set to: 0
  2475                           ;C:\Program Files (x86)\Microchip\xc8\v2.10\pic\sources\c99\common\doprnt.c: 298:     db
      +                          uf[i] = '\0';
  2476  0018E2  0E00               	movlw	0
  2477  0018E4  0101               	movlb	1	; () banked
  2478  0018E6  6F67               	movwf	(_dbuf+31)& (0+255),b
  2479                           
  2480                           ;C:\Program Files (x86)\Microchip\xc8\v2.10\pic\sources\c99\common\doprnt.c: 299:     wh
      +                          ile (!(i < 1) && (n || (0 < p) || ((0 < w) && (flags & (1 << 1))))) {
  2481  0018E8  EFF3  F00C         	goto	l7028
  2482  0018EC                     l7018:
  2483                           
  2484                           ; BSR set to: 0
  2485                           ;C:\Program Files (x86)\Microchip\xc8\v2.10\pic\sources\c99\common\doprnt.c: 300:       
      +                            --i;
  2486  0018EC  07DE               	decf	dtoa@i& (0+255),f,b
  2487  0018EE  A0D8               	btfss	status,0,c
  2488  0018F0  07DF               	decf	(dtoa@i+1)& (0+255),f,b
  2489  0018F2                     
  2490                           ; BSR set to: 0
  2491                           ;C:\Program Files (x86)\Microchip\xc8\v2.10\pic\sources\c99\common\doprnt.c: 301:       
      +                            dbuf[i] = '0' + abs(n % 10);
  2492  0018F2  0E48               	movlw	low _dbuf
  2493  0018F4  25DE               	addwf	dtoa@i& (0+255),w,b
  2494  0018F6  6ED9               	movwf	fsr2l,c
  2495  0018F8  0E01               	movlw	high _dbuf
  2496  0018FA  21DF               	addwfc	(dtoa@i+1)& (0+255),w,b
  2497  0018FC  6EDA               	movwf	fsr2h,c
  2498  0018FE  C0D6  F014         	movff	dtoa@n,___aomod@dividend
  2499  001902  C0D7  F015         	movff	dtoa@n+1,___aomod@dividend+1
  2500  001906  C0D8  F016         	movff	dtoa@n+2,___aomod@dividend+2
  2501  00190A  C0D9  F017         	movff	dtoa@n+3,___aomod@dividend+3
  2502  00190E  C0DA  F018         	movff	dtoa@n+4,___aomod@dividend+4
  2503  001912  C0DB  F019         	movff	dtoa@n+5,___aomod@dividend+5
  2504  001916  C0DC  F01A         	movff	dtoa@n+6,___aomod@dividend+6
  2505  00191A  C0DD  F01B         	movff	dtoa@n+7,___aomod@dividend+7
  2506  00191E  0E0A               	movlw	10
  2507  001920  6E1C               	movwf	___aomod@divisor^0,c
  2508  001922  0E00               	movlw	0
  2509  001924  6E1D               	movwf	(___aomod@divisor+1)^0,c
  2510  001926  0E00               	movlw	0
  2511  001928  6E1E               	movwf	(___aomod@divisor+2)^0,c
  2512  00192A  0E00               	movlw	0
  2513  00192C  6E1F               	movwf	(___aomod@divisor+3)^0,c
  2514  00192E  0E00               	movlw	0
  2515  001930  6E20               	movwf	(___aomod@divisor+4)^0,c
  2516  001932  0E00               	movlw	0
  2517  001934  6E21               	movwf	(___aomod@divisor+5)^0,c
  2518  001936  0E00               	movlw	0
  2519  001938  6E22               	movwf	(___aomod@divisor+6)^0,c
  2520  00193A  0E00               	movlw	0
  2521  00193C  6E23               	movwf	(___aomod@divisor+7)^0,c
  2522  00193E  ECAC  F010         	call	___aomod	;wreg free
  2523  001942  C014  F031         	movff	?___aomod,??_dtoa
  2524  001946  C015  F032         	movff	?___aomod+1,??_dtoa+1
  2525  00194A  C016  F033         	movff	?___aomod+2,??_dtoa+2
  2526  00194E  C017  F034         	movff	?___aomod+3,??_dtoa+3
  2527  001952  C018  F035         	movff	?___aomod+4,??_dtoa+4
  2528  001956  C019  F036         	movff	?___aomod+5,??_dtoa+5
  2529  00195A  C01A  F037         	movff	?___aomod+6,??_dtoa+6
  2530  00195E  C01B  F038         	movff	?___aomod+7,??_dtoa+7
  2531  001962  C031  F026         	movff	??_dtoa,abs@a
  2532  001966  C033  F027         	movff	??_dtoa+2,abs@a+1
  2533  00196A  EC17  F01D         	call	_abs	;wreg free
  2534  00196E  5026               	movf	?_abs^0,w,c
  2535  001970  0F30               	addlw	48
  2536  001972  6EDF               	movwf	indf2,c
  2537  001974                     
  2538                           ;C:\Program Files (x86)\Microchip\xc8\v2.10\pic\sources\c99\common\doprnt.c: 302:       
      +                            --p;
  2539  001974  0100               	movlb	0	; () banked
  2540  001976  07D0               	decf	dtoa@p& (0+255),f,b
  2541  001978  A0D8               	btfss	status,0,c
  2542  00197A  07D1               	decf	(dtoa@p+1)& (0+255),f,b
  2543  00197C                     
  2544                           ; BSR set to: 0
  2545                           ;C:\Program Files (x86)\Microchip\xc8\v2.10\pic\sources\c99\common\doprnt.c: 303:       
      +                            --w;
  2546  00197C  07D2               	decf	dtoa@w& (0+255),f,b
  2547  00197E  A0D8               	btfss	status,0,c
  2548  001980  07D3               	decf	(dtoa@w+1)& (0+255),f,b
  2549  001982                     
  2550                           ; BSR set to: 0
  2551                           ;C:\Program Files (x86)\Microchip\xc8\v2.10\pic\sources\c99\common\doprnt.c: 304:       
      +                            n = n / 10;
  2552  001982  C0D6  F014         	movff	dtoa@n,___aodiv@dividend
  2553  001986  C0D7  F015         	movff	dtoa@n+1,___aodiv@dividend+1
  2554  00198A  C0D8  F016         	movff	dtoa@n+2,___aodiv@dividend+2
  2555  00198E  C0D9  F017         	movff	dtoa@n+3,___aodiv@dividend+3
  2556  001992  C0DA  F018         	movff	dtoa@n+4,___aodiv@dividend+4
  2557  001996  C0DB  F019         	movff	dtoa@n+5,___aodiv@dividend+5
  2558  00199A  C0DC  F01A         	movff	dtoa@n+6,___aodiv@dividend+6
  2559  00199E  C0DD  F01B         	movff	dtoa@n+7,___aodiv@dividend+7
  2560  0019A2  0E0A               	movlw	10
  2561  0019A4  6E1C               	movwf	___aodiv@divisor^0,c
  2562  0019A6  0E00               	movlw	0
  2563  0019A8  6E1D               	movwf	(___aodiv@divisor+1)^0,c
  2564  0019AA  0E00               	movlw	0
  2565  0019AC  6E1E               	movwf	(___aodiv@divisor+2)^0,c
  2566  0019AE  0E00               	movlw	0
  2567  0019B0  6E1F               	movwf	(___aodiv@divisor+3)^0,c
  2568  0019B2  0E00               	movlw	0
  2569  0019B4  6E20               	movwf	(___aodiv@divisor+4)^0,c
  2570  0019B6  0E00               	movlw	0
  2571  0019B8  6E21               	movwf	(___aodiv@divisor+5)^0,c
  2572  0019BA  0E00               	movlw	0
  2573  0019BC  6E22               	movwf	(___aodiv@divisor+6)^0,c
  2574  0019BE  0E00               	movlw	0
  2575  0019C0  6E23               	movwf	(___aodiv@divisor+7)^0,c
  2576  0019C2  EC2E  F00F         	call	___aodiv	;wreg free
  2577  0019C6  C014  F0D6         	movff	?___aodiv,dtoa@n
  2578  0019CA  C015  F0D7         	movff	?___aodiv+1,dtoa@n+1
  2579  0019CE  C016  F0D8         	movff	?___aodiv+2,dtoa@n+2
  2580  0019D2  C017  F0D9         	movff	?___aodiv+3,dtoa@n+3
  2581  0019D6  C018  F0DA         	movff	?___aodiv+4,dtoa@n+4
  2582  0019DA  C019  F0DB         	movff	?___aodiv+5,dtoa@n+5
  2583  0019DE  C01A  F0DC         	movff	?___aodiv+6,dtoa@n+6
  2584  0019E2  C01B  F0DD         	movff	?___aodiv+7,dtoa@n+7
  2585  0019E6                     l7028:
  2586                           
  2587                           ;C:\Program Files (x86)\Microchip\xc8\v2.10\pic\sources\c99\common\doprnt.c: 299:     wh
      +                          ile (!(i < 1) && (n || (0 < p) || ((0 < w) && (flags & (1 << 1))))) {
  2588  0019E6  0100               	movlb	0	; () banked
  2589  0019E8  BFDF               	btfsc	(dtoa@i+1)& (0+255),7,b
  2590  0019EA  EFFF  F00C         	goto	u6041
  2591  0019EE  51DF               	movf	(dtoa@i+1)& (0+255),w,b
  2592  0019F0  E108               	bnz	u6040
  2593  0019F2  05DE               	decf	dtoa@i& (0+255),w,b
  2594  0019F4  A0D8               	btfss	status,0,c
  2595  0019F6  EFFF  F00C         	goto	u6041
  2596  0019FA  EF01  F00D         	goto	u6040
  2597  0019FE                     u6041:
  2598  0019FE  EF31  F00D         	goto	l7038
  2599  001A02                     u6040:
  2600  001A02                     
  2601                           ; BSR set to: 0
  2602  001A02  51D6               	movf	dtoa@n& (0+255),w,b
  2603  001A04  11D7               	iorwf	(dtoa@n+1)& (0+255),w,b
  2604  001A06  11D8               	iorwf	(dtoa@n+2)& (0+255),w,b
  2605  001A08  11D9               	iorwf	(dtoa@n+3)& (0+255),w,b
  2606  001A0A  11DA               	iorwf	(dtoa@n+4)& (0+255),w,b
  2607  001A0C  11DB               	iorwf	(dtoa@n+5)& (0+255),w,b
  2608  001A0E  11DC               	iorwf	(dtoa@n+6)& (0+255),w,b
  2609  001A10  11DD               	iorwf	(dtoa@n+7)& (0+255),w,b
  2610  001A12  A4D8               	btfss	status,2,c
  2611  001A14  EF0E  F00D         	goto	u6051
  2612  001A18  EF10  F00D         	goto	u6050
  2613  001A1C                     u6051:
  2614  001A1C  EF76  F00C         	goto	l7018
  2615  001A20                     u6050:
  2616  001A20                     
  2617                           ; BSR set to: 0
  2618  001A20  BFD1               	btfsc	(dtoa@p+1)& (0+255),7,b
  2619  001A22  EF1D  F00D         	goto	u6060
  2620  001A26  51D1               	movf	(dtoa@p+1)& (0+255),w,b
  2621  001A28  E106               	bnz	u6061
  2622  001A2A  05D0               	decf	dtoa@p& (0+255),w,b
  2623  001A2C  B0D8               	btfsc	status,0,c
  2624  001A2E  EF1B  F00D         	goto	u6061
  2625  001A32  EF1D  F00D         	goto	u6060
  2626  001A36                     u6061:
  2627  001A36  EF76  F00C         	goto	l7018
  2628  001A3A                     u6060:
  2629  001A3A                     
  2630                           ; BSR set to: 0
  2631  001A3A  BFD3               	btfsc	(dtoa@w+1)& (0+255),7,b
  2632  001A3C  EF28  F00D         	goto	u6071
  2633  001A40  51D3               	movf	(dtoa@w+1)& (0+255),w,b
  2634  001A42  E108               	bnz	u6070
  2635  001A44  05D2               	decf	dtoa@w& (0+255),w,b
  2636  001A46  A0D8               	btfss	status,0,c
  2637  001A48  EF28  F00D         	goto	u6071
  2638  001A4C  EF2A  F00D         	goto	u6070
  2639  001A50                     u6071:
  2640  001A50  EF31  F00D         	goto	l7038
  2641  001A54                     u6070:
  2642  001A54                     
  2643                           ; BSR set to: 0
  2644  001A54  B23C               	btfsc	_flags^0,1,c
  2645  001A56  EF2F  F00D         	goto	u6081
  2646  001A5A  EF31  F00D         	goto	u6080
  2647  001A5E                     u6081:
  2648  001A5E  EF76  F00C         	goto	l7018
  2649  001A62                     u6080:
  2650  001A62                     l7038:
  2651                           
  2652                           ; BSR set to: 0
  2653                           ;C:\Program Files (x86)\Microchip\xc8\v2.10\pic\sources\c99\common\doprnt.c: 308:     if
      +                           (s || (flags & (1 << 2))) {
  2654  001A62  51D4               	movf	dtoa@s& (0+255),w,b
  2655  001A64  11D5               	iorwf	(dtoa@s+1)& (0+255),w,b
  2656  001A66  A4D8               	btfss	status,2,c
  2657  001A68  EF38  F00D         	goto	u6091
  2658  001A6C  EF3A  F00D         	goto	u6090
  2659  001A70                     u6091:
  2660  001A70  EF41  F00D         	goto	l7042
  2661  001A74                     u6090:
  2662  001A74                     
  2663                           ; BSR set to: 0
  2664  001A74  A43C               	btfss	_flags^0,2,c
  2665  001A76  EF3F  F00D         	goto	u6101
  2666  001A7A  EF41  F00D         	goto	u6100
  2667  001A7E                     u6101:
  2668  001A7E  EF5F  F00D         	goto	l7052
  2669  001A82                     u6100:
  2670  001A82                     l7042:
  2671                           
  2672                           ; BSR set to: 0
  2673                           ;C:\Program Files (x86)\Microchip\xc8\v2.10\pic\sources\c99\common\doprnt.c: 309:       
      +                            --i;
  2674  001A82  07DE               	decf	dtoa@i& (0+255),f,b
  2675  001A84  A0D8               	btfss	status,0,c
  2676  001A86  07DF               	decf	(dtoa@i+1)& (0+255),f,b
  2677  001A88                     
  2678                           ; BSR set to: 0
  2679                           ;C:\Program Files (x86)\Microchip\xc8\v2.10\pic\sources\c99\common\doprnt.c: 310:       
      +                            dbuf[i] = s ? '-' : '+';
  2680  001A88  51D4               	movf	dtoa@s& (0+255),w,b
  2681  001A8A  11D5               	iorwf	(dtoa@s+1)& (0+255),w,b
  2682  001A8C  A4D8               	btfss	status,2,c
  2683  001A8E  EF4B  F00D         	goto	u6111
  2684  001A92  EF4D  F00D         	goto	u6110
  2685  001A96                     u6111:
  2686  001A96  EF53  F00D         	goto	l7048
  2687  001A9A                     u6110:
  2688  001A9A                     
  2689                           ; BSR set to: 0
  2690  001A9A  0E00               	movlw	0
  2691  001A9C  6FCF               	movwf	(_dtoa$3012+1)& (0+255),b
  2692  001A9E  0E2B               	movlw	43
  2693  001AA0  6FCE               	movwf	_dtoa$3012& (0+255),b
  2694  001AA2  EF57  F00D         	goto	l7050
  2695  001AA6                     l7048:
  2696                           
  2697                           ; BSR set to: 0
  2698  001AA6  0E00               	movlw	0
  2699  001AA8  6FCF               	movwf	(_dtoa$3012+1)& (0+255),b
  2700  001AAA  0E2D               	movlw	45
  2701  001AAC  6FCE               	movwf	_dtoa$3012& (0+255),b
  2702  001AAE                     l7050:
  2703                           
  2704                           ; BSR set to: 0
  2705  001AAE  0E48               	movlw	low _dbuf
  2706  001AB0  25DE               	addwf	dtoa@i& (0+255),w,b
  2707  001AB2  6ED9               	movwf	fsr2l,c
  2708  001AB4  0E01               	movlw	high _dbuf
  2709  001AB6  21DF               	addwfc	(dtoa@i+1)& (0+255),w,b
  2710  001AB8  6EDA               	movwf	fsr2h,c
  2711  001ABA  C0CE  FFDF         	movff	_dtoa$3012,indf2
  2712  001ABE                     l7052:
  2713                           
  2714                           ; BSR set to: 0
  2715                           ;C:\Program Files (x86)\Microchip\xc8\v2.10\pic\sources\c99\common\doprnt.c: 314:     re
      +                          turn pad(fp, &dbuf[i], w);
  2716  001ABE  C0C4  F026         	movff	dtoa@fp,pad@fp
  2717  001AC2  C0C5  F027         	movff	dtoa@fp+1,pad@fp+1
  2718  001AC6  0E48               	movlw	low _dbuf
  2719  001AC8  25DE               	addwf	dtoa@i& (0+255),w,b
  2720  001ACA  6E28               	movwf	pad@buf^0,c
  2721  001ACC  0E01               	movlw	high _dbuf
  2722  001ACE  21DF               	addwfc	(dtoa@i+1)& (0+255),w,b
  2723  001AD0  6E29               	movwf	(pad@buf+1)^0,c
  2724  001AD2  C0D2  F02A         	movff	dtoa@w,pad@p
  2725  001AD6  C0D3  F02B         	movff	dtoa@w+1,pad@p+1
  2726  001ADA  EC9A  F015         	call	_pad	;wreg free
  2727  001ADE  C026  F0C4         	movff	?_pad,?_dtoa
  2728  001AE2  C027  F0C5         	movff	?_pad+1,?_dtoa+1
  2729  001AE6  0012               	return		;funcret
  2730  001AE8                     __end_of_dtoa:
  2731                           	opt callstack 0
  2732                           
  2733 ;; *************** function _pad *****************
  2734 ;; Defined at:
  2735 ;;		line 72 in file "C:\Program Files (x86)\Microchip\xc8\v2.10\pic\sources\c99\common\doprnt.c"
  2736 ;; Parameters:    Size  Location     Type
  2737 ;;  fp              2   37[COMRAM] PTR struct _IO_FILE
  2738 ;;		 -> NULL(0), 
  2739 ;;  buf             2   39[COMRAM] PTR unsigned char 
  2740 ;;		 -> dbuf(32), 
  2741 ;;  p               2   41[COMRAM] int 
  2742 ;; Auto vars:     Size  Location     Type
  2743 ;;  w               2   46[COMRAM] int 
  2744 ;;  i               2   44[COMRAM] int 
  2745 ;; Return value:  Size  Location     Type
  2746 ;;                  2   37[COMRAM] int 
  2747 ;; Registers used:
  2748 ;;		wreg, fsr1l, fsr1h, fsr2l, fsr2h, status,2, status,0, cstack
  2749 ;; Tracked objects:
  2750 ;;		On entry : 0/0
  2751 ;;		On exit  : 0/0
  2752 ;;		Unchanged: 0/0
  2753 ;; Data sizes:     COMRAM   BANK0   BANK1   BANK2   BANK3   BANK4   BANK5   BANK6   BANK7   BANK8   BANK9  BANK10  BANK1
      +1  BANK12  BANK13  BANK14  BANK15
  2754 ;;      Params:         6       0       0       0       0       0       0       0       0       0       0       0       
      +0       0       0       0       0
  2755 ;;      Locals:         4       0       0       0       0       0       0       0       0       0       0       0       
      +0       0       0       0       0
  2756 ;;      Temps:          1       0       0       0       0       0       0       0       0       0       0       0       
      +0       0       0       0       0
  2757 ;;      Totals:        11       0       0       0       0       0       0       0       0       0       0       0       
      +0       0       0       0       0
  2758 ;;Total ram usage:       11 bytes
  2759 ;; Hardware stack levels used:    1
  2760 ;; Hardware stack levels required when called:   13
  2761 ;; This function calls:
  2762 ;;		_fputc
  2763 ;;		_fputs
  2764 ;;		_strlen
  2765 ;; This function is called by:
  2766 ;;		_dtoa
  2767 ;; This function uses a non-reentrant model
  2768 ;;
  2769                           
  2770                           	psect	text8
  2771  002B34                     __ptext8:
  2772                           	opt callstack 0
  2773  002B34                     _pad:
  2774                           	opt callstack 13
  2775  002B34                     
  2776                           ;C:\Program Files (x86)\Microchip\xc8\v2.10\pic\sources\c99\common\doprnt.c: 72: static 
      +                          int pad(FILE *fp, char *buf, int p);C:\Program Files (x86)\Microchip\xc8\v2.10\pic\sourc
      +                          es\c99\common\doprnt.c: 73: {;C:\Program Files (x86)\Microchip\xc8\v2.10\pic\sources\c99
      +                          \common\doprnt.c: 74:     int i, w;;C:\Program Files (x86)\Microchip\xc8\v2.10\pic\sourc
      +                          es\c99\common\doprnt.c: 77:     if (flags & (1 << 0)) {
  2777  002B34  A03C               	btfss	_flags^0,0,c
  2778  002B36  EF9F  F015         	goto	u5741
  2779  002B3A  EFA1  F015         	goto	u5740
  2780  002B3E                     u5741:
  2781  002B3E  EFAB  F015         	goto	l6832
  2782  002B42                     u5740:
  2783  002B42                     
  2784                           ;C:\Program Files (x86)\Microchip\xc8\v2.10\pic\sources\c99\common\doprnt.c: 78:        
      +                           fputs((const char *)buf, fp);
  2785  002B42  C028  F01F         	movff	pad@buf,fputs@s
  2786  002B46  C029  F020         	movff	pad@buf+1,fputs@s+1
  2787  002B4A  C026  F021         	movff	pad@fp,fputs@fp
  2788  002B4E  C027  F022         	movff	pad@fp+1,fputs@fp+1
  2789  002B52  ECF5  F01C         	call	_fputs	;wreg free
  2790  002B56                     l6832:
  2791                           
  2792                           ;C:\Program Files (x86)\Microchip\xc8\v2.10\pic\sources\c99\common\doprnt.c: 82:     w =
      +                           (p < 0) ? 0 : p;
  2793  002B56  BE2B               	btfsc	(pad@p+1)^0,7,c
  2794  002B58  EFB0  F015         	goto	u5751
  2795  002B5C  EFB2  F015         	goto	u5750
  2796  002B60                     u5751:
  2797  002B60  EFB8  F015         	goto	l6836
  2798  002B64                     u5750:
  2799  002B64  C02A  F02F         	movff	pad@p,pad@w
  2800  002B68  C02B  F030         	movff	pad@p+1,pad@w+1
  2801  002B6C  EFBC  F015         	goto	l1213
  2802  002B70                     l6836:
  2803  002B70  0E00               	movlw	0
  2804  002B72  6E30               	movwf	(pad@w+1)^0,c
  2805  002B74  0E00               	movlw	0
  2806  002B76  6E2F               	movwf	pad@w^0,c
  2807  002B78                     l1213:
  2808                           
  2809                           ;C:\Program Files (x86)\Microchip\xc8\v2.10\pic\sources\c99\common\doprnt.c: 83:     i =
      +                           0;
  2810  002B78  0E00               	movlw	0
  2811  002B7A  6E2E               	movwf	(pad@i+1)^0,c
  2812  002B7C  0E00               	movlw	0
  2813  002B7E  6E2D               	movwf	pad@i^0,c
  2814                           
  2815                           ;C:\Program Files (x86)\Microchip\xc8\v2.10\pic\sources\c99\common\doprnt.c: 84:     whi
      +                          le (i < w) {
  2816  002B80  EFCE  F015         	goto	l6842
  2817  002B84                     l6838:
  2818                           
  2819                           ;C:\Program Files (x86)\Microchip\xc8\v2.10\pic\sources\c99\common\doprnt.c: 85:        
      +                           fputc(' ', fp);
  2820  002B84  0E00               	movlw	0
  2821  002B86  6E17               	movwf	(fputc@c+1)^0,c
  2822  002B88  0E20               	movlw	32
  2823  002B8A  6E16               	movwf	fputc@c^0,c
  2824  002B8C  C026  F018         	movff	pad@fp,fputc@fp
  2825  002B90  C027  F019         	movff	pad@fp+1,fputc@fp+1
  2826  002B94  ECFB  F018         	call	_fputc	;wreg free
  2827  002B98                     
  2828                           ;C:\Program Files (x86)\Microchip\xc8\v2.10\pic\sources\c99\common\doprnt.c: 86:        
      +                           ++i;
  2829  002B98  4A2D               	infsnz	pad@i^0,f,c
  2830  002B9A  2A2E               	incf	(pad@i+1)^0,f,c
  2831  002B9C                     l6842:
  2832                           
  2833                           ;C:\Program Files (x86)\Microchip\xc8\v2.10\pic\sources\c99\common\doprnt.c: 84:     whi
      +                          le (i < w) {
  2834  002B9C  502F               	movf	pad@w^0,w,c
  2835  002B9E  5C2D               	subwf	pad@i^0,w,c
  2836  002BA0  502E               	movf	(pad@i+1)^0,w,c
  2837  002BA2  0A80               	xorlw	128
  2838  002BA4  6E2C               	movwf	??_pad^0,c
  2839  002BA6  5030               	movf	(pad@w+1)^0,w,c
  2840  002BA8  0A80               	xorlw	128
  2841  002BAA  582C               	subwfb	??_pad^0,w,c
  2842  002BAC  A0D8               	btfss	status,0,c
  2843  002BAE  EFDB  F015         	goto	u5761
  2844  002BB2  EFDD  F015         	goto	u5760
  2845  002BB6                     u5761:
  2846  002BB6  EFC2  F015         	goto	l6838
  2847  002BBA                     u5760:
  2848  002BBA                     
  2849                           ;C:\Program Files (x86)\Microchip\xc8\v2.10\pic\sources\c99\common\doprnt.c: 90:     if 
      +                          (!(flags & (1 << 0))) {
  2850  002BBA  B03C               	btfsc	_flags^0,0,c
  2851  002BBC  EFE2  F015         	goto	u5771
  2852  002BC0  EFE4  F015         	goto	u5770
  2853  002BC4                     u5771:
  2854  002BC4  EFEE  F015         	goto	l6846
  2855  002BC8                     u5770:
  2856  002BC8                     
  2857                           ;C:\Program Files (x86)\Microchip\xc8\v2.10\pic\sources\c99\common\doprnt.c: 91:        
      +                           fputs((const char *)buf, fp);
  2858  002BC8  C028  F01F         	movff	pad@buf,fputs@s
  2859  002BCC  C029  F020         	movff	pad@buf+1,fputs@s+1
  2860  002BD0  C026  F021         	movff	pad@fp,fputs@fp
  2861  002BD4  C027  F022         	movff	pad@fp+1,fputs@fp+1
  2862  002BD8  ECF5  F01C         	call	_fputs	;wreg free
  2863  002BDC                     l6846:
  2864                           
  2865                           ;C:\Program Files (x86)\Microchip\xc8\v2.10\pic\sources\c99\common\doprnt.c: 94:     ret
      +                          urn strlen(buf) + w;
  2866  002BDC  C028  F014         	movff	pad@buf,strlen@s
  2867  002BE0  C029  F015         	movff	pad@buf+1,strlen@s+1
  2868  002BE4  EC74  F01D         	call	_strlen	;wreg free
  2869  002BE8  502F               	movf	pad@w^0,w,c
  2870  002BEA  2414               	addwf	?_strlen^0,w,c
  2871  002BEC  6E26               	movwf	?_pad^0,c
  2872  002BEE  5030               	movf	(pad@w+1)^0,w,c
  2873  002BF0  2015               	addwfc	(?_strlen+1)^0,w,c
  2874  002BF2  6E27               	movwf	(?_pad+1)^0,c
  2875  002BF4  0012               	return		;funcret
  2876  002BF6                     __end_of_pad:
  2877                           	opt callstack 0
  2878                           
  2879 ;; *************** function _strlen *****************
  2880 ;; Defined at:
  2881 ;;		line 5 in file "C:\Program Files (x86)\Microchip\xc8\v2.10\pic\sources\c99\common\strlen.c"
  2882 ;; Parameters:    Size  Location     Type
  2883 ;;  s               2   19[COMRAM] PTR const unsigned char 
  2884 ;;		 -> dbuf(32), 
  2885 ;; Auto vars:     Size  Location     Type
  2886 ;;  a               2   21[COMRAM] PTR const unsigned char 
  2887 ;;		 -> dbuf(32), 
  2888 ;; Return value:  Size  Location     Type
  2889 ;;                  2   19[COMRAM] unsigned int 
  2890 ;; Registers used:
  2891 ;;		wreg, fsr2l, fsr2h, status,2, status,0
  2892 ;; Tracked objects:
  2893 ;;		On entry : 0/0
  2894 ;;		On exit  : 0/0
  2895 ;;		Unchanged: 0/0
  2896 ;; Data sizes:     COMRAM   BANK0   BANK1   BANK2   BANK3   BANK4   BANK5   BANK6   BANK7   BANK8   BANK9  BANK10  BANK1
      +1  BANK12  BANK13  BANK14  BANK15
  2897 ;;      Params:         2       0       0       0       0       0       0       0       0       0       0       0       
      +0       0       0       0       0
  2898 ;;      Locals:         2       0       0       0       0       0       0       0       0       0       0       0       
      +0       0       0       0       0
  2899 ;;      Temps:          0       0       0       0       0       0       0       0       0       0       0       0       
      +0       0       0       0       0
  2900 ;;      Totals:         4       0       0       0       0       0       0       0       0       0       0       0       
      +0       0       0       0       0
  2901 ;;Total ram usage:        4 bytes
  2902 ;; Hardware stack levels used:    1
  2903 ;; Hardware stack levels required when called:    8
  2904 ;; This function calls:
  2905 ;;		Nothing
  2906 ;; This function is called by:
  2907 ;;		_pad
  2908 ;; This function uses a non-reentrant model
  2909 ;;
  2910                           
  2911                           	psect	text9
  2912  003AE8                     __ptext9:
  2913                           	opt callstack 0
  2914  003AE8                     _strlen:
  2915                           	opt callstack 17
  2916  003AE8  C014  F016         	movff	strlen@s,strlen@a
  2917  003AEC  C015  F017         	movff	strlen@s+1,strlen@a+1
  2918  003AF0  EF7C  F01D         	goto	l6794
  2919  003AF4                     l6792:
  2920  003AF4  4A14               	infsnz	strlen@s^0,f,c
  2921  003AF6  2A15               	incf	(strlen@s+1)^0,f,c
  2922  003AF8                     l6794:
  2923  003AF8  C014  FFD9         	movff	strlen@s,fsr2l
  2924  003AFC  C015  FFDA         	movff	strlen@s+1,fsr2h
  2925  003B00  50DF               	movf	indf2,w,c
  2926  003B02  A4D8               	btfss	status,2,c
  2927  003B04  EF86  F01D         	goto	u5711
  2928  003B08  EF88  F01D         	goto	u5710
  2929  003B0C                     u5711:
  2930  003B0C  EF7A  F01D         	goto	l6792
  2931  003B10                     u5710:
  2932  003B10  5016               	movf	strlen@a^0,w,c
  2933  003B12  5C14               	subwf	strlen@s^0,w,c
  2934  003B14  6E14               	movwf	?_strlen^0,c
  2935  003B16  5017               	movf	(strlen@a+1)^0,w,c
  2936  003B18  5815               	subwfb	(strlen@s+1)^0,w,c
  2937  003B1A  6E15               	movwf	(?_strlen+1)^0,c
  2938  003B1C  0012               	return		;funcret
  2939  003B1E                     __end_of_strlen:
  2940                           	opt callstack 0
  2941                           
  2942 ;; *************** function _fputs *****************
  2943 ;; Defined at:
  2944 ;;		line 8 in file "C:\Program Files (x86)\Microchip\xc8\v2.10\pic\sources\c99\common\nf_fputs.c"
  2945 ;; Parameters:    Size  Location     Type
  2946 ;;  s               2   30[COMRAM] PTR const unsigned char 
  2947 ;;		 -> dbuf(32), 
  2948 ;;  fp              2   32[COMRAM] PTR struct _IO_FILE
  2949 ;;		 -> NULL(0), 
  2950 ;; Auto vars:     Size  Location     Type
  2951 ;;  i               2   35[COMRAM] int 
  2952 ;;  c               1   34[COMRAM] unsigned char 
  2953 ;; Return value:  Size  Location     Type
  2954 ;;                  2   30[COMRAM] int 
  2955 ;; Registers used:
  2956 ;;		wreg, fsr1l, fsr1h, fsr2l, fsr2h, status,2, status,0, cstack
  2957 ;; Tracked objects:
  2958 ;;		On entry : 0/0
  2959 ;;		On exit  : 0/0
  2960 ;;		Unchanged: 0/0
  2961 ;; Data sizes:     COMRAM   BANK0   BANK1   BANK2   BANK3   BANK4   BANK5   BANK6   BANK7   BANK8   BANK9  BANK10  BANK1
      +1  BANK12  BANK13  BANK14  BANK15
  2962 ;;      Params:         4       0       0       0       0       0       0       0       0       0       0       0       
      +0       0       0       0       0
  2963 ;;      Locals:         3       0       0       0       0       0       0       0       0       0       0       0       
      +0       0       0       0       0
  2964 ;;      Temps:          0       0       0       0       0       0       0       0       0       0       0       0       
      +0       0       0       0       0
  2965 ;;      Totals:         7       0       0       0       0       0       0       0       0       0       0       0       
      +0       0       0       0       0
  2966 ;;Total ram usage:        7 bytes
  2967 ;; Hardware stack levels used:    1
  2968 ;; Hardware stack levels required when called:   12
  2969 ;; This function calls:
  2970 ;;		_fputc
  2971 ;; This function is called by:
  2972 ;;		_pad
  2973 ;; This function uses a non-reentrant model
  2974 ;;
  2975                           
  2976                           	psect	text10
  2977  0039EA                     __ptext10:
  2978                           	opt callstack 0
  2979  0039EA                     _fputs:
  2980                           	opt callstack 13
  2981  0039EA  0E00               	movlw	0
  2982  0039EC  6E25               	movwf	(fputs@i+1)^0,c
  2983  0039EE  0E00               	movlw	0
  2984  0039F0  6E24               	movwf	fputs@i^0,c
  2985  0039F2  EF06  F01D         	goto	l6788
  2986  0039F6                     l6784:
  2987  0039F6  C023  F016         	movff	fputs@c,fputc@c
  2988  0039FA  6A17               	clrf	(fputc@c+1)^0,c
  2989  0039FC  C021  F018         	movff	fputs@fp,fputc@fp
  2990  003A00  C022  F019         	movff	fputs@fp+1,fputc@fp+1
  2991  003A04  ECFB  F018         	call	_fputc	;wreg free
  2992  003A08  4A24               	infsnz	fputs@i^0,f,c
  2993  003A0A  2A25               	incf	(fputs@i+1)^0,f,c
  2994  003A0C                     l6788:
  2995  003A0C  5024               	movf	fputs@i^0,w,c
  2996  003A0E  241F               	addwf	fputs@s^0,w,c
  2997  003A10  6ED9               	movwf	fsr2l,c
  2998  003A12  5025               	movf	(fputs@i+1)^0,w,c
  2999  003A14  2020               	addwfc	(fputs@s+1)^0,w,c
  3000  003A16  6EDA               	movwf	fsr2h,c
  3001  003A18  50DF               	movf	indf2,w,c
  3002  003A1A  6E23               	movwf	fputs@c^0,c
  3003  003A1C  5023               	movf	fputs@c^0,w,c
  3004  003A1E  A4D8               	btfss	status,2,c
  3005  003A20  EF14  F01D         	goto	u5701
  3006  003A24  EF16  F01D         	goto	u5700
  3007  003A28                     u5701:
  3008  003A28  EFFB  F01C         	goto	l6784
  3009  003A2C                     u5700:
  3010  003A2C  0012               	return		;funcret
  3011  003A2E                     __end_of_fputs:
  3012                           	opt callstack 0
  3013                           
  3014 ;; *************** function _fputc *****************
  3015 ;; Defined at:
  3016 ;;		line 8 in file "C:\Program Files (x86)\Microchip\xc8\v2.10\pic\sources\c99\common\nf_fputc.c"
  3017 ;; Parameters:    Size  Location     Type
  3018 ;;  c               2   21[COMRAM] int 
  3019 ;;  fp              2   23[COMRAM] PTR struct _IO_FILE
  3020 ;;		 -> NULL(0), 
  3021 ;; Auto vars:     Size  Location     Type
  3022 ;;		None
  3023 ;; Return value:  Size  Location     Type
  3024 ;;                  2   21[COMRAM] int 
  3025 ;; Registers used:
  3026 ;;		wreg, fsr1l, fsr1h, fsr2l, fsr2h, status,2, status,0, cstack
  3027 ;; Tracked objects:
  3028 ;;		On entry : 0/0
  3029 ;;		On exit  : 0/0
  3030 ;;		Unchanged: 0/0
  3031 ;; Data sizes:     COMRAM   BANK0   BANK1   BANK2   BANK3   BANK4   BANK5   BANK6   BANK7   BANK8   BANK9  BANK10  BANK1
      +1  BANK12  BANK13  BANK14  BANK15
  3032 ;;      Params:         4       0       0       0       0       0       0       0       0       0       0       0       
      +0       0       0       0       0
  3033 ;;      Locals:         0       0       0       0       0       0       0       0       0       0       0       0       
      +0       0       0       0       0
  3034 ;;      Temps:          5       0       0       0       0       0       0       0       0       0       0       0       
      +0       0       0       0       0
  3035 ;;      Totals:         9       0       0       0       0       0       0       0       0       0       0       0       
      +0       0       0       0       0
  3036 ;;Total ram usage:        9 bytes
  3037 ;; Hardware stack levels used:    1
  3038 ;; Hardware stack levels required when called:   11
  3039 ;; This function calls:
  3040 ;;		_putch
  3041 ;; This function is called by:
  3042 ;;		_pad
  3043 ;;		_vfpfcnvrt
  3044 ;;		_fputs
  3045 ;; This function uses a non-reentrant model
  3046 ;;
  3047                           
  3048                           	psect	text11
  3049  0031F6                     __ptext11:
  3050                           	opt callstack 0
  3051  0031F6                     _fputc:
  3052                           	opt callstack 16
  3053  0031F6  5018               	movf	fputc@fp^0,w,c
  3054  0031F8  1019               	iorwf	(fputc@fp+1)^0,w,c
  3055  0031FA  B4D8               	btfsc	status,2,c
  3056  0031FC  EF02  F019         	goto	u5561
  3057  003200  EF04  F019         	goto	u5560
  3058  003204                     u5561:
  3059  003204  EF0D  F019         	goto	l6700
  3060  003208                     u5560:
  3061  003208  5018               	movf	fputc@fp^0,w,c
  3062  00320A  1019               	iorwf	(fputc@fp+1)^0,w,c
  3063  00320C  A4D8               	btfss	status,2,c
  3064  00320E  EF0B  F019         	goto	u5571
  3065  003212  EF0D  F019         	goto	u5570
  3066  003216                     u5571:
  3067  003216  EF12  F019         	goto	l6702
  3068  00321A                     u5570:
  3069  00321A                     l6700:
  3070  00321A  5016               	movf	fputc@c^0,w,c
  3071  00321C  ECB3  F01E         	call	_putch
  3072  003220  EF45  F019         	goto	l1951
  3073  003224                     l6702:
  3074  003224  EE20 F004          	lfsr	2,4
  3075  003228  5018               	movf	fputc@fp^0,w,c
  3076  00322A  26D9               	addwf	fsr2l,f,c
  3077  00322C  5019               	movf	(fputc@fp+1)^0,w,c
  3078  00322E  22DA               	addwfc	fsr2h,f,c
  3079  003230  50DE               	movf	postinc2,w,c
  3080  003232  10DE               	iorwf	postinc2,w,c
  3081  003234  B4D8               	btfsc	status,2,c
  3082  003236  EF1F  F019         	goto	u5581
  3083  00323A  EF21  F019         	goto	u5580
  3084  00323E                     u5581:
  3085  00323E  EF3C  F019         	goto	l6706
  3086  003242                     u5580:
  3087  003242  EE20 F004          	lfsr	2,4
  3088  003246  5018               	movf	fputc@fp^0,w,c
  3089  003248  26D9               	addwf	fsr2l,f,c
  3090  00324A  5019               	movf	(fputc@fp+1)^0,w,c
  3091  00324C  22DA               	addwfc	fsr2h,f,c
  3092  00324E  EE10 F002          	lfsr	1,2
  3093  003252  5018               	movf	fputc@fp^0,w,c
  3094  003254  26E1               	addwf	fsr1l,f,c
  3095  003256  5019               	movf	(fputc@fp+1)^0,w,c
  3096  003258  22E2               	addwfc	fsr1h,f,c
  3097  00325A  50DE               	movf	postinc2,w,c
  3098  00325C  5CE6               	subwf	postinc1,w,c
  3099  00325E  50E6               	movf	postinc1,w,c
  3100  003260  0A80               	xorlw	128
  3101  003262  6E1E               	movwf	(??_fputc+4)^0,c
  3102  003264  50DE               	movf	postinc2,w,c
  3103  003266  0A80               	xorlw	128
  3104  003268  581E               	subwfb	(??_fputc+4)^0,w,c
  3105  00326A  B0D8               	btfsc	status,0,c
  3106  00326C  EF3A  F019         	goto	u5591
  3107  003270  EF3C  F019         	goto	u5590
  3108  003274                     u5591:
  3109  003274  EF45  F019         	goto	l1951
  3110  003278                     u5590:
  3111  003278                     l6706:
  3112  003278  EE20 F002          	lfsr	2,2
  3113  00327C  5018               	movf	fputc@fp^0,w,c
  3114  00327E  26D9               	addwf	fsr2l,f,c
  3115  003280  5019               	movf	(fputc@fp+1)^0,w,c
  3116  003282  22DA               	addwfc	fsr2h,f,c
  3117  003284  2ADE               	incf	postinc2,f,c
  3118  003286  0E00               	movlw	0
  3119  003288  22DD               	addwfc	postdec2,f,c
  3120  00328A                     l1951:
  3121  00328A  0012               	return		;funcret
  3122  00328C                     __end_of_fputc:
  3123                           	opt callstack 0
  3124                           
  3125 ;; *************** function _putch *****************
  3126 ;; Defined at:
  3127 ;;		line 173 in file "mcc_generated_files/eusart1.c"
  3128 ;; Parameters:    Size  Location     Type
  3129 ;;  txData          1    wreg     unsigned char 
  3130 ;; Auto vars:     Size  Location     Type
  3131 ;;  txData          1   20[COMRAM] unsigned char 
  3132 ;; Return value:  Size  Location     Type
  3133 ;;                  1    wreg      void 
  3134 ;; Registers used:
  3135 ;;		wreg, fsr2l, fsr2h, status,2, status,0, cstack
  3136 ;; Tracked objects:
  3137 ;;		On entry : 0/0
  3138 ;;		On exit  : 0/0
  3139 ;;		Unchanged: 0/0
  3140 ;; Data sizes:     COMRAM   BANK0   BANK1   BANK2   BANK3   BANK4   BANK5   BANK6   BANK7   BANK8   BANK9  BANK10  BANK1
      +1  BANK12  BANK13  BANK14  BANK15
  3141 ;;      Params:         0       0       0       0       0       0       0       0       0       0       0       0       
      +0       0       0       0       0
  3142 ;;      Locals:         1       0       0       0       0       0       0       0       0       0       0       0       
      +0       0       0       0       0
  3143 ;;      Temps:          0       0       0       0       0       0       0       0       0       0       0       0       
      +0       0       0       0       0
  3144 ;;      Totals:         1       0       0       0       0       0       0       0       0       0       0       0       
      +0       0       0       0       0
  3145 ;;Total ram usage:        1 bytes
  3146 ;; Hardware stack levels used:    1
  3147 ;; Hardware stack levels required when called:   10
  3148 ;; This function calls:
  3149 ;;		_EUSART1_Write
  3150 ;; This function is called by:
  3151 ;;		_fputc
  3152 ;; This function uses a non-reentrant model
  3153 ;;
  3154                           
  3155                           	psect	text12
  3156  003D66                     __ptext12:
  3157                           	opt callstack 0
  3158  003D66                     _putch:
  3159                           	opt callstack 16
  3160                           
  3161                           ;incstack = 0
  3162                           ;putch@txData stored from wreg
  3163  003D66  6E15               	movwf	putch@txData^0,c
  3164  003D68                     
  3165                           ;mcc_generated_files/eusart1.c: 174:     return EUSART1_Write(txData);;	Return value of 
      +                          _putch is never used
  3166  003D68  5015               	movf	putch@txData^0,w,c
  3167  003D6A  EC79  F01C         	call	_EUSART1_Write
  3168  003D6E  0012               	return		;funcret
  3169  003D70                     __end_of_putch:
  3170                           	opt callstack 0
  3171                           
  3172 ;; *************** function _EUSART1_Write *****************
  3173 ;; Defined at:
  3174 ;;		line 138 in file "mcc_generated_files/eusart1.c"
  3175 ;; Parameters:    Size  Location     Type
  3176 ;;  txData          1    wreg     unsigned char 
  3177 ;; Auto vars:     Size  Location     Type
  3178 ;;  txData          1   19[COMRAM] unsigned char 
  3179 ;; Return value:  Size  Location     Type
  3180 ;;                  1    wreg      void 
  3181 ;; Registers used:
  3182 ;;		wreg, fsr2l, fsr2h, status,2, status,0, cstack
  3183 ;; Tracked objects:
  3184 ;;		On entry : 0/0
  3185 ;;		On exit  : 0/0
  3186 ;;		Unchanged: 0/0
  3187 ;; Data sizes:     COMRAM   BANK0   BANK1   BANK2   BANK3   BANK4   BANK5   BANK6   BANK7   BANK8   BANK9  BANK10  BANK1
      +1  BANK12  BANK13  BANK14  BANK15
  3188 ;;      Params:         0       0       0       0       0       0       0       0       0       0       0       0       
      +0       0       0       0       0
  3189 ;;      Locals:         1       0       0       0       0       0       0       0       0       0       0       0       
      +0       0       0       0       0
  3190 ;;      Temps:          0       0       0       0       0       0       0       0       0       0       0       0       
      +0       0       0       0       0
  3191 ;;      Totals:         1       0       0       0       0       0       0       0       0       0       0       0       
      +0       0       0       0       0
  3192 ;;Total ram usage:        1 bytes
  3193 ;; Hardware stack levels used:    1
  3194 ;; Hardware stack levels required when called:    9
  3195 ;; This function calls:
  3196 ;;		_EUSART1_is_tx_ready
  3197 ;; This function is called by:
  3198 ;;		_putch
  3199 ;; This function uses a non-reentrant model
  3200 ;;
  3201                           
  3202                           	psect	text13
  3203  0038F2                     __ptext13:
  3204                           	opt callstack 0
  3205  0038F2                     _EUSART1_Write:
  3206                           	opt callstack 16
  3207                           
  3208                           ;incstack = 0
  3209                           ;EUSART1_Write@txData stored from wreg
  3210  0038F2  6E14               	movwf	EUSART1_Write@txData^0,c
  3211  0038F4                     l6674:
  3212                           
  3213                           ;mcc_generated_files/eusart1.c: 139:     while (0 == EUSART1_is_tx_ready()) {
  3214  0038F4  EC76  F01E         	call	_EUSART1_is_tx_ready	;wreg free
  3215  0038F8  0900               	iorlw	0
  3216  0038FA  B4D8               	btfsc	status,2,c
  3217  0038FC  EF82  F01C         	goto	u5531
  3218  003900  EF84  F01C         	goto	u5530
  3219  003904                     u5531:
  3220  003904  EF7A  F01C         	goto	l6674
  3221  003908                     u5530:
  3222  003908                     
  3223                           ;mcc_generated_files/eusart1.c: 144:     if (0 == PIE1bits.TX1IE) {
  3224  003908  B89D               	btfsc	157,4,c	;volatile
  3225  00390A  EF89  F01C         	goto	u5541
  3226  00390E  EF8B  F01C         	goto	u5540
  3227  003912                     u5541:
  3228  003912  EF8F  F01C         	goto	l536
  3229  003916                     u5540:
  3230  003916                     
  3231                           ;mcc_generated_files/eusart1.c: 153:         TXREG1 = txData;
  3232  003916  C014  FFAD         	movff	EUSART1_Write@txData,4013	;volatile
  3233                           
  3234                           ;mcc_generated_files/eusart1.c: 154:     } else {
  3235  00391A  EFA4  F01C         	goto	l6688
  3236  00391E                     l536:
  3237                           
  3238                           ;mcc_generated_files/eusart1.c: 156:         PIE1bits.TX1IE = 0;
  3239  00391E  989D               	bcf	157,4,c	;volatile
  3240  003920                     
  3241                           ;mcc_generated_files/eusart1.c: 157:         eusart1TxBuffer[eusart1TxHead++] = txData;
  3242  003920  0E30               	movlw	low _eusart1TxBuffer
  3243  003922  2446               	addwf	_eusart1TxHead^0,w,c	;volatile
  3244  003924  6ED9               	movwf	fsr2l,c
  3245  003926  6ADA               	clrf	fsr2h,c
  3246  003928  0E01               	movlw	high _eusart1TxBuffer
  3247  00392A  22DA               	addwfc	fsr2h,f,c
  3248  00392C  C014  FFDF         	movff	EUSART1_Write@txData,indf2
  3249  003930  2A46               	incf	_eusart1TxHead^0,f,c	;volatile
  3250  003932                     
  3251                           ;mcc_generated_files/eusart1.c: 162:         if (sizeof (eusart1TxBuffer) <= eusart1TxHe
      +                          ad)
  3252  003932  0E17               	movlw	23
  3253  003934  6446               	cpfsgt	_eusart1TxHead^0,c	;volatile
  3254  003936  EF9F  F01C         	goto	u5551
  3255  00393A  EFA1  F01C         	goto	u5550
  3256  00393E                     u5551:
  3257  00393E  EFA3  F01C         	goto	l6686
  3258  003942                     u5550:
  3259  003942                     
  3260                           ;mcc_generated_files/eusart1.c: 163:             eusart1TxHead = 0;
  3261  003942  0E00               	movlw	0
  3262  003944  6E46               	movwf	_eusart1TxHead^0,c	;volatile
  3263  003946                     l6686:
  3264                           
  3265                           ;mcc_generated_files/eusart1.c: 164:         eusart1TxBufferRemaining--;
  3266  003946  0644               	decf	_eusart1TxBufferRemaining^0,f,c	;volatile
  3267  003948                     l6688:
  3268                           
  3269                           ;mcc_generated_files/eusart1.c: 169:     PIE1bits.TX1IE = 1;
  3270  003948  889D               	bsf	157,4,c	;volatile
  3271  00394A  0012               	return		;funcret
  3272  00394C                     __end_of_EUSART1_Write:
  3273                           	opt callstack 0
  3274                           
  3275 ;; *************** function _EUSART1_is_tx_ready *****************
  3276 ;; Defined at:
  3277 ;;		line 98 in file "mcc_generated_files/eusart1.c"
  3278 ;; Parameters:    Size  Location     Type
  3279 ;;		None
  3280 ;; Auto vars:     Size  Location     Type
  3281 ;;		None
  3282 ;; Return value:  Size  Location     Type
  3283 ;;                  1    wreg      _Bool 
  3284 ;; Registers used:
  3285 ;;		wreg, status,2
  3286 ;; Tracked objects:
  3287 ;;		On entry : 0/0
  3288 ;;		On exit  : 0/0
  3289 ;;		Unchanged: 0/0
  3290 ;; Data sizes:     COMRAM   BANK0   BANK1   BANK2   BANK3   BANK4   BANK5   BANK6   BANK7   BANK8   BANK9  BANK10  BANK1
      +1  BANK12  BANK13  BANK14  BANK15
  3291 ;;      Params:         0       0       0       0       0       0       0       0       0       0       0       0       
      +0       0       0       0       0
  3292 ;;      Locals:         0       0       0       0       0       0       0       0       0       0       0       0       
      +0       0       0       0       0
  3293 ;;      Temps:          0       0       0       0       0       0       0       0       0       0       0       0       
      +0       0       0       0       0
  3294 ;;      Totals:         0       0       0       0       0       0       0       0       0       0       0       0       
      +0       0       0       0       0
  3295 ;;Total ram usage:        0 bytes
  3296 ;; Hardware stack levels used:    1
  3297 ;; Hardware stack levels required when called:    8
  3298 ;; This function calls:
  3299 ;;		Nothing
  3300 ;; This function is called by:
  3301 ;;		_EUSART1_Write
  3302 ;; This function uses a non-reentrant model
  3303 ;;
  3304                           
  3305                           	psect	text14
  3306  003CEC                     __ptext14:
  3307                           	opt callstack 0
  3308  003CEC                     _EUSART1_is_tx_ready:
  3309                           	opt callstack 16
  3310  003CEC                     
  3311                           ;mcc_generated_files/eusart1.c: 99:     return (eusart1TxBufferRemaining ? 1 : 0);
  3312  003CEC  5044               	movf	_eusart1TxBufferRemaining^0,w,c	;volatile
  3313  003CEE  A4D8               	btfss	status,2,c
  3314  003CF0  EF7C  F01E         	goto	u5511
  3315  003CF4  EF7F  F01E         	goto	u5510
  3316  003CF8                     u5511:
  3317  003CF8  0E01               	movlw	1
  3318  003CFA  EF80  F01E         	goto	u5520
  3319  003CFE                     u5510:
  3320  003CFE  0E00               	movlw	0
  3321  003D00                     u5520:
  3322  003D00  0012               	return		;funcret
  3323  003D02                     __end_of_EUSART1_is_tx_ready:
  3324                           	opt callstack 0
  3325                           
  3326 ;; *************** function _abs *****************
  3327 ;; Defined at:
  3328 ;;		line 1 in file "C:\Program Files (x86)\Microchip\xc8\v2.10\pic\sources\c99\common\abs.c"
  3329 ;; Parameters:    Size  Location     Type
  3330 ;;  a               2   37[COMRAM] int 
  3331 ;; Auto vars:     Size  Location     Type
  3332 ;;		None
  3333 ;; Return value:  Size  Location     Type
  3334 ;;                  2   37[COMRAM] int 
  3335 ;; Registers used:
  3336 ;;		wreg, status,2, status,0
  3337 ;; Tracked objects:
  3338 ;;		On entry : 0/0
  3339 ;;		On exit  : 0/0
  3340 ;;		Unchanged: 0/0
  3341 ;; Data sizes:     COMRAM   BANK0   BANK1   BANK2   BANK3   BANK4   BANK5   BANK6   BANK7   BANK8   BANK9  BANK10  BANK1
      +1  BANK12  BANK13  BANK14  BANK15
  3342 ;;      Params:         2       0       0       0       0       0       0       0       0       0       0       0       
      +0       0       0       0       0
  3343 ;;      Locals:         0       0       0       0       0       0       0       0       0       0       0       0       
      +0       0       0       0       0
  3344 ;;      Temps:          2       0       0       0       0       0       0       0       0       0       0       0       
      +0       0       0       0       0
  3345 ;;      Totals:         4       0       0       0       0       0       0       0       0       0       0       0       
      +0       0       0       0       0
  3346 ;;Total ram usage:        4 bytes
  3347 ;; Hardware stack levels used:    1
  3348 ;; Hardware stack levels required when called:    8
  3349 ;; This function calls:
  3350 ;;		Nothing
  3351 ;; This function is called by:
  3352 ;;		_jump_azi_ctrl
  3353 ;;		_dtoa
  3354 ;; This function uses a non-reentrant model
  3355 ;;
  3356                           
  3357                           	psect	text15
  3358  003A2E                     __ptext15:
  3359                           	opt callstack 0
  3360  003A2E                     _abs:
  3361                           	opt callstack 18
  3362  003A2E  BE27               	btfsc	(abs@a+1)^0,7,c
  3363  003A30  EF24  F01D         	goto	u5730
  3364  003A34  5027               	movf	(abs@a+1)^0,w,c
  3365  003A36  E106               	bnz	u5731
  3366  003A38  0426               	decf	abs@a^0,w,c
  3367  003A3A  B0D8               	btfsc	status,0,c
  3368  003A3C  EF22  F01D         	goto	u5731
  3369  003A40  EF24  F01D         	goto	u5730
  3370  003A44                     u5731:
  3371  003A44  EF32  F01D         	goto	l1936
  3372  003A48                     u5730:
  3373  003A48  C026  F028         	movff	abs@a,??_abs
  3374  003A4C  C027  F029         	movff	abs@a+1,??_abs+1
  3375  003A50  1E28               	comf	??_abs^0,f,c
  3376  003A52  1E29               	comf	(??_abs+1)^0,f,c
  3377  003A54  4A28               	infsnz	??_abs^0,f,c
  3378  003A56  2A29               	incf	(??_abs+1)^0,f,c
  3379  003A58  C028  F026         	movff	??_abs,?_abs
  3380  003A5C  C029  F027         	movff	??_abs+1,?_abs+1
  3381  003A60  EF36  F01D         	goto	l1939
  3382  003A64                     l1936:
  3383  003A64  C026  F026         	movff	abs@a,?_abs
  3384  003A68  C027  F027         	movff	abs@a+1,?_abs+1
  3385  003A6C                     l1939:
  3386  003A6C  0012               	return		;funcret
  3387  003A6E                     __end_of_abs:
  3388                           	opt callstack 0
  3389                           
  3390 ;; *************** function ___aomod *****************
  3391 ;; Defined at:
  3392 ;;		line 9 in file "C:\Program Files (x86)\Microchip\xc8\v2.10\pic\sources\c99\common\aomod.c"
  3393 ;; Parameters:    Size  Location     Type
  3394 ;;  dividend        8   19[COMRAM] long long 
  3395 ;;  divisor         8   27[COMRAM] long long 
  3396 ;; Auto vars:     Size  Location     Type
  3397 ;;  sign            1   36[COMRAM] unsigned char 
  3398 ;;  counter         1   35[COMRAM] unsigned char 
  3399 ;; Return value:  Size  Location     Type
  3400 ;;                  8   19[COMRAM] long long 
  3401 ;; Registers used:
  3402 ;;		wreg, status,2, status,0
  3403 ;; Tracked objects:
  3404 ;;		On entry : 0/0
  3405 ;;		On exit  : 0/0
  3406 ;;		Unchanged: 0/0
  3407 ;; Data sizes:     COMRAM   BANK0   BANK1   BANK2   BANK3   BANK4   BANK5   BANK6   BANK7   BANK8   BANK9  BANK10  BANK1
      +1  BANK12  BANK13  BANK14  BANK15
  3408 ;;      Params:        16       0       0       0       0       0       0       0       0       0       0       0       
      +0       0       0       0       0
  3409 ;;      Locals:         2       0       0       0       0       0       0       0       0       0       0       0       
      +0       0       0       0       0
  3410 ;;      Temps:          0       0       0       0       0       0       0       0       0       0       0       0       
      +0       0       0       0       0
  3411 ;;      Totals:        18       0       0       0       0       0       0       0       0       0       0       0       
      +0       0       0       0       0
  3412 ;;Total ram usage:       18 bytes
  3413 ;; Hardware stack levels used:    1
  3414 ;; Hardware stack levels required when called:    8
  3415 ;; This function calls:
  3416 ;;		Nothing
  3417 ;; This function is called by:
  3418 ;;		_dtoa
  3419 ;; This function uses a non-reentrant model
  3420 ;;
  3421                           
  3422                           	psect	text16
  3423  002158                     __ptext16:
  3424                           	opt callstack 0
  3425  002158                     ___aomod:
  3426                           	opt callstack 18
  3427  002158  0E00               	movlw	0
  3428  00215A  6E25               	movwf	___aomod@sign^0,c
  3429  00215C  BE1B               	btfsc	(___aomod@dividend+7)^0,7,c
  3430  00215E  EFB5  F010         	goto	u5850
  3431  002162  EFB3  F010         	goto	u5851
  3432  002166                     u5851:
  3433  002166  EFC7  F010         	goto	l6902
  3434  00216A                     u5850:
  3435  00216A  1E1B               	comf	(___aomod@dividend+7)^0,f,c
  3436  00216C  1E1A               	comf	(___aomod@dividend+6)^0,f,c
  3437  00216E  1E19               	comf	(___aomod@dividend+5)^0,f,c
  3438  002170  1E18               	comf	(___aomod@dividend+4)^0,f,c
  3439  002172  1E17               	comf	(___aomod@dividend+3)^0,f,c
  3440  002174  1E16               	comf	(___aomod@dividend+2)^0,f,c
  3441  002176  1E15               	comf	(___aomod@dividend+1)^0,f,c
  3442  002178  6C14               	negf	___aomod@dividend^0,c
  3443  00217A  0E00               	movlw	0
  3444  00217C  2215               	addwfc	(___aomod@dividend+1)^0,f,c
  3445  00217E  2216               	addwfc	(___aomod@dividend+2)^0,f,c
  3446  002180  2217               	addwfc	(___aomod@dividend+3)^0,f,c
  3447  002182  2218               	addwfc	(___aomod@dividend+4)^0,f,c
  3448  002184  2219               	addwfc	(___aomod@dividend+5)^0,f,c
  3449  002186  221A               	addwfc	(___aomod@dividend+6)^0,f,c
  3450  002188  221B               	addwfc	(___aomod@dividend+7)^0,f,c
  3451  00218A  0E01               	movlw	1
  3452  00218C  6E25               	movwf	___aomod@sign^0,c
  3453  00218E                     l6902:
  3454  00218E  BE23               	btfsc	(___aomod@divisor+7)^0,7,c
  3455  002190  EFCE  F010         	goto	u5860
  3456  002194  EFCC  F010         	goto	u5861
  3457  002198                     u5861:
  3458  002198  EFDE  F010         	goto	l6906
  3459  00219C                     u5860:
  3460  00219C  1E23               	comf	(___aomod@divisor+7)^0,f,c
  3461  00219E  1E22               	comf	(___aomod@divisor+6)^0,f,c
  3462  0021A0  1E21               	comf	(___aomod@divisor+5)^0,f,c
  3463  0021A2  1E20               	comf	(___aomod@divisor+4)^0,f,c
  3464  0021A4  1E1F               	comf	(___aomod@divisor+3)^0,f,c
  3465  0021A6  1E1E               	comf	(___aomod@divisor+2)^0,f,c
  3466  0021A8  1E1D               	comf	(___aomod@divisor+1)^0,f,c
  3467  0021AA  6C1C               	negf	___aomod@divisor^0,c
  3468  0021AC  0E00               	movlw	0
  3469  0021AE  221D               	addwfc	(___aomod@divisor+1)^0,f,c
  3470  0021B0  221E               	addwfc	(___aomod@divisor+2)^0,f,c
  3471  0021B2  221F               	addwfc	(___aomod@divisor+3)^0,f,c
  3472  0021B4  2220               	addwfc	(___aomod@divisor+4)^0,f,c
  3473  0021B6  2221               	addwfc	(___aomod@divisor+5)^0,f,c
  3474  0021B8  2222               	addwfc	(___aomod@divisor+6)^0,f,c
  3475  0021BA  2223               	addwfc	(___aomod@divisor+7)^0,f,c
  3476  0021BC                     l6906:
  3477  0021BC  501C               	movf	___aomod@divisor^0,w,c
  3478  0021BE  101D               	iorwf	(___aomod@divisor+1)^0,w,c
  3479  0021C0  101E               	iorwf	(___aomod@divisor+2)^0,w,c
  3480  0021C2  101F               	iorwf	(___aomod@divisor+3)^0,w,c
  3481  0021C4  1020               	iorwf	(___aomod@divisor+4)^0,w,c
  3482  0021C6  1021               	iorwf	(___aomod@divisor+5)^0,w,c
  3483  0021C8  1022               	iorwf	(___aomod@divisor+6)^0,w,c
  3484  0021CA  1023               	iorwf	(___aomod@divisor+7)^0,w,c
  3485  0021CC  B4D8               	btfsc	status,2,c
  3486  0021CE  EFEB  F010         	goto	u5871
  3487  0021D2  EFED  F010         	goto	u5870
  3488  0021D6                     u5871:
  3489  0021D6  EF35  F011         	goto	l6922
  3490  0021DA                     u5870:
  3491  0021DA  0E01               	movlw	1
  3492  0021DC  6E24               	movwf	___aomod@counter^0,c
  3493  0021DE  EFFB  F010         	goto	l6912
  3494  0021E2                     l6910:
  3495  0021E2  90D8               	bcf	status,0,c
  3496  0021E4  361C               	rlcf	___aomod@divisor^0,f,c
  3497  0021E6  361D               	rlcf	(___aomod@divisor+1)^0,f,c
  3498  0021E8  361E               	rlcf	(___aomod@divisor+2)^0,f,c
  3499  0021EA  361F               	rlcf	(___aomod@divisor+3)^0,f,c
  3500  0021EC  3620               	rlcf	(___aomod@divisor+4)^0,f,c
  3501  0021EE  3621               	rlcf	(___aomod@divisor+5)^0,f,c
  3502  0021F0  3622               	rlcf	(___aomod@divisor+6)^0,f,c
  3503  0021F2  3623               	rlcf	(___aomod@divisor+7)^0,f,c
  3504  0021F4  2A24               	incf	___aomod@counter^0,f,c
  3505  0021F6                     l6912:
  3506  0021F6  AE23               	btfss	(___aomod@divisor+7)^0,7,c
  3507  0021F8  EF00  F011         	goto	u5881
  3508  0021FC  EF02  F011         	goto	u5880
  3509  002200                     u5881:
  3510  002200  EFF1  F010         	goto	l6910
  3511  002204                     u5880:
  3512  002204                     l6914:
  3513  002204  501C               	movf	___aomod@divisor^0,w,c
  3514  002206  5C14               	subwf	___aomod@dividend^0,w,c
  3515  002208  501D               	movf	(___aomod@divisor+1)^0,w,c
  3516  00220A  5815               	subwfb	(___aomod@dividend+1)^0,w,c
  3517  00220C  501E               	movf	(___aomod@divisor+2)^0,w,c
  3518  00220E  5816               	subwfb	(___aomod@dividend+2)^0,w,c
  3519  002210  501F               	movf	(___aomod@divisor+3)^0,w,c
  3520  002212  5817               	subwfb	(___aomod@dividend+3)^0,w,c
  3521  002214  5020               	movf	(___aomod@divisor+4)^0,w,c
  3522  002216  5818               	subwfb	(___aomod@dividend+4)^0,w,c
  3523  002218  5021               	movf	(___aomod@divisor+5)^0,w,c
  3524  00221A  5819               	subwfb	(___aomod@dividend+5)^0,w,c
  3525  00221C  5022               	movf	(___aomod@divisor+6)^0,w,c
  3526  00221E  581A               	subwfb	(___aomod@dividend+6)^0,w,c
  3527  002220  5023               	movf	(___aomod@divisor+7)^0,w,c
  3528  002222  581B               	subwfb	(___aomod@dividend+7)^0,w,c
  3529  002224  A0D8               	btfss	status,0,c
  3530  002226  EF17  F011         	goto	u5891
  3531  00222A  EF19  F011         	goto	u5890
  3532  00222E                     u5891:
  3533  00222E  EF29  F011         	goto	l6918
  3534  002232                     u5890:
  3535  002232  501C               	movf	___aomod@divisor^0,w,c
  3536  002234  5E14               	subwf	___aomod@dividend^0,f,c
  3537  002236  501D               	movf	(___aomod@divisor+1)^0,w,c
  3538  002238  5A15               	subwfb	(___aomod@dividend+1)^0,f,c
  3539  00223A  501E               	movf	(___aomod@divisor+2)^0,w,c
  3540  00223C  5A16               	subwfb	(___aomod@dividend+2)^0,f,c
  3541  00223E  501F               	movf	(___aomod@divisor+3)^0,w,c
  3542  002240  5A17               	subwfb	(___aomod@dividend+3)^0,f,c
  3543  002242  5020               	movf	(___aomod@divisor+4)^0,w,c
  3544  002244  5A18               	subwfb	(___aomod@dividend+4)^0,f,c
  3545  002246  5021               	movf	(___aomod@divisor+5)^0,w,c
  3546  002248  5A19               	subwfb	(___aomod@dividend+5)^0,f,c
  3547  00224A  5022               	movf	(___aomod@divisor+6)^0,w,c
  3548  00224C  5A1A               	subwfb	(___aomod@dividend+6)^0,f,c
  3549  00224E  5023               	movf	(___aomod@divisor+7)^0,w,c
  3550  002250  5A1B               	subwfb	(___aomod@dividend+7)^0,f,c
  3551  002252                     l6918:
  3552  002252  90D8               	bcf	status,0,c
  3553  002254  3223               	rrcf	(___aomod@divisor+7)^0,f,c
  3554  002256  3222               	rrcf	(___aomod@divisor+6)^0,f,c
  3555  002258  3221               	rrcf	(___aomod@divisor+5)^0,f,c
  3556  00225A  3220               	rrcf	(___aomod@divisor+4)^0,f,c
  3557  00225C  321F               	rrcf	(___aomod@divisor+3)^0,f,c
  3558  00225E  321E               	rrcf	(___aomod@divisor+2)^0,f,c
  3559  002260  321D               	rrcf	(___aomod@divisor+1)^0,f,c
  3560  002262  321C               	rrcf	___aomod@divisor^0,f,c
  3561  002264  2E24               	decfsz	___aomod@counter^0,f,c
  3562  002266  EF02  F011         	goto	l6914
  3563  00226A                     l6922:
  3564  00226A  5025               	movf	___aomod@sign^0,w,c
  3565  00226C  B4D8               	btfsc	status,2,c
  3566  00226E  EF3B  F011         	goto	u5901
  3567  002272  EF3D  F011         	goto	u5900
  3568  002276                     u5901:
  3569  002276  EF4D  F011         	goto	l6926
  3570  00227A                     u5900:
  3571  00227A  1E1B               	comf	(___aomod@dividend+7)^0,f,c
  3572  00227C  1E1A               	comf	(___aomod@dividend+6)^0,f,c
  3573  00227E  1E19               	comf	(___aomod@dividend+5)^0,f,c
  3574  002280  1E18               	comf	(___aomod@dividend+4)^0,f,c
  3575  002282  1E17               	comf	(___aomod@dividend+3)^0,f,c
  3576  002284  1E16               	comf	(___aomod@dividend+2)^0,f,c
  3577  002286  1E15               	comf	(___aomod@dividend+1)^0,f,c
  3578  002288  6C14               	negf	___aomod@dividend^0,c
  3579  00228A  0E00               	movlw	0
  3580  00228C  2215               	addwfc	(___aomod@dividend+1)^0,f,c
  3581  00228E  2216               	addwfc	(___aomod@dividend+2)^0,f,c
  3582  002290  2217               	addwfc	(___aomod@dividend+3)^0,f,c
  3583  002292  2218               	addwfc	(___aomod@dividend+4)^0,f,c
  3584  002294  2219               	addwfc	(___aomod@dividend+5)^0,f,c
  3585  002296  221A               	addwfc	(___aomod@dividend+6)^0,f,c
  3586  002298  221B               	addwfc	(___aomod@dividend+7)^0,f,c
  3587  00229A                     l6926:
  3588  00229A  C014  F014         	movff	___aomod@dividend,?___aomod
  3589  00229E  C015  F015         	movff	___aomod@dividend+1,?___aomod+1
  3590  0022A2  C016  F016         	movff	___aomod@dividend+2,?___aomod+2
  3591  0022A6  C017  F017         	movff	___aomod@dividend+3,?___aomod+3
  3592  0022AA  C018  F018         	movff	___aomod@dividend+4,?___aomod+4
  3593  0022AE  C019  F019         	movff	___aomod@dividend+5,?___aomod+5
  3594  0022B2  C01A  F01A         	movff	___aomod@dividend+6,?___aomod+6
  3595  0022B6  C01B  F01B         	movff	___aomod@dividend+7,?___aomod+7
  3596  0022BA  0012               	return		;funcret
  3597  0022BC                     __end_of___aomod:
  3598                           	opt callstack 0
  3599                           
  3600 ;; *************** function ___aodiv *****************
  3601 ;; Defined at:
  3602 ;;		line 9 in file "C:\Program Files (x86)\Microchip\xc8\v2.10\pic\sources\c99\common\aodiv.c"
  3603 ;; Parameters:    Size  Location     Type
  3604 ;;  dividend        8   19[COMRAM] long long 
  3605 ;;  divisor         8   27[COMRAM] long long 
  3606 ;; Auto vars:     Size  Location     Type
  3607 ;;  quotient        8   37[COMRAM] long long 
  3608 ;;  sign            1   36[COMRAM] unsigned char 
  3609 ;;  counter         1   35[COMRAM] unsigned char 
  3610 ;; Return value:  Size  Location     Type
  3611 ;;                  8   19[COMRAM] long long 
  3612 ;; Registers used:
  3613 ;;		wreg, fsr2l, fsr2h, status,2, status,0
  3614 ;; Tracked objects:
  3615 ;;		On entry : 0/0
  3616 ;;		On exit  : 0/0
  3617 ;;		Unchanged: 0/0
  3618 ;; Data sizes:     COMRAM   BANK0   BANK1   BANK2   BANK3   BANK4   BANK5   BANK6   BANK7   BANK8   BANK9  BANK10  BANK1
      +1  BANK12  BANK13  BANK14  BANK15
  3619 ;;      Params:        16       0       0       0       0       0       0       0       0       0       0       0       
      +0       0       0       0       0
  3620 ;;      Locals:        10       0       0       0       0       0       0       0       0       0       0       0       
      +0       0       0       0       0
  3621 ;;      Temps:          0       0       0       0       0       0       0       0       0       0       0       0       
      +0       0       0       0       0
  3622 ;;      Totals:        26       0       0       0       0       0       0       0       0       0       0       0       
      +0       0       0       0       0
  3623 ;;Total ram usage:       26 bytes
  3624 ;; Hardware stack levels used:    1
  3625 ;; Hardware stack levels required when called:    8
  3626 ;; This function calls:
  3627 ;;		Nothing
  3628 ;; This function is called by:
  3629 ;;		_dtoa
  3630 ;; This function uses a non-reentrant model
  3631 ;;
  3632                           
  3633                           	psect	text17
  3634  001E5C                     __ptext17:
  3635                           	opt callstack 0
  3636  001E5C                     ___aodiv:
  3637                           	opt callstack 18
  3638  001E5C  0E00               	movlw	0
  3639  001E5E  6E25               	movwf	___aodiv@sign^0,c
  3640  001E60  BE23               	btfsc	(___aodiv@divisor+7)^0,7,c
  3641  001E62  EF37  F00F         	goto	u5780
  3642  001E66  EF35  F00F         	goto	u5781
  3643  001E6A                     u5781:
  3644  001E6A  EF49  F00F         	goto	l6858
  3645  001E6E                     u5780:
  3646  001E6E  1E23               	comf	(___aodiv@divisor+7)^0,f,c
  3647  001E70  1E22               	comf	(___aodiv@divisor+6)^0,f,c
  3648  001E72  1E21               	comf	(___aodiv@divisor+5)^0,f,c
  3649  001E74  1E20               	comf	(___aodiv@divisor+4)^0,f,c
  3650  001E76  1E1F               	comf	(___aodiv@divisor+3)^0,f,c
  3651  001E78  1E1E               	comf	(___aodiv@divisor+2)^0,f,c
  3652  001E7A  1E1D               	comf	(___aodiv@divisor+1)^0,f,c
  3653  001E7C  6C1C               	negf	___aodiv@divisor^0,c
  3654  001E7E  0E00               	movlw	0
  3655  001E80  221D               	addwfc	(___aodiv@divisor+1)^0,f,c
  3656  001E82  221E               	addwfc	(___aodiv@divisor+2)^0,f,c
  3657  001E84  221F               	addwfc	(___aodiv@divisor+3)^0,f,c
  3658  001E86  2220               	addwfc	(___aodiv@divisor+4)^0,f,c
  3659  001E88  2221               	addwfc	(___aodiv@divisor+5)^0,f,c
  3660  001E8A  2222               	addwfc	(___aodiv@divisor+6)^0,f,c
  3661  001E8C  2223               	addwfc	(___aodiv@divisor+7)^0,f,c
  3662  001E8E  0E01               	movlw	1
  3663  001E90  6E25               	movwf	___aodiv@sign^0,c
  3664  001E92                     l6858:
  3665  001E92  BE1B               	btfsc	(___aodiv@dividend+7)^0,7,c
  3666  001E94  EF50  F00F         	goto	u5790
  3667  001E98  EF4E  F00F         	goto	u5791
  3668  001E9C                     u5791:
  3669  001E9C  EF62  F00F         	goto	l6864
  3670  001EA0                     u5790:
  3671  001EA0  1E1B               	comf	(___aodiv@dividend+7)^0,f,c
  3672  001EA2  1E1A               	comf	(___aodiv@dividend+6)^0,f,c
  3673  001EA4  1E19               	comf	(___aodiv@dividend+5)^0,f,c
  3674  001EA6  1E18               	comf	(___aodiv@dividend+4)^0,f,c
  3675  001EA8  1E17               	comf	(___aodiv@dividend+3)^0,f,c
  3676  001EAA  1E16               	comf	(___aodiv@dividend+2)^0,f,c
  3677  001EAC  1E15               	comf	(___aodiv@dividend+1)^0,f,c
  3678  001EAE  6C14               	negf	___aodiv@dividend^0,c
  3679  001EB0  0E00               	movlw	0
  3680  001EB2  2215               	addwfc	(___aodiv@dividend+1)^0,f,c
  3681  001EB4  2216               	addwfc	(___aodiv@dividend+2)^0,f,c
  3682  001EB6  2217               	addwfc	(___aodiv@dividend+3)^0,f,c
  3683  001EB8  2218               	addwfc	(___aodiv@dividend+4)^0,f,c
  3684  001EBA  2219               	addwfc	(___aodiv@dividend+5)^0,f,c
  3685  001EBC  221A               	addwfc	(___aodiv@dividend+6)^0,f,c
  3686  001EBE  221B               	addwfc	(___aodiv@dividend+7)^0,f,c
  3687  001EC0  0E01               	movlw	1
  3688  001EC2  1A25               	xorwf	___aodiv@sign^0,f,c
  3689  001EC4                     l6864:
  3690  001EC4  EE20  F026         	lfsr	2,___aodiv@quotient
  3691  001EC8  0E07               	movlw	7
  3692  001ECA                     u5801:
  3693  001ECA  6ADE               	clrf	postinc2,c
  3694  001ECC  06E8               	decf	wreg,f,c
  3695  001ECE  E2FD               	bc	u5801
  3696  001ED0  501C               	movf	___aodiv@divisor^0,w,c
  3697  001ED2  101D               	iorwf	(___aodiv@divisor+1)^0,w,c
  3698  001ED4  101E               	iorwf	(___aodiv@divisor+2)^0,w,c
  3699  001ED6  101F               	iorwf	(___aodiv@divisor+3)^0,w,c
  3700  001ED8  1020               	iorwf	(___aodiv@divisor+4)^0,w,c
  3701  001EDA  1021               	iorwf	(___aodiv@divisor+5)^0,w,c
  3702  001EDC  1022               	iorwf	(___aodiv@divisor+6)^0,w,c
  3703  001EDE  1023               	iorwf	(___aodiv@divisor+7)^0,w,c
  3704  001EE0  B4D8               	btfsc	status,2,c
  3705  001EE2  EF75  F00F         	goto	u5811
  3706  001EE6  EF77  F00F         	goto	u5810
  3707  001EEA                     u5811:
  3708  001EEA  EFC9  F00F         	goto	l6886
  3709  001EEE                     u5810:
  3710  001EEE  0E01               	movlw	1
  3711  001EF0  6E24               	movwf	___aodiv@counter^0,c
  3712  001EF2  EF85  F00F         	goto	l6872
  3713  001EF6                     l6870:
  3714  001EF6  90D8               	bcf	status,0,c
  3715  001EF8  361C               	rlcf	___aodiv@divisor^0,f,c
  3716  001EFA  361D               	rlcf	(___aodiv@divisor+1)^0,f,c
  3717  001EFC  361E               	rlcf	(___aodiv@divisor+2)^0,f,c
  3718  001EFE  361F               	rlcf	(___aodiv@divisor+3)^0,f,c
  3719  001F00  3620               	rlcf	(___aodiv@divisor+4)^0,f,c
  3720  001F02  3621               	rlcf	(___aodiv@divisor+5)^0,f,c
  3721  001F04  3622               	rlcf	(___aodiv@divisor+6)^0,f,c
  3722  001F06  3623               	rlcf	(___aodiv@divisor+7)^0,f,c
  3723  001F08  2A24               	incf	___aodiv@counter^0,f,c
  3724  001F0A                     l6872:
  3725  001F0A  AE23               	btfss	(___aodiv@divisor+7)^0,7,c
  3726  001F0C  EF8A  F00F         	goto	u5821
  3727  001F10  EF8C  F00F         	goto	u5820
  3728  001F14                     u5821:
  3729  001F14  EF7B  F00F         	goto	l6870
  3730  001F18                     u5820:
  3731  001F18                     l6874:
  3732  001F18  90D8               	bcf	status,0,c
  3733  001F1A  3626               	rlcf	___aodiv@quotient^0,f,c
  3734  001F1C  3627               	rlcf	(___aodiv@quotient+1)^0,f,c
  3735  001F1E  3628               	rlcf	(___aodiv@quotient+2)^0,f,c
  3736  001F20  3629               	rlcf	(___aodiv@quotient+3)^0,f,c
  3737  001F22  362A               	rlcf	(___aodiv@quotient+4)^0,f,c
  3738  001F24  362B               	rlcf	(___aodiv@quotient+5)^0,f,c
  3739  001F26  362C               	rlcf	(___aodiv@quotient+6)^0,f,c
  3740  001F28  362D               	rlcf	(___aodiv@quotient+7)^0,f,c
  3741  001F2A  501C               	movf	___aodiv@divisor^0,w,c
  3742  001F2C  5C14               	subwf	___aodiv@dividend^0,w,c
  3743  001F2E  501D               	movf	(___aodiv@divisor+1)^0,w,c
  3744  001F30  5815               	subwfb	(___aodiv@dividend+1)^0,w,c
  3745  001F32  501E               	movf	(___aodiv@divisor+2)^0,w,c
  3746  001F34  5816               	subwfb	(___aodiv@dividend+2)^0,w,c
  3747  001F36  501F               	movf	(___aodiv@divisor+3)^0,w,c
  3748  001F38  5817               	subwfb	(___aodiv@dividend+3)^0,w,c
  3749  001F3A  5020               	movf	(___aodiv@divisor+4)^0,w,c
  3750  001F3C  5818               	subwfb	(___aodiv@dividend+4)^0,w,c
  3751  001F3E  5021               	movf	(___aodiv@divisor+5)^0,w,c
  3752  001F40  5819               	subwfb	(___aodiv@dividend+5)^0,w,c
  3753  001F42  5022               	movf	(___aodiv@divisor+6)^0,w,c
  3754  001F44  581A               	subwfb	(___aodiv@dividend+6)^0,w,c
  3755  001F46  5023               	movf	(___aodiv@divisor+7)^0,w,c
  3756  001F48  581B               	subwfb	(___aodiv@dividend+7)^0,w,c
  3757  001F4A  A0D8               	btfss	status,0,c
  3758  001F4C  EFAA  F00F         	goto	u5831
  3759  001F50  EFAC  F00F         	goto	u5830
  3760  001F54                     u5831:
  3761  001F54  EFBD  F00F         	goto	l6882
  3762  001F58                     u5830:
  3763  001F58  501C               	movf	___aodiv@divisor^0,w,c
  3764  001F5A  5E14               	subwf	___aodiv@dividend^0,f,c
  3765  001F5C  501D               	movf	(___aodiv@divisor+1)^0,w,c
  3766  001F5E  5A15               	subwfb	(___aodiv@dividend+1)^0,f,c
  3767  001F60  501E               	movf	(___aodiv@divisor+2)^0,w,c
  3768  001F62  5A16               	subwfb	(___aodiv@dividend+2)^0,f,c
  3769  001F64  501F               	movf	(___aodiv@divisor+3)^0,w,c
  3770  001F66  5A17               	subwfb	(___aodiv@dividend+3)^0,f,c
  3771  001F68  5020               	movf	(___aodiv@divisor+4)^0,w,c
  3772  001F6A  5A18               	subwfb	(___aodiv@dividend+4)^0,f,c
  3773  001F6C  5021               	movf	(___aodiv@divisor+5)^0,w,c
  3774  001F6E  5A19               	subwfb	(___aodiv@dividend+5)^0,f,c
  3775  001F70  5022               	movf	(___aodiv@divisor+6)^0,w,c
  3776  001F72  5A1A               	subwfb	(___aodiv@dividend+6)^0,f,c
  3777  001F74  5023               	movf	(___aodiv@divisor+7)^0,w,c
  3778  001F76  5A1B               	subwfb	(___aodiv@dividend+7)^0,f,c
  3779  001F78  8026               	bsf	___aodiv@quotient^0,0,c
  3780  001F7A                     l6882:
  3781  001F7A  90D8               	bcf	status,0,c
  3782  001F7C  3223               	rrcf	(___aodiv@divisor+7)^0,f,c
  3783  001F7E  3222               	rrcf	(___aodiv@divisor+6)^0,f,c
  3784  001F80  3221               	rrcf	(___aodiv@divisor+5)^0,f,c
  3785  001F82  3220               	rrcf	(___aodiv@divisor+4)^0,f,c
  3786  001F84  321F               	rrcf	(___aodiv@divisor+3)^0,f,c
  3787  001F86  321E               	rrcf	(___aodiv@divisor+2)^0,f,c
  3788  001F88  321D               	rrcf	(___aodiv@divisor+1)^0,f,c
  3789  001F8A  321C               	rrcf	___aodiv@divisor^0,f,c
  3790  001F8C  2E24               	decfsz	___aodiv@counter^0,f,c
  3791  001F8E  EF8C  F00F         	goto	l6874
  3792  001F92                     l6886:
  3793  001F92  5025               	movf	___aodiv@sign^0,w,c
  3794  001F94  B4D8               	btfsc	status,2,c
  3795  001F96  EFCF  F00F         	goto	u5841
  3796  001F9A  EFD1  F00F         	goto	u5840
  3797  001F9E                     u5841:
  3798  001F9E  EFE1  F00F         	goto	l6890
  3799  001FA2                     u5840:
  3800  001FA2  1E2D               	comf	(___aodiv@quotient+7)^0,f,c
  3801  001FA4  1E2C               	comf	(___aodiv@quotient+6)^0,f,c
  3802  001FA6  1E2B               	comf	(___aodiv@quotient+5)^0,f,c
  3803  001FA8  1E2A               	comf	(___aodiv@quotient+4)^0,f,c
  3804  001FAA  1E29               	comf	(___aodiv@quotient+3)^0,f,c
  3805  001FAC  1E28               	comf	(___aodiv@quotient+2)^0,f,c
  3806  001FAE  1E27               	comf	(___aodiv@quotient+1)^0,f,c
  3807  001FB0  6C26               	negf	___aodiv@quotient^0,c
  3808  001FB2  0E00               	movlw	0
  3809  001FB4  2227               	addwfc	(___aodiv@quotient+1)^0,f,c
  3810  001FB6  2228               	addwfc	(___aodiv@quotient+2)^0,f,c
  3811  001FB8  2229               	addwfc	(___aodiv@quotient+3)^0,f,c
  3812  001FBA  222A               	addwfc	(___aodiv@quotient+4)^0,f,c
  3813  001FBC  222B               	addwfc	(___aodiv@quotient+5)^0,f,c
  3814  001FBE  222C               	addwfc	(___aodiv@quotient+6)^0,f,c
  3815  001FC0  222D               	addwfc	(___aodiv@quotient+7)^0,f,c
  3816  001FC2                     l6890:
  3817  001FC2  C026  F014         	movff	___aodiv@quotient,?___aodiv
  3818  001FC6  C027  F015         	movff	___aodiv@quotient+1,?___aodiv+1
  3819  001FCA  C028  F016         	movff	___aodiv@quotient+2,?___aodiv+2
  3820  001FCE  C029  F017         	movff	___aodiv@quotient+3,?___aodiv+3
  3821  001FD2  C02A  F018         	movff	___aodiv@quotient+4,?___aodiv+4
  3822  001FD6  C02B  F019         	movff	___aodiv@quotient+5,?___aodiv+5
  3823  001FDA  C02C  F01A         	movff	___aodiv@quotient+6,?___aodiv+6
  3824  001FDE  C02D  F01B         	movff	___aodiv@quotient+7,?___aodiv+7
  3825  001FE2  0012               	return		;funcret
  3826  001FE4                     __end_of___aodiv:
  3827                           	opt callstack 0
  3828                           
  3829 ;; *************** function _EPWM2_engine_SoftStop *****************
  3830 ;; Defined at:
  3831 ;;		line 162 in file "mcc_generated_files/epwm2.c"
  3832 ;; Parameters:    Size  Location     Type
  3833 ;;		None
  3834 ;; Auto vars:     Size  Location     Type
  3835 ;;		None
  3836 ;; Return value:  Size  Location     Type
  3837 ;;                  1    wreg      void 
  3838 ;; Registers used:
  3839 ;;		wreg, status,2, status,0, prodl, prodh, cstack
  3840 ;; Tracked objects:
  3841 ;;		On entry : 0/0
  3842 ;;		On exit  : 0/0
  3843 ;;		Unchanged: 0/0
  3844 ;; Data sizes:     COMRAM   BANK0   BANK1   BANK2   BANK3   BANK4   BANK5   BANK6   BANK7   BANK8   BANK9  BANK10  BANK1
      +1  BANK12  BANK13  BANK14  BANK15
  3845 ;;      Params:         0       0       0       0       0       0       0       0       0       0       0       0       
      +0       0       0       0       0
  3846 ;;      Locals:         0       0       0       0       0       0       0       0       0       0       0       0       
      +0       0       0       0       0
  3847 ;;      Temps:          0       0       0       0       0       0       0       0       0       0       0       0       
      +0       0       0       0       0
  3848 ;;      Totals:         0       0       0       0       0       0       0       0       0       0       0       0       
      +0       0       0       0       0
  3849 ;;Total ram usage:        0 bytes
  3850 ;; Hardware stack levels used:    1
  3851 ;; Hardware stack levels required when called:   11
  3852 ;; This function calls:
  3853 ;;		_EPWM2_engine_config
  3854 ;;		_EPWM2_engine_off
  3855 ;;		_TMR0_HasOverflowOccured
  3856 ;;		_TMR0_Reload
  3857 ;;		_TMR0_StartTimer
  3858 ;;		_TMR0_StopTimer
  3859 ;;		_TMR0_period
  3860 ;;		_TMR0_request_period
  3861 ;; This function is called by:
  3862 ;;		_jump_azi_ctrl
  3863 ;;		_azi_lim_control
  3864 ;;		_Emergency_stop
  3865 ;; This function uses a non-reentrant model
  3866 ;;
  3867                           
  3868                           	psect	text18
  3869  0035CA                     __ptext18:
  3870                           	opt callstack 0
  3871  0035CA                     _EPWM2_engine_SoftStop:
  3872                           	opt callstack 17
  3873  0035CA                     
  3874                           ;mcc_generated_files/epwm2.c: 163:     if (STATUS_Eng_A.status == 1) {
  3875  0035CA  0440               	decf	_STATUS_Eng_A^0,w,c
  3876  0035CC  A4D8               	btfss	status,2,c
  3877  0035CE  EFEB  F01A         	goto	u7051
  3878  0035D2  EFED  F01A         	goto	u7050
  3879  0035D6                     u7051:
  3880  0035D6  EF22  F01B         	goto	l327
  3881  0035DA                     u7050:
  3882  0035DA                     
  3883                           ;mcc_generated_files/epwm2.c: 164:         STATUS_Eng_A.status = 3;
  3884  0035DA  0E03               	movlw	3
  3885  0035DC  6E40               	movwf	_STATUS_Eng_A^0,c
  3886  0035DE                     
  3887                           ;mcc_generated_files/epwm2.c: 165:         if (TMR0_request_period() != 25)
  3888  0035DE  ECED  F01E         	call	_TMR0_request_period	;wreg free
  3889  0035E2  0A19               	xorlw	25
  3890  0035E4  B4D8               	btfsc	status,2,c
  3891  0035E6  EFF7  F01A         	goto	u7061
  3892  0035EA  EFF9  F01A         	goto	u7060
  3893  0035EE                     u7061:
  3894  0035EE  EFFE  F01A         	goto	l7724
  3895  0035F2                     u7060:
  3896  0035F2                     
  3897                           ;mcc_generated_files/epwm2.c: 166:             TMR0_period(25);
  3898  0035F2  0E19               	movlw	25
  3899  0035F4  EC81  F01E         	call	_TMR0_period
  3900  0035F8  EF00  F01B         	goto	l7726
  3901  0035FC                     l7724:
  3902                           
  3903                           ;mcc_generated_files/epwm2.c: 168:             TMR0_Reload();
  3904  0035FC  ECAD  F01E         	call	_TMR0_Reload	;wreg free
  3905  003600                     l7726:
  3906                           
  3907                           ;mcc_generated_files/epwm2.c: 169:         TMR0_StartTimer();
  3908  003600  ECFE  F01E         	call	_TMR0_StartTimer	;wreg free
  3909  003604                     l7728:
  3910  003604  EC8C  F01E         	call	_TMR0_HasOverflowOccured	;wreg free
  3911  003608  0900               	iorlw	0
  3912  00360A  B4D8               	btfsc	status,2,c
  3913  00360C  EF0A  F01B         	goto	u7071
  3914  003610  EF0C  F01B         	goto	u7070
  3915  003614                     u7071:
  3916  003614  EF02  F01B         	goto	l7728
  3917  003618                     u7070:
  3918  003618                     
  3919                           ;mcc_generated_files/epwm2.c: 172:             INTCONbits.TMR0IF = 0;
  3920  003618  94F2               	bcf	242,2,c	;volatile
  3921  00361A                     
  3922                           ;mcc_generated_files/epwm2.c: 173:             TMR0_Reload();
  3923  00361A  ECAD  F01E         	call	_TMR0_Reload	;wreg free
  3924  00361E                     
  3925                           ;mcc_generated_files/epwm2.c: 174:             EPWM2_engine_config(STATUS_Eng_A.turn, co
      +                          unt_EPWM2_SStop++);
  3926  00361E  C047  F0D7         	movff	_count_EPWM2_SStop,EPWM2_engine_config@duty
  3927  003622  5041               	movf	(_STATUS_Eng_A+1)^0,w,c
  3928  003624  EC5E  F011         	call	_EPWM2_engine_config
  3929  003628  2A47               	incf	_count_EPWM2_SStop^0,f,c
  3930  00362A                     
  3931                           ;mcc_generated_files/epwm2.c: 175:         } while (count_EPWM2_SStop <= 50);
  3932  00362A  0E32               	movlw	50
  3933  00362C  6447               	cpfsgt	_count_EPWM2_SStop^0,c
  3934  00362E  EF1B  F01B         	goto	u7081
  3935  003632  EF1D  F01B         	goto	u7080
  3936  003636                     u7081:
  3937  003636  EF02  F01B         	goto	l7728
  3938  00363A                     u7080:
  3939  00363A                     
  3940                           ;mcc_generated_files/epwm2.c: 176:         EPWM2_engine_off();
  3941  00363A  EC0D  F01E         	call	_EPWM2_engine_off	;wreg free
  3942  00363E                     
  3943                           ;mcc_generated_files/epwm2.c: 177:         TMR0_StopTimer();
  3944  00363E  ECFC  F01E         	call	_TMR0_StopTimer	;wreg free
  3945  003642                     
  3946                           ;mcc_generated_files/epwm2.c: 178:         INTCONbits.TMR0IF = 0;
  3947  003642  94F2               	bcf	242,2,c	;volatile
  3948  003644                     l327:
  3949  003644  0012               	return		;funcret
  3950  003646                     __end_of_EPWM2_engine_SoftStop:
  3951                           	opt callstack 0
  3952                           
  3953 ;; *************** function _EPWM2_engine_off *****************
  3954 ;; Defined at:
  3955 ;;		line 120 in file "mcc_generated_files/epwm2.c"
  3956 ;; Parameters:    Size  Location     Type
  3957 ;;		None
  3958 ;; Auto vars:     Size  Location     Type
  3959 ;;		None
  3960 ;; Return value:  Size  Location     Type
  3961 ;;                  1    wreg      void 
  3962 ;; Registers used:
  3963 ;;		wreg, status,2, cstack
  3964 ;; Tracked objects:
  3965 ;;		On entry : 0/0
  3966 ;;		On exit  : 0/0
  3967 ;;		Unchanged: 0/0
  3968 ;; Data sizes:     COMRAM   BANK0   BANK1   BANK2   BANK3   BANK4   BANK5   BANK6   BANK7   BANK8   BANK9  BANK10  BANK1
      +1  BANK12  BANK13  BANK14  BANK15
  3969 ;;      Params:         0       0       0       0       0       0       0       0       0       0       0       0       
      +0       0       0       0       0
  3970 ;;      Locals:         0       0       0       0       0       0       0       0       0       0       0       0       
      +0       0       0       0       0
  3971 ;;      Temps:          0       0       0       0       0       0       0       0       0       0       0       0       
      +0       0       0       0       0
  3972 ;;      Totals:         0       0       0       0       0       0       0       0       0       0       0       0       
      +0       0       0       0       0
  3973 ;;Total ram usage:        0 bytes
  3974 ;; Hardware stack levels used:    1
  3975 ;; Hardware stack levels required when called:    9
  3976 ;; This function calls:
  3977 ;;		_EPWM2_outputs_off
  3978 ;;		_TMR2_StopTimer
  3979 ;; This function is called by:
  3980 ;;		_EPWM2_engine_SoftStop
  3981 ;; This function uses a non-reentrant model
  3982 ;;
  3983                           
  3984                           	psect	text19
  3985  003C1A                     __ptext19:
  3986                           	opt callstack 0
  3987  003C1A                     _EPWM2_engine_off:
  3988                           	opt callstack 18
  3989  003C1A                     
  3990                           ;mcc_generated_files/epwm2.c: 121:     if (STATUS_Eng_A.status != 0) {
  3991  003C1A  5040               	movf	_STATUS_Eng_A^0,w,c
  3992  003C1C  B4D8               	btfsc	status,2,c
  3993  003C1E  EF13  F01E         	goto	u6941
  3994  003C22  EF15  F01E         	goto	u6940
  3995  003C26                     u6941:
  3996  003C26  EF1E  F01E         	goto	l305
  3997  003C2A                     u6940:
  3998  003C2A                     
  3999                           ;mcc_generated_files/epwm2.c: 122:         LATAbits.LATA5 = 0;
  4000  003C2A  9A89               	bcf	137,5,c	;volatile
  4001  003C2C                     
  4002                           ;mcc_generated_files/epwm2.c: 123:         EPWM2_outputs_off();
  4003  003C2C  EC02  F01F         	call	_EPWM2_outputs_off	;wreg free
  4004                           
  4005                           ;mcc_generated_files/epwm2.c: 124:         TMR2_StopTimer();
  4006  003C30  EC00  F01F         	call	_TMR2_StopTimer	;wreg free
  4007  003C34                     
  4008                           ;mcc_generated_files/epwm2.c: 125:         STATUS_Eng_A.status = 0;
  4009  003C34  0E00               	movlw	0
  4010  003C36  6E40               	movwf	_STATUS_Eng_A^0,c
  4011  003C38                     
  4012                           ;mcc_generated_files/epwm2.c: 126:         STATUS_Eng_A.turn = 0x00;
  4013  003C38  0E00               	movlw	0
  4014  003C3A  6E41               	movwf	(_STATUS_Eng_A+1)^0,c
  4015  003C3C                     l305:
  4016  003C3C  0012               	return		;funcret
  4017  003C3E                     __end_of_EPWM2_engine_off:
  4018                           	opt callstack 0
  4019                           
  4020 ;; *************** function _ADC_GetConversion *****************
  4021 ;; Defined at:
  4022 ;;		line 23 in file "mcc_generated_files/adc.c"
  4023 ;; Parameters:    Size  Location     Type
  4024 ;;  channel         1    wreg     unsigned char 
  4025 ;;  averaged        1   26[COMRAM] unsigned char 
  4026 ;; Auto vars:     Size  Location     Type
  4027 ;;  channel         1   30[COMRAM] unsigned char 
  4028 ;;  accum           2   31[COMRAM] unsigned short 
  4029 ;;  count           1   33[COMRAM] unsigned char 
  4030 ;; Return value:  Size  Location     Type
  4031 ;;                  2   26[COMRAM] unsigned short 
  4032 ;; Registers used:
  4033 ;;		wreg, status,2, status,0, cstack
  4034 ;; Tracked objects:
  4035 ;;		On entry : 0/0
  4036 ;;		On exit  : 0/0
  4037 ;;		Unchanged: 0/0
  4038 ;; Data sizes:     COMRAM   BANK0   BANK1   BANK2   BANK3   BANK4   BANK5   BANK6   BANK7   BANK8   BANK9  BANK10  BANK1
      +1  BANK12  BANK13  BANK14  BANK15
  4039 ;;      Params:         2       0       0       0       0       0       0       0       0       0       0       0       
      +0       0       0       0       0
  4040 ;;      Locals:         4       0       0       0       0       0       0       0       0       0       0       0       
      +0       0       0       0       0
  4041 ;;      Temps:          2       0       0       0       0       0       0       0       0       0       0       0       
      +0       0       0       0       0
  4042 ;;      Totals:         8       0       0       0       0       0       0       0       0       0       0       0       
      +0       0       0       0       0
  4043 ;;Total ram usage:        8 bytes
  4044 ;; Hardware stack levels used:    1
  4045 ;; Hardware stack levels required when called:    9
  4046 ;; This function calls:
  4047 ;;		___lwdiv
  4048 ;; This function is called by:
  4049 ;;		_init_App
  4050 ;;		_azi_lim_control
  4051 ;; This function uses a non-reentrant model
  4052 ;;
  4053                           
  4054                           	psect	text20
  4055  003446                     __ptext20:
  4056                           	opt callstack 0
  4057  003446                     _ADC_GetConversion:
  4058                           	opt callstack 20
  4059                           
  4060                           ;incstack = 0
  4061                           ;ADC_GetConversion@channel stored from wreg
  4062  003446  6E1F               	movwf	ADC_GetConversion@channel^0,c
  4063  003448                     
  4064                           ;mcc_generated_files/adc.c: 24:     uint16_t accum = 0;
  4065  003448  0E00               	movlw	0
  4066  00344A  6E21               	movwf	(ADC_GetConversion@accum+1)^0,c
  4067  00344C  0E00               	movlw	0
  4068  00344E  6E20               	movwf	ADC_GetConversion@accum^0,c
  4069                           
  4070                           ;mcc_generated_files/adc.c: 25:     uint8_t count = 0;
  4071  003450  0E00               	movlw	0
  4072  003452  6E22               	movwf	ADC_GetConversion@count^0,c
  4073  003454                     
  4074                           ;mcc_generated_files/adc.c: 26:     ADCON0bits.CHS = channel;
  4075  003454  C01F  F01D         	movff	ADC_GetConversion@channel,??_ADC_GetConversion
  4076  003458  461D               	rlncf	??_ADC_GetConversion^0,f,c
  4077  00345A  461D               	rlncf	??_ADC_GetConversion^0,f,c
  4078  00345C  50C2               	movf	194,w,c	;volatile
  4079  00345E  181D               	xorwf	??_ADC_GetConversion^0,w,c
  4080  003460  0B83               	andlw	-125
  4081  003462  181D               	xorwf	??_ADC_GetConversion^0,w,c
  4082  003464  6EC2               	movwf	194,c	;volatile
  4083  003466                     l7938:
  4084                           
  4085                           ;mcc_generated_files/adc.c: 28:         ADCON0bits.GO_nDONE = 1;
  4086  003466  82C2               	bsf	194,1,c	;volatile
  4087  003468                     l869:
  4088  003468  B2C2               	btfsc	194,1,c	;volatile
  4089  00346A  EF39  F01A         	goto	u7191
  4090  00346E  EF3B  F01A         	goto	u7190
  4091  003472                     u7191:
  4092  003472  EF34  F01A         	goto	l869
  4093  003476                     u7190:
  4094  003476                     
  4095                           ;mcc_generated_files/adc.c: 33:         accum += ((ADRESH << 8) + ADRESL);
  4096  003476  50C3               	movf	195,w,c	;volatile
  4097  003478  CFC4 F01D          	movff	4036,??_ADC_GetConversion	;volatile
  4098  00347C  6A1E               	clrf	(??_ADC_GetConversion+1)^0,c
  4099  00347E  C01D  F01E         	movff	??_ADC_GetConversion,??_ADC_GetConversion+1
  4100  003482  6A1D               	clrf	??_ADC_GetConversion^0,c
  4101  003484  261D               	addwf	??_ADC_GetConversion^0,f,c
  4102  003486  0E00               	movlw	0
  4103  003488  221E               	addwfc	(??_ADC_GetConversion+1)^0,f,c
  4104  00348A  501D               	movf	??_ADC_GetConversion^0,w,c
  4105  00348C  2620               	addwf	ADC_GetConversion@accum^0,f,c
  4106  00348E  501E               	movf	(??_ADC_GetConversion+1)^0,w,c
  4107  003490  2221               	addwfc	(ADC_GetConversion@accum+1)^0,f,c
  4108  003492                     
  4109                           ;mcc_generated_files/adc.c: 34:         count++;
  4110  003492  2A22               	incf	ADC_GetConversion@count^0,f,c
  4111                           
  4112                           ;mcc_generated_files/adc.c: 35:         _delay((unsigned long)((2)*(64000000/4000000.0))
      +                          );
  4113  003494  0E0A               	movlw	10
  4114  003496                     u7807:
  4115  003496  2EE8               	decfsz	wreg,f,c
  4116  003498  D7FE               	bra	u7807
  4117  00349A  D000               	nop2	
  4118  00349C                     
  4119                           ;mcc_generated_files/adc.c: 38:     } while (count < averaged);
  4120  00349C  501B               	movf	ADC_GetConversion@averaged^0,w,c
  4121  00349E  5C22               	subwf	ADC_GetConversion@count^0,w,c
  4122  0034A0  A0D8               	btfss	status,0,c
  4123  0034A2  EF55  F01A         	goto	u7201
  4124  0034A6  EF57  F01A         	goto	u7200
  4125  0034AA                     u7201:
  4126  0034AA  EF33  F01A         	goto	l7938
  4127  0034AE                     u7200:
  4128  0034AE                     
  4129                           ;mcc_generated_files/adc.c: 39:     return (accum / averaged);
  4130  0034AE  C020  F014         	movff	ADC_GetConversion@accum,___lwdiv@dividend
  4131  0034B2  C021  F015         	movff	ADC_GetConversion@accum+1,___lwdiv@dividend+1
  4132  0034B6  C01B  F016         	movff	ADC_GetConversion@averaged,___lwdiv@divisor
  4133  0034BA  6A17               	clrf	(___lwdiv@divisor+1)^0,c
  4134  0034BC  ECD8  F01B         	call	___lwdiv	;wreg free
  4135  0034C0  C014  F01B         	movff	?___lwdiv,?_ADC_GetConversion
  4136  0034C4  C015  F01C         	movff	?___lwdiv+1,?_ADC_GetConversion+1
  4137  0034C8  0012               	return		;funcret
  4138  0034CA                     __end_of_ADC_GetConversion:
  4139                           	opt callstack 0
  4140                           
  4141 ;; *************** function ___lwdiv *****************
  4142 ;; Defined at:
  4143 ;;		line 7 in file "C:\Program Files (x86)\Microchip\xc8\v2.10\pic\sources\c99\common\lwdiv.c"
  4144 ;; Parameters:    Size  Location     Type
  4145 ;;  dividend        2   19[COMRAM] unsigned int 
  4146 ;;  divisor         2   21[COMRAM] unsigned int 
  4147 ;; Auto vars:     Size  Location     Type
  4148 ;;  quotient        2   24[COMRAM] unsigned int 
  4149 ;;  counter         1   23[COMRAM] unsigned char 
  4150 ;; Return value:  Size  Location     Type
  4151 ;;                  2   19[COMRAM] unsigned int 
  4152 ;; Registers used:
  4153 ;;		wreg, status,2, status,0
  4154 ;; Tracked objects:
  4155 ;;		On entry : 0/0
  4156 ;;		On exit  : 0/0
  4157 ;;		Unchanged: 0/0
  4158 ;; Data sizes:     COMRAM   BANK0   BANK1   BANK2   BANK3   BANK4   BANK5   BANK6   BANK7   BANK8   BANK9  BANK10  BANK1
      +1  BANK12  BANK13  BANK14  BANK15
  4159 ;;      Params:         4       0       0       0       0       0       0       0       0       0       0       0       
      +0       0       0       0       0
  4160 ;;      Locals:         3       0       0       0       0       0       0       0       0       0       0       0       
      +0       0       0       0       0
  4161 ;;      Temps:          0       0       0       0       0       0       0       0       0       0       0       0       
      +0       0       0       0       0
  4162 ;;      Totals:         7       0       0       0       0       0       0       0       0       0       0       0       
      +0       0       0       0       0
  4163 ;;Total ram usage:        7 bytes
  4164 ;; Hardware stack levels used:    1
  4165 ;; Hardware stack levels required when called:    8
  4166 ;; This function calls:
  4167 ;;		Nothing
  4168 ;; This function is called by:
  4169 ;;		_ADC_GetConversion
  4170 ;; This function uses a non-reentrant model
  4171 ;;
  4172                           
  4173                           	psect	text21
  4174  0037B0                     __ptext21:
  4175                           	opt callstack 0
  4176  0037B0                     ___lwdiv:
  4177                           	opt callstack 20
  4178  0037B0  0E00               	movlw	0
  4179  0037B2  6E1A               	movwf	(___lwdiv@quotient+1)^0,c
  4180  0037B4  0E00               	movlw	0
  4181  0037B6  6E19               	movwf	___lwdiv@quotient^0,c
  4182  0037B8  5016               	movf	___lwdiv@divisor^0,w,c
  4183  0037BA  1017               	iorwf	(___lwdiv@divisor+1)^0,w,c
  4184  0037BC  B4D8               	btfsc	status,2,c
  4185  0037BE  EFE3  F01B         	goto	u7141
  4186  0037C2  EFE5  F01B         	goto	u7140
  4187  0037C6                     u7141:
  4188  0037C6  EF0D  F01C         	goto	l1752
  4189  0037CA                     u7140:
  4190  0037CA  0E01               	movlw	1
  4191  0037CC  6E18               	movwf	___lwdiv@counter^0,c
  4192  0037CE  EFED  F01B         	goto	l7804
  4193  0037D2                     l7802:
  4194  0037D2  90D8               	bcf	status,0,c
  4195  0037D4  3616               	rlcf	___lwdiv@divisor^0,f,c
  4196  0037D6  3617               	rlcf	(___lwdiv@divisor+1)^0,f,c
  4197  0037D8  2A18               	incf	___lwdiv@counter^0,f,c
  4198  0037DA                     l7804:
  4199  0037DA  AE17               	btfss	(___lwdiv@divisor+1)^0,7,c
  4200  0037DC  EFF2  F01B         	goto	u7151
  4201  0037E0  EFF4  F01B         	goto	u7150
  4202  0037E4                     u7151:
  4203  0037E4  EFE9  F01B         	goto	l7802
  4204  0037E8                     u7150:
  4205  0037E8                     l7806:
  4206  0037E8  90D8               	bcf	status,0,c
  4207  0037EA  3619               	rlcf	___lwdiv@quotient^0,f,c
  4208  0037EC  361A               	rlcf	(___lwdiv@quotient+1)^0,f,c
  4209  0037EE  5016               	movf	___lwdiv@divisor^0,w,c
  4210  0037F0  5C14               	subwf	___lwdiv@dividend^0,w,c
  4211  0037F2  5017               	movf	(___lwdiv@divisor+1)^0,w,c
  4212  0037F4  5815               	subwfb	(___lwdiv@dividend+1)^0,w,c
  4213  0037F6  A0D8               	btfss	status,0,c
  4214  0037F8  EF00  F01C         	goto	u7161
  4215  0037FC  EF02  F01C         	goto	u7160
  4216  003800                     u7161:
  4217  003800  EF07  F01C         	goto	l7814
  4218  003804                     u7160:
  4219  003804  5016               	movf	___lwdiv@divisor^0,w,c
  4220  003806  5E14               	subwf	___lwdiv@dividend^0,f,c
  4221  003808  5017               	movf	(___lwdiv@divisor+1)^0,w,c
  4222  00380A  5A15               	subwfb	(___lwdiv@dividend+1)^0,f,c
  4223  00380C  8019               	bsf	___lwdiv@quotient^0,0,c
  4224  00380E                     l7814:
  4225  00380E  90D8               	bcf	status,0,c
  4226  003810  3217               	rrcf	(___lwdiv@divisor+1)^0,f,c
  4227  003812  3216               	rrcf	___lwdiv@divisor^0,f,c
  4228  003814  2E18               	decfsz	___lwdiv@counter^0,f,c
  4229  003816  EFF4  F01B         	goto	l7806
  4230  00381A                     l1752:
  4231  00381A  C019  F014         	movff	___lwdiv@quotient,?___lwdiv
  4232  00381E  C01A  F015         	movff	___lwdiv@quotient+1,?___lwdiv+1
  4233  003822  0012               	return		;funcret
  4234  003824                     __end_of___lwdiv:
  4235                           	opt callstack 0
  4236                           
  4237 ;; *************** function _SYSTEM_Initialize *****************
  4238 ;; Defined at:
  4239 ;;		line 11 in file "mcc_generated_files/mcc.c"
  4240 ;; Parameters:    Size  Location     Type
  4241 ;;		None
  4242 ;; Auto vars:     Size  Location     Type
  4243 ;;		None
  4244 ;; Return value:  Size  Location     Type
  4245 ;;                  1    wreg      void 
  4246 ;; Registers used:
  4247 ;;		wreg, fsr2l, fsr2h, status,2, status,0, prodl, prodh, cstack
  4248 ;; Tracked objects:
  4249 ;;		On entry : 0/0
  4250 ;;		On exit  : 0/0
  4251 ;;		Unchanged: 0/0
  4252 ;; Data sizes:     COMRAM   BANK0   BANK1   BANK2   BANK3   BANK4   BANK5   BANK6   BANK7   BANK8   BANK9  BANK10  BANK1
      +1  BANK12  BANK13  BANK14  BANK15
  4253 ;;      Params:         0       0       0       0       0       0       0       0       0       0       0       0       
      +0       0       0       0       0
  4254 ;;      Locals:         0       0       0       0       0       0       0       0       0       0       0       0       
      +0       0       0       0       0
  4255 ;;      Temps:          0       0       0       0       0       0       0       0       0       0       0       0       
      +0       0       0       0       0
  4256 ;;      Totals:         0       0       0       0       0       0       0       0       0       0       0       0       
      +0       0       0       0       0
  4257 ;;Total ram usage:        0 bytes
  4258 ;; Hardware stack levels used:    1
  4259 ;; Hardware stack levels required when called:   16
  4260 ;; This function calls:
  4261 ;;		_ADC_Initialize
  4262 ;;		_EPWM2_Initialize
  4263 ;;		_EPWM3_Initialize
  4264 ;;		_EUSART1_Initialize
  4265 ;;		_INTERRUPT_Initialize
  4266 ;;		_OSCILLATOR_Initialize
  4267 ;;		_PIN_MANAGER_Initialize
  4268 ;;		_TMR0_Initialize
  4269 ;;		_i2c2_init
  4270 ;;		_i2c_BH1750_init
  4271 ;; This function is called by:
  4272 ;;		_main
  4273 ;; This function uses a non-reentrant model
  4274 ;;
  4275                           
  4276                           	psect	text22
  4277  003B1E                     __ptext22:
  4278                           	opt callstack 0
  4279  003B1E                     _SYSTEM_Initialize:
  4280                           	opt callstack 14
  4281  003B1E                     
  4282                           ;mcc_generated_files/mcc.c: 12:     OSCILLATOR_Initialize();
  4283  003B1E  EC6A  F01E         	call	_OSCILLATOR_Initialize	;wreg free
  4284                           
  4285                           ;mcc_generated_files/mcc.c: 13:     PIN_MANAGER_Initialize();
  4286  003B22  ECD2  F01C         	call	_PIN_MANAGER_Initialize	;wreg free
  4287                           
  4288                           ;mcc_generated_files/mcc.c: 14:     INTERRUPT_Initialize();
  4289  003B26  EC96  F01E         	call	_INTERRUPT_Initialize	;wreg free
  4290  003B2A                     
  4291                           ;mcc_generated_files/mcc.c: 15:     EPWM2_Initialize(10);
  4292  003B2A  0E0A               	movlw	10
  4293  003B2C  ECDC  F019         	call	_EPWM2_Initialize
  4294  003B30                     
  4295                           ;mcc_generated_files/mcc.c: 16:     EPWM3_Initialize(10);
  4296  003B30  0E0A               	movlw	10
  4297  003B32  EC91  F019         	call	_EPWM3_Initialize
  4298  003B36                     
  4299                           ;mcc_generated_files/mcc.c: 17:     ADC_Initialize();
  4300  003B36  EC1F  F01E         	call	_ADC_Initialize	;wreg free
  4301  003B3A                     
  4302                           ;mcc_generated_files/mcc.c: 19:     TMR0_Initialize(25);
  4303  003B3A  0E19               	movlw	25
  4304  003B3C  EC5C  F01E         	call	_TMR0_Initialize
  4305  003B40                     
  4306                           ;mcc_generated_files/mcc.c: 22:     i2c2_init();
  4307  003B40  EC4E  F01E         	call	_i2c2_init	;wreg free
  4308  003B44                     
  4309                           ;mcc_generated_files/mcc.c: 23:     i2c_BH1750_init();
  4310  003B44  EC57  F01D         	call	_i2c_BH1750_init	;wreg free
  4311  003B48                     
  4312                           ;mcc_generated_files/mcc.c: 24:     EUSART1_Initialize();
  4313  003B48  ECA6  F01A         	call	_EUSART1_Initialize	;wreg free
  4314  003B4C  0012               	return		;funcret
  4315  003B4E                     __end_of_SYSTEM_Initialize:
  4316                           	opt callstack 0
  4317                           
  4318 ;; *************** function _i2c_BH1750_init *****************
  4319 ;; Defined at:
  4320 ;;		line 11 in file "mcc_generated_files/Light_sensor_I2C.c"
  4321 ;; Parameters:    Size  Location     Type
  4322 ;;		None
  4323 ;; Auto vars:     Size  Location     Type
  4324 ;;		None
  4325 ;; Return value:  Size  Location     Type
  4326 ;;                  1    wreg      void 
  4327 ;; Registers used:
  4328 ;;		wreg, fsr2l, fsr2h, status,2, status,0, cstack
  4329 ;; Tracked objects:
  4330 ;;		On entry : 0/0
  4331 ;;		On exit  : 0/0
  4332 ;;		Unchanged: 0/0
  4333 ;; Data sizes:     COMRAM   BANK0   BANK1   BANK2   BANK3   BANK4   BANK5   BANK6   BANK7   BANK8   BANK9  BANK10  BANK1
      +1  BANK12  BANK13  BANK14  BANK15
  4334 ;;      Params:         0       0       0       0       0       0       0       0       0       0       0       0       
      +0       0       0       0       0
  4335 ;;      Locals:         0       0       0       0       0       0       0       0       0       0       0       0       
      +0       0       0       0       0
  4336 ;;      Temps:          0       0       0       0       0       0       0       0       0       0       0       0       
      +0       0       0       0       0
  4337 ;;      Totals:         0       0       0       0       0       0       0       0       0       0       0       0       
      +0       0       0       0       0
  4338 ;;Total ram usage:        0 bytes
  4339 ;; Hardware stack levels used:    1
  4340 ;; Hardware stack levels required when called:   15
  4341 ;; This function calls:
  4342 ;;		_BH1750_measure
  4343 ;; This function is called by:
  4344 ;;		_SYSTEM_Initialize
  4345 ;; This function uses a non-reentrant model
  4346 ;;
  4347                           
  4348                           	psect	text23
  4349  003AAE                     __ptext23:
  4350                           	opt callstack 0
  4351  003AAE                     _i2c_BH1750_init:
  4352                           	opt callstack 14
  4353  003AAE                     
  4354                           ;mcc_generated_files/Light_sensor_I2C.c: 12:     i2c_Error.i2c_count_error = 0;
  4355  003AAE  0E00               	movlw	0
  4356  003AB0  0100               	movlb	0	; () banked
  4357  003AB2  6FA0               	movwf	(_i2c_Error+2)& (0+255),b
  4358  003AB4                     
  4359                           ; BSR set to: 0
  4360                           ;mcc_generated_files/Light_sensor_I2C.c: 14:     TRISD &= 0xF3;
  4361  003AB4  0EF3               	movlw	243
  4362  003AB6  1695               	andwf	149,f,c	;volatile
  4363  003AB8                     
  4364                           ; BSR set to: 0
  4365                           ;mcc_generated_files/Light_sensor_I2C.c: 15:     BH1750_measure(1, 1);
  4366  003AB8  0E01               	movlw	1
  4367  003ABA  6FE0               	movwf	BH1750_measure@average& (0+255),b
  4368  003ABC  0E01               	movlw	1
  4369  003ABE  EC0E  F012         	call	_BH1750_measure
  4370  003AC2                     
  4371                           ;mcc_generated_files/Light_sensor_I2C.c: 16:     BH1750_measure(2, 1);
  4372  003AC2  0E01               	movlw	1
  4373  003AC4  0100               	movlb	0	; () banked
  4374  003AC6  6FE0               	movwf	BH1750_measure@average& (0+255),b
  4375  003AC8  0E02               	movlw	2
  4376  003ACA  EC0E  F012         	call	_BH1750_measure
  4377  003ACE                     
  4378                           ;mcc_generated_files/Light_sensor_I2C.c: 17:     BH1750_measure(3, 1);
  4379  003ACE  0E01               	movlw	1
  4380  003AD0  0100               	movlb	0	; () banked
  4381  003AD2  6FE0               	movwf	BH1750_measure@average& (0+255),b
  4382  003AD4  0E03               	movlw	3
  4383  003AD6  EC0E  F012         	call	_BH1750_measure
  4384  003ADA                     
  4385                           ;mcc_generated_files/Light_sensor_I2C.c: 18:     BH1750_measure(4, 1);
  4386  003ADA  0E01               	movlw	1
  4387  003ADC  0100               	movlb	0	; () banked
  4388  003ADE  6FE0               	movwf	BH1750_measure@average& (0+255),b
  4389  003AE0  0E04               	movlw	4
  4390  003AE2  EC0E  F012         	call	_BH1750_measure
  4391  003AE6  0012               	return		;funcret
  4392  003AE8                     __end_of_i2c_BH1750_init:
  4393                           	opt callstack 0
  4394                           
  4395 ;; *************** function _BH1750_measure *****************
  4396 ;; Defined at:
  4397 ;;		line 55 in file "mcc_generated_files/Light_sensor_I2C.c"
  4398 ;; Parameters:    Size  Location     Type
  4399 ;;  channel         1    wreg     unsigned char 
  4400 ;;  average         1   28[BANK0 ] unsigned char 
  4401 ;; Auto vars:     Size  Location     Type
  4402 ;;  channel         1   39[BANK0 ] unsigned char 
  4403 ;;  acum            4   32[BANK0 ] unsigned long 
  4404 ;;  Data_lux        2   36[BANK0 ] unsigned short 
  4405 ;;  i               1   38[BANK0 ] unsigned char 
  4406 ;; Return value:  Size  Location     Type
  4407 ;;                  2   28[BANK0 ] unsigned short 
  4408 ;; Registers used:
  4409 ;;		wreg, fsr2l, fsr2h, status,2, status,0, cstack
  4410 ;; Tracked objects:
  4411 ;;		On entry : 0/0
  4412 ;;		On exit  : 0/0
  4413 ;;		Unchanged: 0/0
  4414 ;; Data sizes:     COMRAM   BANK0   BANK1   BANK2   BANK3   BANK4   BANK5   BANK6   BANK7   BANK8   BANK9  BANK10  BANK1
      +1  BANK12  BANK13  BANK14  BANK15
  4415 ;;      Params:         0       2       0       0       0       0       0       0       0       0       0       0       
      +0       0       0       0       0
  4416 ;;      Locals:         0       8       0       0       0       0       0       0       0       0       0       0       
      +0       0       0       0       0
  4417 ;;      Temps:          0       2       0       0       0       0       0       0       0       0       0       0       
      +0       0       0       0       0
  4418 ;;      Totals:         0      12       0       0       0       0       0       0       0       0       0       0       
      +0       0       0       0       0
  4419 ;;Total ram usage:       12 bytes
  4420 ;; Hardware stack levels used:    1
  4421 ;; Hardware stack levels required when called:   14
  4422 ;; This function calls:
  4423 ;;		_BH1750_Data_Read
  4424 ;;		___lldiv
  4425 ;;		_i2c_BH1750_open
  4426 ;; This function is called by:
  4427 ;;		_i2c_BH1750_init
  4428 ;;		_main
  4429 ;; This function uses a non-reentrant model
  4430 ;;
  4431                           
  4432                           	psect	text24
  4433  00241C                     __ptext24:
  4434                           	opt callstack 0
  4435  00241C                     _BH1750_measure:
  4436                           	opt callstack 14
  4437                           
  4438                           ;incstack = 0
  4439                           ;BH1750_measure@channel stored from wreg
  4440  00241C  0100               	movlb	0	; () banked
  4441  00241E  6FEB               	movwf	BH1750_measure@channel& (0+255),b
  4442  002420                     
  4443                           ;mcc_generated_files/Light_sensor_I2C.c: 56:     uint8_t i = 0;
  4444  002420  0E00               	movlw	0
  4445  002422  0100               	movlb	0	; () banked
  4446  002424  6FEA               	movwf	BH1750_measure@i& (0+255),b
  4447                           
  4448                           ;mcc_generated_files/Light_sensor_I2C.c: 58:     uint32_t acum = 0;
  4449  002426  0E00               	movlw	0
  4450  002428  6FE4               	movwf	BH1750_measure@acum& (0+255),b
  4451  00242A  0E00               	movlw	0
  4452  00242C  6FE5               	movwf	(BH1750_measure@acum+1)& (0+255),b
  4453  00242E  0E00               	movlw	0
  4454  002430  6FE6               	movwf	(BH1750_measure@acum+2)& (0+255),b
  4455  002432  0E00               	movlw	0
  4456  002434  6FE7               	movwf	(BH1750_measure@acum+3)& (0+255),b
  4457  002436  EF33  F012         	goto	l7754
  4458  00243A                     l7748:
  4459                           
  4460                           ; BSR set to: 0
  4461                           ;mcc_generated_files/Light_sensor_I2C.c: 61:             if (i2c_BH1750_open(channel) ==
      +                           1)
  4462  00243A  51EB               	movf	BH1750_measure@channel& (0+255),w,b
  4463  00243C  EC46  F019         	call	_i2c_BH1750_open
  4464  002440  06E8               	decf	wreg,f,c
  4465  002442  A4D8               	btfss	status,2,c
  4466  002444  EF26  F012         	goto	u7091
  4467  002448  EF28  F012         	goto	u7090
  4468  00244C                     u7091:
  4469  00244C  EF2C  F012         	goto	l7752
  4470  002450                     u7090:
  4471  002450                     
  4472                           ;mcc_generated_files/Light_sensor_I2C.c: 62:                 i2c_Error.i2c_count_error++
      +                          ;
  4473  002450  0100               	movlb	0	; () banked
  4474  002452  2BA0               	incf	(_i2c_Error+2)& (0+255),f,b
  4475  002454  EF33  F012         	goto	l7754
  4476  002458                     l7752:
  4477                           
  4478                           ;mcc_generated_files/Light_sensor_I2C.c: 64:                 i2c_Error.I2C_state = 5;
  4479  002458  0E05               	movlw	5
  4480  00245A  0100               	movlb	0	; () banked
  4481  00245C  6F9E               	movwf	_i2c_Error& (0+255),b
  4482                           
  4483                           ;mcc_generated_files/Light_sensor_I2C.c: 65:                 i2c_Error.i2c_count_error =
      +                           0;
  4484  00245E  0E00               	movlw	0
  4485  002460  6FA0               	movwf	(_i2c_Error+2)& (0+255),b
  4486                           
  4487                           ;mcc_generated_files/Light_sensor_I2C.c: 66:                 break;
  4488  002462  EF3B  F012         	goto	l7756
  4489  002466                     l7754:
  4490                           
  4491                           ; BSR set to: 0
  4492                           ;mcc_generated_files/Light_sensor_I2C.c: 60:         while (i2c_Error.i2c_count_error < 
      +                          5) {
  4493  002466  0E04               	movlw	4
  4494  002468  65A0               	cpfsgt	(_i2c_Error+2)& (0+255),b
  4495  00246A  EF39  F012         	goto	u7101
  4496  00246E  EF3B  F012         	goto	u7100
  4497  002472                     u7101:
  4498  002472  EF1D  F012         	goto	l7748
  4499  002476                     u7100:
  4500  002476                     l7756:
  4501                           
  4502                           ; BSR set to: 0
  4503                           ;mcc_generated_files/Light_sensor_I2C.c: 69:         if (i2c_Error.i2c_count_error >= 5)
      +                           {
  4504  002476  0E04               	movlw	4
  4505  002478  65A0               	cpfsgt	(_i2c_Error+2)& (0+255),b
  4506  00247A  EF41  F012         	goto	u7111
  4507  00247E  EF43  F012         	goto	u7110
  4508  002482                     u7111:
  4509  002482  EF4F  F012         	goto	l7764
  4510  002486                     u7110:
  4511  002486                     
  4512                           ; BSR set to: 0
  4513                           ;mcc_generated_files/Light_sensor_I2C.c: 70:             i2c_Error.I2C_state = 1;
  4514  002486  0E01               	movlw	1
  4515  002488  6F9E               	movwf	_i2c_Error& (0+255),b
  4516  00248A                     
  4517                           ; BSR set to: 0
  4518                           ;mcc_generated_files/Light_sensor_I2C.c: 71:             i2c_Error.SENS_ERROR = channel;
  4519  00248A  C0EB  F09F         	movff	BH1750_measure@channel,_i2c_Error+1
  4520                           
  4521                           ;mcc_generated_files/Light_sensor_I2C.c: 72:             i2c_Error.i2c_count_error = 0;
  4522  00248E  0E00               	movlw	0
  4523  002490  6FA0               	movwf	(_i2c_Error+2)& (0+255),b
  4524                           
  4525                           ;mcc_generated_files/Light_sensor_I2C.c: 73:             return 0;
  4526  002492  0E00               	movlw	0
  4527  002494  6FE1               	movwf	(?_BH1750_measure+1)& (0+255),b
  4528  002496  0E00               	movlw	0
  4529  002498  6FE0               	movwf	?_BH1750_measure& (0+255),b
  4530  00249A  EFA2  F012         	goto	l918
  4531  00249E                     l7764:
  4532                           
  4533                           ; BSR set to: 0
  4534                           ;mcc_generated_files/Light_sensor_I2C.c: 75:         _delay((unsigned long)((20)*(640000
      +                          00/4000.0)));
  4535  00249E  0E02               	movlw	2
  4536  0024A0  0100               	movlb	0	; () banked
  4537  0024A2  6FE3               	movwf	(??_BH1750_measure+1)& (0+255),b
  4538  0024A4  0EA0               	movlw	160
  4539  0024A6  6FE2               	movwf	??_BH1750_measure& (0+255),b
  4540  0024A8  0E92               	movlw	146
  4541  0024AA                     u7817:
  4542  0024AA  2EE8               	decfsz	wreg,f,c
  4543  0024AC  D7FE               	bra	u7817
  4544  0024AE  2FE2               	decfsz	??_BH1750_measure& (0+255),f,b
  4545  0024B0  D7FC               	bra	u7817
  4546  0024B2  2FE3               	decfsz	(??_BH1750_measure+1)& (0+255),f,b
  4547  0024B4  D7FA               	bra	u7817
  4548  0024B6  F000               	nop	
  4549  0024B8                     
  4550                           ;mcc_generated_files/Light_sensor_I2C.c: 76:         Data_lux = BH1750_Data_Read(0x47);
  4551  0024B8  0E47               	movlw	71
  4552  0024BA  EC15  F017         	call	_BH1750_Data_Read
  4553  0024BE  C0D7  F0E8         	movff	?_BH1750_Data_Read,BH1750_measure@Data_lux
  4554  0024C2  C0D8  F0E9         	movff	?_BH1750_Data_Read+1,BH1750_measure@Data_lux+1
  4555  0024C6                     
  4556                           ;mcc_generated_files/Light_sensor_I2C.c: 77:         if (i2c_Error.Data_Read_error == 3)
      +                           {
  4557  0024C6  0E03               	movlw	3
  4558  0024C8  0100               	movlb	0	; () banked
  4559  0024CA  19A1               	xorwf	(_i2c_Error+3)& (0+255),w,b
  4560  0024CC  A4D8               	btfss	status,2,c
  4561  0024CE  EF6B  F012         	goto	u7121
  4562  0024D2  EF6D  F012         	goto	u7120
  4563  0024D6                     u7121:
  4564  0024D6  EF77  F012         	goto	l7778
  4565  0024DA                     u7120:
  4566  0024DA                     
  4567                           ; BSR set to: 0
  4568                           ;mcc_generated_files/Light_sensor_I2C.c: 78:             i2c_Error.I2C_state = 3;
  4569  0024DA  0E03               	movlw	3
  4570  0024DC  6F9E               	movwf	_i2c_Error& (0+255),b
  4571  0024DE                     
  4572                           ; BSR set to: 0
  4573                           ;mcc_generated_files/Light_sensor_I2C.c: 79:             i2c_Error.SENS_ERROR = channel;
  4574  0024DE  C0EB  F09F         	movff	BH1750_measure@channel,_i2c_Error+1
  4575                           
  4576                           ;mcc_generated_files/Light_sensor_I2C.c: 80:             return 0;
  4577  0024E2  0E00               	movlw	0
  4578  0024E4  6FE1               	movwf	(?_BH1750_measure+1)& (0+255),b
  4579  0024E6  0E00               	movlw	0
  4580  0024E8  6FE0               	movwf	?_BH1750_measure& (0+255),b
  4581  0024EA  EFA2  F012         	goto	l918
  4582  0024EE                     l7778:
  4583                           
  4584                           ; BSR set to: 0
  4585                           ;mcc_generated_files/Light_sensor_I2C.c: 82:             acum += Data_lux;
  4586  0024EE  51E8               	movf	BH1750_measure@Data_lux& (0+255),w,b
  4587  0024F0  27E4               	addwf	BH1750_measure@acum& (0+255),f,b
  4588  0024F2  51E9               	movf	(BH1750_measure@Data_lux+1)& (0+255),w,b
  4589  0024F4  23E5               	addwfc	(BH1750_measure@acum+1)& (0+255),f,b
  4590  0024F6  0E00               	movlw	0
  4591  0024F8  23E6               	addwfc	(BH1750_measure@acum+2)& (0+255),f,b
  4592  0024FA  0E00               	movlw	0
  4593  0024FC  23E7               	addwfc	(BH1750_measure@acum+3)& (0+255),f,b
  4594                           
  4595                           ;mcc_generated_files/Light_sensor_I2C.c: 83:             i++;
  4596  0024FE  2BEA               	incf	BH1750_measure@i& (0+255),f,b
  4597  002500                     
  4598                           ; BSR set to: 0
  4599                           ;mcc_generated_files/Light_sensor_I2C.c: 84:             i2c_Error.I2C_state = 7;
  4600  002500  0E07               	movlw	7
  4601  002502  6F9E               	movwf	_i2c_Error& (0+255),b
  4602  002504                     
  4603                           ; BSR set to: 0
  4604                           ;mcc_generated_files/Light_sensor_I2C.c: 86:     } while (i < average);
  4605  002504  51E0               	movf	BH1750_measure@average& (0+255),w,b
  4606  002506  5DEA               	subwf	BH1750_measure@i& (0+255),w,b
  4607  002508  A0D8               	btfss	status,0,c
  4608  00250A  EF89  F012         	goto	u7131
  4609  00250E  EF8B  F012         	goto	u7130
  4610  002512                     u7131:
  4611  002512  EF33  F012         	goto	l7754
  4612  002516                     u7130:
  4613  002516                     
  4614                           ; BSR set to: 0
  4615                           ;mcc_generated_files/Light_sensor_I2C.c: 87:     i2c_Error.I2C_state = 0;
  4616  002516  0E00               	movlw	0
  4617  002518  6F9E               	movwf	_i2c_Error& (0+255),b
  4618                           
  4619                           ;mcc_generated_files/Light_sensor_I2C.c: 88:     i2c_Error.SENS_ERROR = 0;
  4620  00251A  0E00               	movlw	0
  4621  00251C  6F9F               	movwf	(_i2c_Error+1)& (0+255),b
  4622  00251E                     
  4623                           ; BSR set to: 0
  4624                           ;mcc_generated_files/Light_sensor_I2C.c: 89:     return (uint16_t) (acum / average);
  4625  00251E  C0E4  F014         	movff	BH1750_measure@acum,___lldiv@dividend
  4626  002522  C0E5  F015         	movff	BH1750_measure@acum+1,___lldiv@dividend+1
  4627  002526  C0E6  F016         	movff	BH1750_measure@acum+2,___lldiv@dividend+2
  4628  00252A  C0E7  F017         	movff	BH1750_measure@acum+3,___lldiv@dividend+3
  4629  00252E  51E0               	movf	BH1750_measure@average& (0+255),w,b
  4630  002530  6E18               	movwf	___lldiv@divisor^0,c
  4631  002532  6A19               	clrf	(___lldiv@divisor+1)^0,c
  4632  002534  6A1A               	clrf	(___lldiv@divisor+2)^0,c
  4633  002536  6A1B               	clrf	(___lldiv@divisor+3)^0,c
  4634  002538  ECBE  F017         	call	___lldiv	;wreg free
  4635  00253C  C014  F0E0         	movff	?___lldiv,?_BH1750_measure
  4636  002540  C015  F0E1         	movff	?___lldiv+1,?_BH1750_measure+1
  4637  002544                     l918:
  4638  002544  0012               	return		;funcret
  4639  002546                     __end_of_BH1750_measure:
  4640                           	opt callstack 0
  4641                           
  4642 ;; *************** function _i2c_BH1750_open *****************
  4643 ;; Defined at:
  4644 ;;		line 22 in file "mcc_generated_files/Light_sensor_I2C.c"
  4645 ;; Parameters:    Size  Location     Type
  4646 ;;  channel         1    wreg     unsigned char 
  4647 ;; Auto vars:     Size  Location     Type
  4648 ;;  channel         1    4[BANK0 ] unsigned char 
  4649 ;; Return value:  Size  Location     Type
  4650 ;;                  1    wreg      unsigned char 
  4651 ;; Registers used:
  4652 ;;		wreg, status,2, status,0, cstack
  4653 ;; Tracked objects:
  4654 ;;		On entry : 0/0
  4655 ;;		On exit  : 0/0
  4656 ;;		Unchanged: 0/0
  4657 ;; Data sizes:     COMRAM   BANK0   BANK1   BANK2   BANK3   BANK4   BANK5   BANK6   BANK7   BANK8   BANK9  BANK10  BANK1
      +1  BANK12  BANK13  BANK14  BANK15
  4658 ;;      Params:         0       0       0       0       0       0       0       0       0       0       0       0       
      +0       0       0       0       0
  4659 ;;      Locals:         0       1       0       0       0       0       0       0       0       0       0       0       
      +0       0       0       0       0
  4660 ;;      Temps:          0       2       0       0       0       0       0       0       0       0       0       0       
      +0       0       0       0       0
  4661 ;;      Totals:         0       3       0       0       0       0       0       0       0       0       0       0       
      +0       0       0       0       0
  4662 ;;Total ram usage:        3 bytes
  4663 ;; Hardware stack levels used:    1
  4664 ;; Hardware stack levels required when called:   13
  4665 ;; This function calls:
  4666 ;;		_i2c2_Open
  4667 ;; This function is called by:
  4668 ;;		_BH1750_measure
  4669 ;; This function uses a non-reentrant model
  4670 ;;
  4671                           
  4672                           	psect	text25
  4673  00328C                     __ptext25:
  4674                           	opt callstack 0
  4675  00328C                     _i2c_BH1750_open:
  4676                           	opt callstack 14
  4677                           
  4678                           ;incstack = 0
  4679                           ;i2c_BH1750_open@channel stored from wreg
  4680  00328C  0100               	movlb	0	; () banked
  4681  00328E  6FC8               	movwf	i2c_BH1750_open@channel& (0+255),b
  4682  003290                     
  4683                           ;mcc_generated_files/Light_sensor_I2C.c: 23:     switch (channel) {
  4684  003290  EF61  F019         	goto	l7626
  4685  003294                     l7616:
  4686                           
  4687                           ; BSR set to: 0
  4688                           ;mcc_generated_files/Light_sensor_I2C.c: 25:             {LATD = ((PORTD & 0xF3) | (0x00
      +                          ));}
  4689  003294  5083               	movf	131,w,c	;volatile
  4690  003296  0BF3               	andlw	243
  4691  003298  6E8C               	movwf	140,c	;volatile
  4692                           
  4693                           ;mcc_generated_files/Light_sensor_I2C.c: 26:             break;
  4694  00329A  EF7F  F019         	goto	l7628
  4695  00329E                     l7618:
  4696                           
  4697                           ; BSR set to: 0
  4698                           ;mcc_generated_files/Light_sensor_I2C.c: 28:             {LATD = ((PORTD & 0xF3) | (0x0C
      +                          ));}
  4699  00329E  5083               	movf	131,w,c	;volatile
  4700  0032A0  0BF3               	andlw	243
  4701  0032A2  090C               	iorlw	12
  4702  0032A4  6E8C               	movwf	140,c	;volatile
  4703                           
  4704                           ;mcc_generated_files/Light_sensor_I2C.c: 29:             break;
  4705  0032A6  EF7F  F019         	goto	l7628
  4706  0032AA                     l7620:
  4707                           
  4708                           ; BSR set to: 0
  4709                           ;mcc_generated_files/Light_sensor_I2C.c: 31:             {LATD = ((PORTD & 0xF3) | (0x08
      +                          ));}
  4710  0032AA  5083               	movf	131,w,c	;volatile
  4711  0032AC  0BF3               	andlw	243
  4712  0032AE  0908               	iorlw	8
  4713  0032B0  6E8C               	movwf	140,c	;volatile
  4714                           
  4715                           ;mcc_generated_files/Light_sensor_I2C.c: 32:             break;
  4716  0032B2  EF7F  F019         	goto	l7628
  4717  0032B6                     l7622:
  4718                           
  4719                           ; BSR set to: 0
  4720                           ;mcc_generated_files/Light_sensor_I2C.c: 34:             {LATD = ((PORTD & 0xF3) | (0x04
      +                          ));}
  4721  0032B6  5083               	movf	131,w,c	;volatile
  4722  0032B8  0BF3               	andlw	243
  4723  0032BA  0904               	iorlw	4
  4724  0032BC  6E8C               	movwf	140,c	;volatile
  4725                           
  4726                           ;mcc_generated_files/Light_sensor_I2C.c: 35:             break;
  4727  0032BE  EF7F  F019         	goto	l7628
  4728  0032C2                     l7626:
  4729  0032C2  0100               	movlb	0	; () banked
  4730  0032C4  51C8               	movf	i2c_BH1750_open@channel& (0+255),w,b
  4731  0032C6  6FC6               	movwf	??_i2c_BH1750_open& (0+255),b
  4732  0032C8  6BC7               	clrf	(??_i2c_BH1750_open+1)& (0+255),b
  4733                           
  4734                           ; Switch on 2 bytes has been partitioned into a top level switch of size 1, and 1 sub-sw
      +                          itches
  4735                           ; Switch size 1, requested type "simple"
  4736                           ; Number of cases is 1, Range of values is 0 to 0
  4737                           ; switch strategies available:
  4738                           ; Name         Instructions Cycles
  4739                           ; simple_byte            4     3 (average)
  4740                           ;	Chosen strategy is simple_byte
  4741  0032CA  51C7               	movf	(??_i2c_BH1750_open+1)& (0+255),w,b
  4742  0032CC  0A00               	xorlw	0	; case 0
  4743  0032CE  B4D8               	btfsc	status,2,c
  4744  0032D0  EF6C  F019         	goto	l8566
  4745  0032D4  EF7F  F019         	goto	l7628
  4746  0032D8                     l8566:
  4747                           
  4748                           ; BSR set to: 0
  4749                           ; Switch size 1, requested type "simple"
  4750                           ; Number of cases is 4, Range of values is 1 to 4
  4751                           ; switch strategies available:
  4752                           ; Name         Instructions Cycles
  4753                           ; simple_byte           13     7 (average)
  4754                           ;	Chosen strategy is simple_byte
  4755  0032D8  51C6               	movf	??_i2c_BH1750_open& (0+255),w,b
  4756  0032DA  0A01               	xorlw	1	; case 1
  4757  0032DC  B4D8               	btfsc	status,2,c
  4758  0032DE  EF4A  F019         	goto	l7616
  4759  0032E2  0A03               	xorlw	3	; case 2
  4760  0032E4  B4D8               	btfsc	status,2,c
  4761  0032E6  EF4F  F019         	goto	l7618
  4762  0032EA  0A01               	xorlw	1	; case 3
  4763  0032EC  B4D8               	btfsc	status,2,c
  4764  0032EE  EF55  F019         	goto	l7620
  4765  0032F2  0A07               	xorlw	7	; case 4
  4766  0032F4  B4D8               	btfsc	status,2,c
  4767  0032F6  EF5B  F019         	goto	l7622
  4768  0032FA  EF7F  F019         	goto	l7628
  4769  0032FE                     l7628:
  4770                           
  4771                           ; BSR set to: 0
  4772                           ;mcc_generated_files/Light_sensor_I2C.c: 37:     if (i2c2_Open(0x46, 0x23) == 1) {
  4773  0032FE  0E23               	movlw	35
  4774  003300  6FC4               	movwf	i2c2_Open@address& (0+255),b
  4775  003302  0E46               	movlw	70
  4776  003304  EC6A  F017         	call	_i2c2_Open
  4777  003308  06E8               	decf	wreg,f,c
  4778  00330A  A4D8               	btfss	status,2,c
  4779  00330C  EF8A  F019         	goto	u6951
  4780  003310  EF8C  F019         	goto	u6950
  4781  003314                     u6951:
  4782  003314  EF8F  F019         	goto	l7636
  4783  003318                     u6950:
  4784  003318                     
  4785                           ;mcc_generated_files/Light_sensor_I2C.c: 38:         return 1;
  4786  003318  0E01               	movlw	1
  4787  00331A  EF90  F019         	goto	l902
  4788  00331E                     l7636:
  4789                           
  4790                           ;mcc_generated_files/Light_sensor_I2C.c: 40:         return 5;
  4791  00331E  0E05               	movlw	5
  4792  003320                     l902:
  4793  003320  0012               	return		;funcret
  4794  003322                     __end_of_i2c_BH1750_open:
  4795                           	opt callstack 0
  4796                           
  4797 ;; *************** function _i2c2_Open *****************
  4798 ;; Defined at:
  4799 ;;		line 24 in file "mcc_generated_files/i2c2_master.c"
  4800 ;; Parameters:    Size  Location     Type
  4801 ;;  slaveAddress    1    wreg     unsigned char 
  4802 ;;  address         1    0[BANK0 ] unsigned char 
  4803 ;; Auto vars:     Size  Location     Type
  4804 ;;  slaveAddress    1    1[BANK0 ] unsigned char 
  4805 ;; Return value:  Size  Location     Type
  4806 ;;                  1    wreg      unsigned char 
  4807 ;; Registers used:
  4808 ;;		wreg, status,2, status,0, cstack
  4809 ;; Tracked objects:
  4810 ;;		On entry : 0/0
  4811 ;;		On exit  : 0/0
  4812 ;;		Unchanged: 0/0
  4813 ;; Data sizes:     COMRAM   BANK0   BANK1   BANK2   BANK3   BANK4   BANK5   BANK6   BANK7   BANK8   BANK9  BANK10  BANK1
      +1  BANK12  BANK13  BANK14  BANK15
  4814 ;;      Params:         0       1       0       0       0       0       0       0       0       0       0       0       
      +0       0       0       0       0
  4815 ;;      Locals:         0       1       0       0       0       0       0       0       0       0       0       0       
      +0       0       0       0       0
  4816 ;;      Temps:          0       0       0       0       0       0       0       0       0       0       0       0       
      +0       0       0       0       0
  4817 ;;      Totals:         0       2       0       0       0       0       0       0       0       0       0       0       
      +0       0       0       0       0
  4818 ;;Total ram usage:        2 bytes
  4819 ;; Hardware stack levels used:    1
  4820 ;; Hardware stack levels required when called:   12
  4821 ;; This function calls:
  4822 ;;		_i2c2_control
  4823 ;;		_i2c2_init
  4824 ;; This function is called by:
  4825 ;;		_i2c_BH1750_open
  4826 ;; This function uses a non-reentrant model
  4827 ;;
  4828                           
  4829                           	psect	text26
  4830  002ED4                     __ptext26:
  4831                           	opt callstack 0
  4832  002ED4                     _i2c2_Open:
  4833                           	opt callstack 14
  4834                           
  4835                           ;incstack = 0
  4836                           ;i2c2_Open@slaveAddress stored from wreg
  4837  002ED4  0100               	movlb	0	; () banked
  4838  002ED6  6FC5               	movwf	i2c2_Open@slaveAddress& (0+255),b
  4839  002ED8                     
  4840                           ;mcc_generated_files/i2c2_master.c: 25:     if (i2c2_control(0) == 0) {
  4841  002ED8  0E00               	movlw	0
  4842  002EDA  EC2B  F015         	call	_i2c2_control
  4843  002EDE  0900               	iorlw	0
  4844  002EE0  A4D8               	btfss	status,2,c
  4845  002EE2  EF75  F017         	goto	u6461
  4846  002EE6  EF77  F017         	goto	u6460
  4847  002EEA                     u6461:
  4848  002EEA  EF7C  F017         	goto	l371
  4849  002EEE                     u6460:
  4850  002EEE                     l7260:
  4851                           
  4852                           ;mcc_generated_files/i2c2_master.c: 26:         i2c2_init();
  4853  002EEE  EC4E  F01E         	call	_i2c2_init	;wreg free
  4854  002EF2                     
  4855                           ;mcc_generated_files/i2c2_master.c: 27:         return 1;
  4856  002EF2  0E01               	movlw	1
  4857  002EF4  EFBD  F017         	goto	l372
  4858  002EF8                     l371:
  4859                           
  4860                           ;mcc_generated_files/i2c2_master.c: 29:     {SSP2CON2bits.SEN = 1; while(SSP2CON2bits.SE
      +                          N);}
  4861  002EF8  806B               	bsf	107,0,c	;volatile
  4862  002EFA                     l373:
  4863  002EFA  B06B               	btfsc	107,0,c	;volatile
  4864  002EFC  EF82  F017         	goto	u6471
  4865  002F00  EF84  F017         	goto	u6470
  4866  002F04                     u6471:
  4867  002F04  EF7D  F017         	goto	l373
  4868  002F08                     u6470:
  4869  002F08                     
  4870                           ;mcc_generated_files/i2c2_master.c: 30:     SSP2BUF = slaveAddress;
  4871  002F08  C0C5  FF6F         	movff	i2c2_Open@slaveAddress,3951	;volatile
  4872  002F0C                     
  4873                           ;mcc_generated_files/i2c2_master.c: 31:     if (i2c2_control(0) == 0) {
  4874  002F0C  0E00               	movlw	0
  4875  002F0E  EC2B  F015         	call	_i2c2_control
  4876  002F12  0900               	iorlw	0
  4877  002F14  A4D8               	btfss	status,2,c
  4878  002F16  EF8F  F017         	goto	u6481
  4879  002F1A  EF91  F017         	goto	u6480
  4880  002F1E                     u6481:
  4881  002F1E  EF93  F017         	goto	l7274
  4882  002F22                     u6480:
  4883  002F22  EF77  F017         	goto	l7260
  4884  002F26                     l7274:
  4885                           
  4886                           ;mcc_generated_files/i2c2_master.c: 35:     if (i2c2_control(1) == 0) {
  4887  002F26  0E01               	movlw	1
  4888  002F28  EC2B  F015         	call	_i2c2_control
  4889  002F2C  0900               	iorlw	0
  4890  002F2E  A4D8               	btfss	status,2,c
  4891  002F30  EF9C  F017         	goto	u6491
  4892  002F34  EF9E  F017         	goto	u6490
  4893  002F38                     u6491:
  4894  002F38  EFA0  F017         	goto	l377
  4895  002F3C                     u6490:
  4896  002F3C  EF77  F017         	goto	l7260
  4897  002F40                     l377:
  4898                           
  4899                           ;mcc_generated_files/i2c2_master.c: 39:     SSP2BUF = address;
  4900  002F40  C0C4  FF6F         	movff	i2c2_Open@address,3951	;volatile
  4901  002F44                     
  4902                           ;mcc_generated_files/i2c2_master.c: 40:     if (i2c2_control(0) == 0) {
  4903  002F44  0E00               	movlw	0
  4904  002F46  EC2B  F015         	call	_i2c2_control
  4905  002F4A  0900               	iorlw	0
  4906  002F4C  A4D8               	btfss	status,2,c
  4907  002F4E  EFAB  F017         	goto	u6501
  4908  002F52  EFAD  F017         	goto	u6500
  4909  002F56                     u6501:
  4910  002F56  EFAF  F017         	goto	l7290
  4911  002F5A                     u6500:
  4912  002F5A  EF77  F017         	goto	l7260
  4913  002F5E                     l7290:
  4914                           
  4915                           ;mcc_generated_files/i2c2_master.c: 44:     if (i2c2_control(1) == 0) {
  4916  002F5E  0E01               	movlw	1
  4917  002F60  EC2B  F015         	call	_i2c2_control
  4918  002F64  0900               	iorlw	0
  4919  002F66  A4D8               	btfss	status,2,c
  4920  002F68  EFB8  F017         	goto	u6511
  4921  002F6C  EFBA  F017         	goto	u6510
  4922  002F70                     u6511:
  4923  002F70  EFBC  F017         	goto	l7298
  4924  002F74                     u6510:
  4925  002F74  EF77  F017         	goto	l7260
  4926  002F78                     l7298:
  4927                           
  4928                           ;mcc_generated_files/i2c2_master.c: 48:     return 5;
  4929  002F78  0E05               	movlw	5
  4930  002F7A                     l372:
  4931  002F7A  0012               	return		;funcret
  4932  002F7C                     __end_of_i2c2_Open:
  4933                           	opt callstack 0
  4934                           
  4935 ;; *************** function ___lldiv *****************
  4936 ;; Defined at:
  4937 ;;		line 7 in file "C:\Program Files (x86)\Microchip\xc8\v2.10\pic\sources\c99\common\__lldiv.c"
  4938 ;; Parameters:    Size  Location     Type
  4939 ;;  dividend        4   19[COMRAM] unsigned long 
  4940 ;;  divisor         4   23[COMRAM] unsigned long 
  4941 ;; Auto vars:     Size  Location     Type
  4942 ;;  quotient        4   27[COMRAM] unsigned long 
  4943 ;;  counter         1   31[COMRAM] unsigned char 
  4944 ;; Return value:  Size  Location     Type
  4945 ;;                  4   19[COMRAM] unsigned long 
  4946 ;; Registers used:
  4947 ;;		wreg, status,2, status,0
  4948 ;; Tracked objects:
  4949 ;;		On entry : 0/0
  4950 ;;		On exit  : 0/0
  4951 ;;		Unchanged: 0/0
  4952 ;; Data sizes:     COMRAM   BANK0   BANK1   BANK2   BANK3   BANK4   BANK5   BANK6   BANK7   BANK8   BANK9  BANK10  BANK1
      +1  BANK12  BANK13  BANK14  BANK15
  4953 ;;      Params:         8       0       0       0       0       0       0       0       0       0       0       0       
      +0       0       0       0       0
  4954 ;;      Locals:         5       0       0       0       0       0       0       0       0       0       0       0       
      +0       0       0       0       0
  4955 ;;      Temps:          0       0       0       0       0       0       0       0       0       0       0       0       
      +0       0       0       0       0
  4956 ;;      Totals:        13       0       0       0       0       0       0       0       0       0       0       0       
      +0       0       0       0       0
  4957 ;;Total ram usage:       13 bytes
  4958 ;; Hardware stack levels used:    1
  4959 ;; Hardware stack levels required when called:    8
  4960 ;; This function calls:
  4961 ;;		Nothing
  4962 ;; This function is called by:
  4963 ;;		_BH1750_measure
  4964 ;; This function uses a non-reentrant model
  4965 ;;
  4966                           
  4967                           	psect	text27
  4968  002F7C                     __ptext27:
  4969                           	opt callstack 0
  4970  002F7C                     ___lldiv:
  4971                           	opt callstack 19
  4972  002F7C  0E00               	movlw	0
  4973  002F7E  6E1C               	movwf	___lldiv@quotient^0,c
  4974  002F80  0E00               	movlw	0
  4975  002F82  6E1D               	movwf	(___lldiv@quotient+1)^0,c
  4976  002F84  0E00               	movlw	0
  4977  002F86  6E1E               	movwf	(___lldiv@quotient+2)^0,c
  4978  002F88  0E00               	movlw	0
  4979  002F8A  6E1F               	movwf	(___lldiv@quotient+3)^0,c
  4980  002F8C  5018               	movf	___lldiv@divisor^0,w,c
  4981  002F8E  1019               	iorwf	(___lldiv@divisor+1)^0,w,c
  4982  002F90  101A               	iorwf	(___lldiv@divisor+2)^0,w,c
  4983  002F92  101B               	iorwf	(___lldiv@divisor+3)^0,w,c
  4984  002F94  B4D8               	btfsc	status,2,c
  4985  002F96  EFCF  F017         	goto	u4231
  4986  002F9A  EFD1  F017         	goto	u4230
  4987  002F9E                     u4231:
  4988  002F9E  EF07  F018         	goto	l1288
  4989  002FA2                     u4230:
  4990  002FA2  0E01               	movlw	1
  4991  002FA4  6E20               	movwf	___lldiv@counter^0,c
  4992  002FA6  EFDB  F017         	goto	l5346
  4993  002FAA                     l5344:
  4994  002FAA  90D8               	bcf	status,0,c
  4995  002FAC  3618               	rlcf	___lldiv@divisor^0,f,c
  4996  002FAE  3619               	rlcf	(___lldiv@divisor+1)^0,f,c
  4997  002FB0  361A               	rlcf	(___lldiv@divisor+2)^0,f,c
  4998  002FB2  361B               	rlcf	(___lldiv@divisor+3)^0,f,c
  4999  002FB4  2A20               	incf	___lldiv@counter^0,f,c
  5000  002FB6                     l5346:
  5001  002FB6  AE1B               	btfss	(___lldiv@divisor+3)^0,7,c
  5002  002FB8  EFE0  F017         	goto	u4241
  5003  002FBC  EFE2  F017         	goto	u4240
  5004  002FC0                     u4241:
  5005  002FC0  EFD5  F017         	goto	l5344
  5006  002FC4                     u4240:
  5007  002FC4                     l5348:
  5008  002FC4  90D8               	bcf	status,0,c
  5009  002FC6  361C               	rlcf	___lldiv@quotient^0,f,c
  5010  002FC8  361D               	rlcf	(___lldiv@quotient+1)^0,f,c
  5011  002FCA  361E               	rlcf	(___lldiv@quotient+2)^0,f,c
  5012  002FCC  361F               	rlcf	(___lldiv@quotient+3)^0,f,c
  5013  002FCE  5018               	movf	___lldiv@divisor^0,w,c
  5014  002FD0  5C14               	subwf	___lldiv@dividend^0,w,c
  5015  002FD2  5019               	movf	(___lldiv@divisor+1)^0,w,c
  5016  002FD4  5815               	subwfb	(___lldiv@dividend+1)^0,w,c
  5017  002FD6  501A               	movf	(___lldiv@divisor+2)^0,w,c
  5018  002FD8  5816               	subwfb	(___lldiv@dividend+2)^0,w,c
  5019  002FDA  501B               	movf	(___lldiv@divisor+3)^0,w,c
  5020  002FDC  5817               	subwfb	(___lldiv@dividend+3)^0,w,c
  5021  002FDE  A0D8               	btfss	status,0,c
  5022  002FE0  EFF4  F017         	goto	u4251
  5023  002FE4  EFF6  F017         	goto	u4250
  5024  002FE8                     u4251:
  5025  002FE8  EFFF  F017         	goto	l5356
  5026  002FEC                     u4250:
  5027  002FEC  5018               	movf	___lldiv@divisor^0,w,c
  5028  002FEE  5E14               	subwf	___lldiv@dividend^0,f,c
  5029  002FF0  5019               	movf	(___lldiv@divisor+1)^0,w,c
  5030  002FF2  5A15               	subwfb	(___lldiv@dividend+1)^0,f,c
  5031  002FF4  501A               	movf	(___lldiv@divisor+2)^0,w,c
  5032  002FF6  5A16               	subwfb	(___lldiv@dividend+2)^0,f,c
  5033  002FF8  501B               	movf	(___lldiv@divisor+3)^0,w,c
  5034  002FFA  5A17               	subwfb	(___lldiv@dividend+3)^0,f,c
  5035  002FFC  801C               	bsf	___lldiv@quotient^0,0,c
  5036  002FFE                     l5356:
  5037  002FFE  90D8               	bcf	status,0,c
  5038  003000  321B               	rrcf	(___lldiv@divisor+3)^0,f,c
  5039  003002  321A               	rrcf	(___lldiv@divisor+2)^0,f,c
  5040  003004  3219               	rrcf	(___lldiv@divisor+1)^0,f,c
  5041  003006  3218               	rrcf	___lldiv@divisor^0,f,c
  5042  003008  2E20               	decfsz	___lldiv@counter^0,f,c
  5043  00300A  EFE2  F017         	goto	l5348
  5044  00300E                     l1288:
  5045  00300E  C01C  F014         	movff	___lldiv@quotient,?___lldiv
  5046  003012  C01D  F015         	movff	___lldiv@quotient+1,?___lldiv+1
  5047  003016  C01E  F016         	movff	___lldiv@quotient+2,?___lldiv+2
  5048  00301A  C01F  F017         	movff	___lldiv@quotient+3,?___lldiv+3
  5049  00301E  0012               	return		;funcret
  5050  003020                     __end_of___lldiv:
  5051                           	opt callstack 0
  5052                           
  5053 ;; *************** function _BH1750_Data_Read *****************
  5054 ;; Defined at:
  5055 ;;		line 43 in file "mcc_generated_files/Light_sensor_I2C.c"
  5056 ;; Parameters:    Size  Location     Type
  5057 ;;  Read_meas       1    wreg     unsigned char 
  5058 ;; Auto vars:     Size  Location     Type
  5059 ;;  Read_meas       1   23[BANK0 ] unsigned char 
  5060 ;;  raw_value       2   26[BANK0 ] unsigned char [2]
  5061 ;;  lux_value       2   24[BANK0 ] unsigned short 
  5062 ;; Return value:  Size  Location     Type
  5063 ;;                  2   19[BANK0 ] unsigned short 
  5064 ;; Registers used:
  5065 ;;		wreg, fsr2l, fsr2h, status,2, status,0, cstack
  5066 ;; Tracked objects:
  5067 ;;		On entry : 0/0
  5068 ;;		On exit  : 0/0
  5069 ;;		Unchanged: 0/0
  5070 ;; Data sizes:     COMRAM   BANK0   BANK1   BANK2   BANK3   BANK4   BANK5   BANK6   BANK7   BANK8   BANK9  BANK10  BANK1
      +1  BANK12  BANK13  BANK14  BANK15
  5071 ;;      Params:         0       2       0       0       0       0       0       0       0       0       0       0       
      +0       0       0       0       0
  5072 ;;      Locals:         0       5       0       0       0       0       0       0       0       0       0       0       
      +0       0       0       0       0
  5073 ;;      Temps:          0       2       0       0       0       0       0       0       0       0       0       0       
      +0       0       0       0       0
  5074 ;;      Totals:         0       9       0       0       0       0       0       0       0       0       0       0       
      +0       0       0       0       0
  5075 ;;Total ram usage:        9 bytes
  5076 ;; Hardware stack levels used:    1
  5077 ;; Hardware stack levels required when called:   13
  5078 ;; This function calls:
  5079 ;;		___fldiv
  5080 ;;		___fltol
  5081 ;;		___xxtofl
  5082 ;;		_i2c2_gets
  5083 ;; This function is called by:
  5084 ;;		_BH1750_measure
  5085 ;; This function uses a non-reentrant model
  5086 ;;
  5087                           
  5088                           	psect	text28
  5089  002E2A                     __ptext28:
  5090                           	opt callstack 0
  5091  002E2A                     _BH1750_Data_Read:
  5092                           	opt callstack 14
  5093                           
  5094                           ;incstack = 0
  5095                           ;BH1750_Data_Read@Read_meas stored from wreg
  5096  002E2A  0100               	movlb	0	; () banked
  5097  002E2C  6FDB               	movwf	BH1750_Data_Read@Read_meas& (0+255),b
  5098  002E2E                     
  5099                           ;mcc_generated_files/Light_sensor_I2C.c: 44:     uint8_t raw_value[2];;mcc_generated_fil
      +                          es/Light_sensor_I2C.c: 45:     uint16_t lux_value;;mcc_generated_files/Light_sensor_I2C.
      +                          c: 46:     if (i2c2_gets(Read_meas, raw_value, 2) == 3) {
  5100  002E2E  0EDE               	movlw	low BH1750_Data_Read@raw_value
  5101  002E30  0100               	movlb	0	; () banked
  5102  002E32  6FC4               	movwf	i2c2_gets@ptrData& (0+255),b
  5103  002E34  0E00               	movlw	high BH1750_Data_Read@raw_value
  5104  002E36  6FC5               	movwf	(i2c2_gets@ptrData+1)& (0+255),b
  5105  002E38  0E02               	movlw	2
  5106  002E3A  6FC6               	movwf	i2c2_gets@length& (0+255),b
  5107  002E3C  51DB               	movf	BH1750_Data_Read@Read_meas& (0+255),w,b
  5108  002E3E  ECB9  F014         	call	_i2c2_gets
  5109  002E42  0A03               	xorlw	3
  5110  002E44  A4D8               	btfss	status,2,c
  5111  002E46  EF27  F017         	goto	u6961
  5112  002E4A  EF29  F017         	goto	u6960
  5113  002E4E                     u6961:
  5114  002E4E  EF32  F017         	goto	l7654
  5115  002E52                     u6960:
  5116  002E52                     
  5117                           ;mcc_generated_files/Light_sensor_I2C.c: 47:         i2c_Error.Data_Read_error = 3;
  5118  002E52  0E03               	movlw	3
  5119  002E54  0100               	movlb	0	; () banked
  5120  002E56  6FA1               	movwf	(_i2c_Error+3)& (0+255),b
  5121                           
  5122                           ;mcc_generated_files/Light_sensor_I2C.c: 48:         return 0;
  5123  002E58  0E00               	movlw	0
  5124  002E5A  6FD8               	movwf	(?_BH1750_Data_Read+1)& (0+255),b
  5125  002E5C  0E00               	movlw	0
  5126  002E5E  6FD7               	movwf	?_BH1750_Data_Read& (0+255),b
  5127  002E60  EF69  F017         	goto	l907
  5128  002E64                     l7654:
  5129                           
  5130                           ;mcc_generated_files/Light_sensor_I2C.c: 50:         i2c_Error.Data_Read_error = 7;
  5131  002E64  0E07               	movlw	7
  5132  002E66  0100               	movlb	0	; () banked
  5133  002E68  6FA1               	movwf	(_i2c_Error+3)& (0+255),b
  5134  002E6A                     
  5135                           ; BSR set to: 0
  5136                           ;mcc_generated_files/Light_sensor_I2C.c: 51:     lux_value = (raw_value[0] << 8) | raw_v
      +                          alue[1];
  5137  002E6A  51DF               	movf	(BH1750_Data_Read@raw_value+1)& (0+255),w,b
  5138  002E6C  C0DE  F0D9         	movff	BH1750_Data_Read@raw_value,??_BH1750_Data_Read
  5139  002E70  6BDA               	clrf	(??_BH1750_Data_Read+1)& (0+255),b
  5140  002E72  C0D9  F0DA         	movff	??_BH1750_Data_Read,??_BH1750_Data_Read+1
  5141  002E76  6BD9               	clrf	??_BH1750_Data_Read& (0+255),b
  5142  002E78  11D9               	iorwf	??_BH1750_Data_Read& (0+255),w,b
  5143  002E7A  6FDC               	movwf	BH1750_Data_Read@lux_value& (0+255),b
  5144  002E7C  51DA               	movf	(??_BH1750_Data_Read+1)& (0+255),w,b
  5145  002E7E  6FDD               	movwf	(BH1750_Data_Read@lux_value+1)& (0+255),b
  5146  002E80                     
  5147                           ; BSR set to: 0
  5148                           ;mcc_generated_files/Light_sensor_I2C.c: 52:     return (uint16_t) (lux_value / 1.2);
  5149  002E80  0E9A               	movlw	154
  5150  002E82  6E2C               	movwf	___fldiv@a^0,c
  5151  002E84  0E99               	movlw	153
  5152  002E86  6E2D               	movwf	(___fldiv@a+1)^0,c
  5153  002E88  0E99               	movlw	153
  5154  002E8A  6E2E               	movwf	(___fldiv@a+2)^0,c
  5155  002E8C  0E3F               	movlw	63
  5156  002E8E  6E2F               	movwf	(___fldiv@a+3)^0,c
  5157  002E90  C0DC  F01A         	movff	BH1750_Data_Read@lux_value,___xxtofl@val
  5158  002E94  C0DD  F01B         	movff	BH1750_Data_Read@lux_value+1,___xxtofl@val+1
  5159  002E98  6A1C               	clrf	(___xxtofl@val+2)^0,c
  5160  002E9A  6A1D               	clrf	(___xxtofl@val+3)^0,c
  5161  002E9C  0E00               	movlw	0
  5162  002E9E  EC54  F00E         	call	___xxtofl
  5163  002EA2  C01A  F028         	movff	?___xxtofl,___fldiv@b
  5164  002EA6  C01B  F029         	movff	?___xxtofl+1,___fldiv@b+1
  5165  002EAA  C01C  F02A         	movff	?___xxtofl+2,___fldiv@b+2
  5166  002EAE  C01D  F02B         	movff	?___xxtofl+3,___fldiv@b+3
  5167  002EB2  EC34  F00A         	call	___fldiv	;wreg free
  5168  002EB6  C028  F034         	movff	?___fldiv,___fltol@f1
  5169  002EBA  C029  F035         	movff	?___fldiv+1,___fltol@f1+1
  5170  002EBE  C02A  F036         	movff	?___fldiv+2,___fltol@f1+2
  5171  002EC2  C02B  F037         	movff	?___fldiv+3,___fltol@f1+3
  5172  002EC6  ECBB  F013         	call	___fltol	;wreg free
  5173  002ECA  C034  F0D7         	movff	?___fltol,?_BH1750_Data_Read
  5174  002ECE  C035  F0D8         	movff	?___fltol+1,?_BH1750_Data_Read+1
  5175  002ED2                     l907:
  5176  002ED2  0012               	return		;funcret
  5177  002ED4                     __end_of_BH1750_Data_Read:
  5178                           	opt callstack 0
  5179                           
  5180 ;; *************** function _i2c2_gets *****************
  5181 ;; Defined at:
  5182 ;;		line 51 in file "mcc_generated_files/i2c2_master.c"
  5183 ;; Parameters:    Size  Location     Type
  5184 ;;  slaveAddress    1    wreg     unsigned char 
  5185 ;;  ptrData         2    0[BANK0 ] PTR unsigned char 
  5186 ;;		 -> BH1750_Data_Read@raw_value(2), 
  5187 ;;  length          1    2[BANK0 ] unsigned char 
  5188 ;; Auto vars:     Size  Location     Type
  5189 ;;  slaveAddress    1    3[BANK0 ] unsigned char 
  5190 ;; Return value:  Size  Location     Type
  5191 ;;                  1    wreg      unsigned char 
  5192 ;; Registers used:
  5193 ;;		wreg, fsr2l, fsr2h, status,2, status,0, cstack
  5194 ;; Tracked objects:
  5195 ;;		On entry : 0/0
  5196 ;;		On exit  : 0/0
  5197 ;;		Unchanged: 0/0
  5198 ;; Data sizes:     COMRAM   BANK0   BANK1   BANK2   BANK3   BANK4   BANK5   BANK6   BANK7   BANK8   BANK9  BANK10  BANK1
      +1  BANK12  BANK13  BANK14  BANK15
  5199 ;;      Params:         0       3       0       0       0       0       0       0       0       0       0       0       
      +0       0       0       0       0
  5200 ;;      Locals:         0       1       0       0       0       0       0       0       0       0       0       0       
      +0       0       0       0       0
  5201 ;;      Temps:          0       0       0       0       0       0       0       0       0       0       0       0       
      +0       0       0       0       0
  5202 ;;      Totals:         0       4       0       0       0       0       0       0       0       0       0       0       
      +0       0       0       0       0
  5203 ;;Total ram usage:        4 bytes
  5204 ;; Hardware stack levels used:    1
  5205 ;; Hardware stack levels required when called:   12
  5206 ;; This function calls:
  5207 ;;		_i2c2_control
  5208 ;;		_i2c2_init
  5209 ;; This function is called by:
  5210 ;;		_BH1750_Data_Read
  5211 ;; This function uses a non-reentrant model
  5212 ;;
  5213                           
  5214                           	psect	text29
  5215  002972                     __ptext29:
  5216                           	opt callstack 0
  5217  002972                     _i2c2_gets:
  5218                           	opt callstack 14
  5219                           
  5220                           ;incstack = 0
  5221                           ;i2c2_gets@slaveAddress stored from wreg
  5222  002972  0100               	movlb	0	; () banked
  5223  002974  6FC7               	movwf	i2c2_gets@slaveAddress& (0+255),b
  5224  002976                     
  5225                           ;mcc_generated_files/i2c2_master.c: 52:     {SSP2CON2bits.RSEN = 1; while(SSP2CON2bits.R
      +                          SEN);}
  5226  002976  826B               	bsf	107,1,c	;volatile
  5227  002978                     l382:
  5228  002978  B26B               	btfsc	107,1,c	;volatile
  5229  00297A  EFC1  F014         	goto	u6521
  5230  00297E  EFC3  F014         	goto	u6520
  5231  002982                     u6521:
  5232  002982  EFBC  F014         	goto	l382
  5233  002986                     u6520:
  5234  002986                     
  5235                           ;mcc_generated_files/i2c2_master.c: 53:     SSP2BUF = slaveAddress | 0x01;
  5236  002986  0100               	movlb	0	; () banked
  5237  002988  51C7               	movf	i2c2_gets@slaveAddress& (0+255),w,b
  5238  00298A  0901               	iorlw	1
  5239  00298C  6E6F               	movwf	111,c	;volatile
  5240  00298E                     
  5241                           ; BSR set to: 0
  5242                           ;mcc_generated_files/i2c2_master.c: 56:     if (i2c2_control(0) == 0) {
  5243  00298E  0E00               	movlw	0
  5244  002990  EC2B  F015         	call	_i2c2_control
  5245  002994  0900               	iorlw	0
  5246  002996  A4D8               	btfss	status,2,c
  5247  002998  EFD0  F014         	goto	u6531
  5248  00299C  EFD2  F014         	goto	u6530
  5249  0029A0                     u6531:
  5250  0029A0  EFD7  F014         	goto	l7314
  5251  0029A4                     u6530:
  5252  0029A4                     l7308:
  5253                           
  5254                           ;mcc_generated_files/i2c2_master.c: 57:         i2c2_init();
  5255  0029A4  EC4E  F01E         	call	_i2c2_init	;wreg free
  5256  0029A8                     
  5257                           ;mcc_generated_files/i2c2_master.c: 58:         return 3;
  5258  0029A8  0E03               	movlw	3
  5259  0029AA  EF2A  F015         	goto	l386
  5260  0029AE                     l7314:
  5261                           
  5262                           ;mcc_generated_files/i2c2_master.c: 60:     if (i2c2_control(1) == 0) {
  5263  0029AE  0E01               	movlw	1
  5264  0029B0  EC2B  F015         	call	_i2c2_control
  5265  0029B4  0900               	iorlw	0
  5266  0029B6  A4D8               	btfss	status,2,c
  5267  0029B8  EFE0  F014         	goto	u6541
  5268  0029BC  EFE2  F014         	goto	u6540
  5269  0029C0                     u6541:
  5270  0029C0  EFE4  F014         	goto	l388
  5271  0029C4                     u6540:
  5272  0029C4  EFD2  F014         	goto	l7308
  5273  0029C8                     l388:
  5274                           
  5275                           ;mcc_generated_files/i2c2_master.c: 66:         SSP2CON2bits.RCEN = 1;
  5276  0029C8  866B               	bsf	107,3,c	;volatile
  5277  0029CA                     
  5278                           ;mcc_generated_files/i2c2_master.c: 67:         if (i2c2_control(2) == 0) {
  5279  0029CA  0E02               	movlw	2
  5280  0029CC  EC2B  F015         	call	_i2c2_control
  5281  0029D0  0900               	iorlw	0
  5282  0029D2  A4D8               	btfss	status,2,c
  5283  0029D4  EFEE  F014         	goto	u6551
  5284  0029D8  EFF0  F014         	goto	u6550
  5285  0029DC                     u6551:
  5286  0029DC  EFF2  F014         	goto	l7330
  5287  0029E0                     u6550:
  5288  0029E0  EFD2  F014         	goto	l7308
  5289  0029E4                     l7330:
  5290                           
  5291                           ;mcc_generated_files/i2c2_master.c: 71:         *ptrData++ = SSP1BUF;
  5292  0029E4  C0C4  FFD9         	movff	i2c2_gets@ptrData,fsr2l
  5293  0029E8  C0C5  FFDA         	movff	i2c2_gets@ptrData+1,fsr2h
  5294  0029EC  CFC9 FFDF          	movff	4041,indf2	;volatile
  5295  0029F0  0100               	movlb	0	; () banked
  5296  0029F2  4BC4               	infsnz	i2c2_gets@ptrData& (0+255),f,b
  5297  0029F4  2BC5               	incf	(i2c2_gets@ptrData+1)& (0+255),f,b
  5298  0029F6                     
  5299                           ; BSR set to: 0
  5300                           ;mcc_generated_files/i2c2_master.c: 72:         if (i2c2_control(0) == 0) {
  5301  0029F6  0E00               	movlw	0
  5302  0029F8  EC2B  F015         	call	_i2c2_control
  5303  0029FC  0900               	iorlw	0
  5304  0029FE  A4D8               	btfss	status,2,c
  5305  002A00  EF04  F015         	goto	u6561
  5306  002A04  EF06  F015         	goto	u6560
  5307  002A08                     u6561:
  5308  002A08  EF08  F015         	goto	l7342
  5309  002A0C                     u6560:
  5310  002A0C  EFD2  F014         	goto	l7308
  5311  002A10                     l7342:
  5312                           
  5313                           ;mcc_generated_files/i2c2_master.c: 76:         if (length == 1)
  5314  002A10  0100               	movlb	0	; () banked
  5315  002A12  05C6               	decf	i2c2_gets@length& (0+255),w,b
  5316  002A14  A4D8               	btfss	status,2,c
  5317  002A16  EF0F  F015         	goto	u6571
  5318  002A1A  EF11  F015         	goto	u6570
  5319  002A1E                     u6571:
  5320  002A1E  EF14  F015         	goto	l391
  5321  002A22                     u6570:
  5322  002A22                     
  5323                           ; BSR set to: 0
  5324                           ;mcc_generated_files/i2c2_master.c: 77:             SSP2CON2bits.ACKDT = 1;
  5325  002A22  8A6B               	bsf	107,5,c	;volatile
  5326  002A24  EF15  F015         	goto	l392
  5327  002A28                     l391:
  5328                           
  5329                           ; BSR set to: 0
  5330                           ;mcc_generated_files/i2c2_master.c: 79:             SSP2CON2bits.ACKDT = 0;
  5331  002A28  9A6B               	bcf	107,5,c	;volatile
  5332  002A2A                     l392:
  5333                           
  5334                           ; BSR set to: 0
  5335                           ;mcc_generated_files/i2c2_master.c: 80:         SSP2CON2bits.ACKEN = 1;
  5336  002A2A  886B               	bsf	107,4,c	;volatile
  5337  002A2C                     l393:
  5338  002A2C  B86B               	btfsc	107,4,c	;volatile
  5339  002A2E  EF1B  F015         	goto	u6581
  5340  002A32  EF1D  F015         	goto	u6580
  5341  002A36                     u6581:
  5342  002A36  EF16  F015         	goto	l393
  5343  002A3A                     u6580:
  5344  002A3A                     
  5345                           ;mcc_generated_files/i2c2_master.c: 82:     } while (--length != 0);
  5346  002A3A  0100               	movlb	0	; () banked
  5347  002A3C  2FC6               	decfsz	i2c2_gets@length& (0+255),f,b
  5348  002A3E  EFE4  F014         	goto	l388
  5349  002A42                     
  5350                           ; BSR set to: 0
  5351                           ;mcc_generated_files/i2c2_master.c: 83:     {SSP2CON2bits.PEN = 1; while(SSP2CON2bits.PE
      +                          N);}
  5352  002A42  846B               	bsf	107,2,c	;volatile
  5353  002A44                     l397:
  5354  002A44  B46B               	btfsc	107,2,c	;volatile
  5355  002A46  EF27  F015         	goto	u6591
  5356  002A4A  EF29  F015         	goto	u6590
  5357  002A4E                     u6591:
  5358  002A4E  EF22  F015         	goto	l397
  5359  002A52                     u6590:
  5360  002A52                     
  5361                           ;mcc_generated_files/i2c2_master.c: 84:     return 7;
  5362  002A52  0E07               	movlw	7
  5363  002A54                     l386:
  5364  002A54  0012               	return		;funcret
  5365  002A56                     __end_of_i2c2_gets:
  5366                           	opt callstack 0
  5367                           
  5368 ;; *************** function _i2c2_init *****************
  5369 ;; Defined at:
  5370 ;;		line 11 in file "mcc_generated_files/i2c2_master.c"
  5371 ;; Parameters:    Size  Location     Type
  5372 ;;		None
  5373 ;; Auto vars:     Size  Location     Type
  5374 ;;		None
  5375 ;; Return value:  Size  Location     Type
  5376 ;;                  1    wreg      void 
  5377 ;; Registers used:
  5378 ;;		wreg, status,2, status,0
  5379 ;; Tracked objects:
  5380 ;;		On entry : 0/0
  5381 ;;		On exit  : 0/0
  5382 ;;		Unchanged: 0/0
  5383 ;; Data sizes:     COMRAM   BANK0   BANK1   BANK2   BANK3   BANK4   BANK5   BANK6   BANK7   BANK8   BANK9  BANK10  BANK1
      +1  BANK12  BANK13  BANK14  BANK15
  5384 ;;      Params:         0       0       0       0       0       0       0       0       0       0       0       0       
      +0       0       0       0       0
  5385 ;;      Locals:         0       0       0       0       0       0       0       0       0       0       0       0       
      +0       0       0       0       0
  5386 ;;      Temps:          0       0       0       0       0       0       0       0       0       0       0       0       
      +0       0       0       0       0
  5387 ;;      Totals:         0       0       0       0       0       0       0       0       0       0       0       0       
      +0       0       0       0       0
  5388 ;;Total ram usage:        0 bytes
  5389 ;; Hardware stack levels used:    1
  5390 ;; Hardware stack levels required when called:    8
  5391 ;; This function calls:
  5392 ;;		Nothing
  5393 ;; This function is called by:
  5394 ;;		_SYSTEM_Initialize
  5395 ;;		_i2c2_Open
  5396 ;;		_i2c2_gets
  5397 ;;		_i2c2_puts
  5398 ;; This function uses a non-reentrant model
  5399 ;;
  5400                           
  5401                           	psect	text30
  5402  003C9C                     __ptext30:
  5403                           	opt callstack 0
  5404  003C9C                     _i2c2_init:
  5405                           	opt callstack 17
  5406  003C9C                     
  5407                           ;mcc_generated_files/i2c2_master.c: 12:     SSP2STAT = 0x80;
  5408  003C9C  0E80               	movlw	128
  5409  003C9E  6E6D               	movwf	109,c	;volatile
  5410                           
  5411                           ;mcc_generated_files/i2c2_master.c: 15:     SSP2CON1 = 0x28;
  5412  003CA0  0E28               	movlw	40
  5413  003CA2  6E6C               	movwf	108,c	;volatile
  5414                           
  5415                           ;mcc_generated_files/i2c2_master.c: 16:     SSP2CON3 = 0x00;
  5416  003CA4  0E00               	movlw	0
  5417  003CA6  6E69               	movwf	105,c	;volatile
  5418                           
  5419                           ;mcc_generated_files/i2c2_master.c: 17:     SSP2ADD = 0x9F;
  5420  003CA8  0E9F               	movlw	159
  5421  003CAA  6E6E               	movwf	110,c	;volatile
  5422  003CAC                     
  5423                           ;mcc_generated_files/i2c2_master.c: 19:     ANSELD &= 0xFC;
  5424  003CAC  0EFC               	movlw	252
  5425  003CAE  010F               	movlb	15	; () banked
  5426  003CB0  173B               	andwf	59,f,b	;volatile
  5427  003CB2                     
  5428                           ; BSR set to: 15
  5429                           ;mcc_generated_files/i2c2_master.c: 20:     TRISD |= 0x03;
  5430  003CB2  0E03               	movlw	3
  5431  003CB4  1295               	iorwf	149,f,c	;volatile
  5432  003CB6                     
  5433                           ; BSR set to: 15
  5434  003CB6  0012               	return		;funcret
  5435  003CB8                     __end_of_i2c2_init:
  5436                           	opt callstack 0
  5437                           
  5438 ;; *************** function _i2c2_control *****************
  5439 ;; Defined at:
  5440 ;;		line 103 in file "mcc_generated_files/i2c2_master.c"
  5441 ;; Parameters:    Size  Location     Type
  5442 ;;  bit_field       1    wreg     unsigned char 
  5443 ;; Auto vars:     Size  Location     Type
  5444 ;;  bit_field       1   55[COMRAM] unsigned char 
  5445 ;; Return value:  Size  Location     Type
  5446 ;;                  1    wreg      _Bool 
  5447 ;; Registers used:
  5448 ;;		wreg, status,2, status,0, cstack
  5449 ;; Tracked objects:
  5450 ;;		On entry : 0/0
  5451 ;;		On exit  : 0/0
  5452 ;;		Unchanged: 0/0
  5453 ;; Data sizes:     COMRAM   BANK0   BANK1   BANK2   BANK3   BANK4   BANK5   BANK6   BANK7   BANK8   BANK9  BANK10  BANK1
      +1  BANK12  BANK13  BANK14  BANK15
  5454 ;;      Params:         0       0       0       0       0       0       0       0       0       0       0       0       
      +0       0       0       0       0
  5455 ;;      Locals:         1       0       0       0       0       0       0       0       0       0       0       0       
      +0       0       0       0       0
  5456 ;;      Temps:          2       0       0       0       0       0       0       0       0       0       0       0       
      +0       0       0       0       0
  5457 ;;      Totals:         3       0       0       0       0       0       0       0       0       0       0       0       
      +0       0       0       0       0
  5458 ;;Total ram usage:        3 bytes
  5459 ;; Hardware stack levels used:    1
  5460 ;; Hardware stack levels required when called:   11
  5461 ;; This function calls:
  5462 ;;		_TMR0_HasOverflowOccured
  5463 ;;		_TMR0_Reload
  5464 ;;		_TMR0_StartTimer
  5465 ;;		_TMR0_StopTimer
  5466 ;;		_TMR0_period
  5467 ;;		_TMR0_request_period
  5468 ;; This function is called by:
  5469 ;;		_i2c2_Open
  5470 ;;		_i2c2_gets
  5471 ;;		_i2c2_puts
  5472 ;; This function uses a non-reentrant model
  5473 ;;
  5474                           
  5475                           	psect	text31
  5476  002A56                     __ptext31:
  5477                           	opt callstack 0
  5478  002A56                     _i2c2_control:
  5479                           	opt callstack 14
  5480                           
  5481                           ; BSR set to: 15
  5482                           ;incstack = 0
  5483                           ;i2c2_control@bit_field stored from wreg
  5484  002A56  6E38               	movwf	i2c2_control@bit_field^0,c
  5485  002A58                     
  5486                           ;mcc_generated_files/i2c2_master.c: 104:     if (TMR0_request_period() != 25)
  5487  002A58  ECED  F01E         	call	_TMR0_request_period	;wreg free
  5488  002A5C  0A19               	xorlw	25
  5489  002A5E  B4D8               	btfsc	status,2,c
  5490  002A60  EF34  F015         	goto	u5911
  5491  002A64  EF36  F015         	goto	u5910
  5492  002A68                     u5911:
  5493  002A68  EF3B  F015         	goto	l6942
  5494  002A6C                     u5910:
  5495  002A6C                     
  5496                           ;mcc_generated_files/i2c2_master.c: 105:         TMR0_period(25);
  5497  002A6C  0E19               	movlw	25
  5498  002A6E  EC81  F01E         	call	_TMR0_period
  5499  002A72  EF3D  F015         	goto	l6944
  5500  002A76                     l6942:
  5501                           
  5502                           ;mcc_generated_files/i2c2_master.c: 107:         TMR0_Reload();
  5503  002A76  ECAD  F01E         	call	_TMR0_Reload	;wreg free
  5504  002A7A                     l6944:
  5505                           
  5506                           ;mcc_generated_files/i2c2_master.c: 108:     INTCONbits.TMR0IF = 0;
  5507  002A7A  94F2               	bcf	242,2,c	;volatile
  5508  002A7C                     
  5509                           ;mcc_generated_files/i2c2_master.c: 109:     TMR0_StartTimer();
  5510  002A7C  ECFE  F01E         	call	_TMR0_StartTimer	;wreg free
  5511  002A80  EF72  F015         	goto	l6978
  5512  002A84                     l6948:
  5513                           
  5514                           ;mcc_generated_files/i2c2_master.c: 113:                 if (((SSP2CON2 & 0x1F) || (SSP2
      +                          STATbits.R_nW)) == 0) {
  5515  002A84  CF6B F036          	movff	3947,??_i2c2_control	;volatile
  5516  002A88  0E1F               	movlw	31
  5517  002A8A  1636               	andwf	??_i2c2_control^0,f,c
  5518  002A8C  A4D8               	btfss	status,2,c
  5519  002A8E  EF4B  F015         	goto	u5921
  5520  002A92  EF4D  F015         	goto	u5920
  5521  002A96                     u5921:
  5522  002A96  EF8B  F015         	goto	l6980
  5523  002A9A                     u5920:
  5524  002A9A  B46D               	btfsc	109,2,c	;volatile
  5525  002A9C  EF52  F015         	goto	u5931
  5526  002AA0  EF54  F015         	goto	u5930
  5527  002AA4                     u5931:
  5528  002AA4  EF8B  F015         	goto	l6980
  5529  002AA8                     u5930:
  5530  002AA8                     
  5531                           ;mcc_generated_files/i2c2_master.c: 114:                     TMR0_StopTimer();
  5532  002AA8  ECFC  F01E         	call	_TMR0_StopTimer	;wreg free
  5533  002AAC                     
  5534                           ;mcc_generated_files/i2c2_master.c: 115:                     INTCONbits.TMR0IF = 0;
  5535  002AAC  94F2               	bcf	242,2,c	;volatile
  5536  002AAE                     l6956:
  5537                           
  5538                           ;mcc_generated_files/i2c2_master.c: 116:                     return 1;
  5539  002AAE  0E01               	movlw	1
  5540  002AB0  EF99  F015         	goto	l418
  5541  002AB4                     l420:
  5542                           
  5543                           ;mcc_generated_files/i2c2_master.c: 120:                 if (SSP2CON2bits.ACKSTAT == 0) 
      +                          {
  5544  002AB4  BC6B               	btfsc	107,6,c	;volatile
  5545  002AB6  EF5F  F015         	goto	u5941
  5546  002ABA  EF61  F015         	goto	u5940
  5547  002ABE                     u5941:
  5548  002ABE  EF8B  F015         	goto	l6980
  5549  002AC2                     u5940:
  5550  002AC2                     
  5551                           ;mcc_generated_files/i2c2_master.c: 121:                     TMR0_StopTimer();
  5552  002AC2  ECFC  F01E         	call	_TMR0_StopTimer	;wreg free
  5553  002AC6                     
  5554                           ;mcc_generated_files/i2c2_master.c: 122:                     INTCONbits.TMR0IF = 0;
  5555  002AC6  94F2               	bcf	242,2,c	;volatile
  5556  002AC8  EF57  F015         	goto	l6956
  5557  002ACC                     l422:
  5558                           
  5559                           ;mcc_generated_files/i2c2_master.c: 127:                 if (SSP2CON2bits.RCEN == 0) {
  5560  002ACC  B66B               	btfsc	107,3,c	;volatile
  5561  002ACE  EF6B  F015         	goto	u5951
  5562  002AD2  EF6D  F015         	goto	u5950
  5563  002AD6                     u5951:
  5564  002AD6  EF8B  F015         	goto	l6980
  5565  002ADA                     u5950:
  5566  002ADA                     
  5567                           ;mcc_generated_files/i2c2_master.c: 128:                     TMR0_StopTimer();
  5568  002ADA  ECFC  F01E         	call	_TMR0_StopTimer	;wreg free
  5569  002ADE                     
  5570                           ;mcc_generated_files/i2c2_master.c: 129:                     INTCONbits.TMR0IF = 0;
  5571  002ADE  94F2               	bcf	242,2,c	;volatile
  5572  002AE0  EF57  F015         	goto	l6956
  5573  002AE4                     l6978:
  5574  002AE4  5038               	movf	i2c2_control@bit_field^0,w,c
  5575  002AE6  6E36               	movwf	??_i2c2_control^0,c
  5576  002AE8  6A37               	clrf	(??_i2c2_control+1)^0,c
  5577                           
  5578                           ; Switch on 2 bytes has been partitioned into a top level switch of size 1, and 1 sub-sw
      +                          itches
  5579                           ; Switch size 1, requested type "simple"
  5580                           ; Number of cases is 1, Range of values is 0 to 0
  5581                           ; switch strategies available:
  5582                           ; Name         Instructions Cycles
  5583                           ; simple_byte            4     3 (average)
  5584                           ;	Chosen strategy is simple_byte
  5585  002AEA  5037               	movf	(??_i2c2_control+1)^0,w,c
  5586  002AEC  0A00               	xorlw	0	; case 0
  5587  002AEE  B4D8               	btfsc	status,2,c
  5588  002AF0  EF7C  F015         	goto	l8568
  5589  002AF4  EF8B  F015         	goto	l6980
  5590  002AF8                     l8568:
  5591                           
  5592                           ; Switch size 1, requested type "simple"
  5593                           ; Number of cases is 3, Range of values is 0 to 2
  5594                           ; switch strategies available:
  5595                           ; Name         Instructions Cycles
  5596                           ; simple_byte           10     6 (average)
  5597                           ;	Chosen strategy is simple_byte
  5598  002AF8  5036               	movf	??_i2c2_control^0,w,c
  5599  002AFA  0A00               	xorlw	0	; case 0
  5600  002AFC  B4D8               	btfsc	status,2,c
  5601  002AFE  EF42  F015         	goto	l6948
  5602  002B02  0A01               	xorlw	1	; case 1
  5603  002B04  B4D8               	btfsc	status,2,c
  5604  002B06  EF5A  F015         	goto	l420
  5605  002B0A  0A03               	xorlw	3	; case 2
  5606  002B0C  B4D8               	btfsc	status,2,c
  5607  002B0E  EF66  F015         	goto	l422
  5608  002B12  EF8B  F015         	goto	l6980
  5609  002B16                     l6980:
  5610                           
  5611                           ;mcc_generated_files/i2c2_master.c: 134:     } while (!TMR0_HasOverflowOccured());
  5612  002B16  EC8C  F01E         	call	_TMR0_HasOverflowOccured	;wreg free
  5613  002B1A  0900               	iorlw	0
  5614  002B1C  B4D8               	btfsc	status,2,c
  5615  002B1E  EF93  F015         	goto	u5961
  5616  002B22  EF95  F015         	goto	u5960
  5617  002B26                     u5961:
  5618  002B26  EF72  F015         	goto	l6978
  5619  002B2A                     u5960:
  5620  002B2A                     
  5621                           ;mcc_generated_files/i2c2_master.c: 135:     TMR0_StopTimer();
  5622  002B2A  ECFC  F01E         	call	_TMR0_StopTimer	;wreg free
  5623  002B2E                     
  5624                           ;mcc_generated_files/i2c2_master.c: 136:     INTCONbits.TMR0IF = 0;
  5625  002B2E  94F2               	bcf	242,2,c	;volatile
  5626  002B30                     
  5627                           ;mcc_generated_files/i2c2_master.c: 137:     return 0;
  5628  002B30  0E00               	movlw	0
  5629  002B32                     l418:
  5630  002B32  0012               	return		;funcret
  5631  002B34                     __end_of_i2c2_control:
  5632                           	opt callstack 0
  5633                           
  5634 ;; *************** function _TMR0_request_period *****************
  5635 ;; Defined at:
  5636 ;;		line 34 in file "mcc_generated_files/tmr0.c"
  5637 ;; Parameters:    Size  Location     Type
  5638 ;;		None
  5639 ;; Auto vars:     Size  Location     Type
  5640 ;;		None
  5641 ;; Return value:  Size  Location     Type
  5642 ;;                  1    wreg      unsigned char 
  5643 ;; Registers used:
  5644 ;;		wreg, status,2
  5645 ;; Tracked objects:
  5646 ;;		On entry : 0/0
  5647 ;;		On exit  : 0/0
  5648 ;;		Unchanged: 0/0
  5649 ;; Data sizes:     COMRAM   BANK0   BANK1   BANK2   BANK3   BANK4   BANK5   BANK6   BANK7   BANK8   BANK9  BANK10  BANK1
      +1  BANK12  BANK13  BANK14  BANK15
  5650 ;;      Params:         0       0       0       0       0       0       0       0       0       0       0       0       
      +0       0       0       0       0
  5651 ;;      Locals:         0       0       0       0       0       0       0       0       0       0       0       0       
      +0       0       0       0       0
  5652 ;;      Temps:          0       0       0       0       0       0       0       0       0       0       0       0       
      +0       0       0       0       0
  5653 ;;      Totals:         0       0       0       0       0       0       0       0       0       0       0       0       
      +0       0       0       0       0
  5654 ;;Total ram usage:        0 bytes
  5655 ;; Hardware stack levels used:    1
  5656 ;; Hardware stack levels required when called:    8
  5657 ;; This function calls:
  5658 ;;		Nothing
  5659 ;; This function is called by:
  5660 ;;		_EPWM2_engine_SoftStop
  5661 ;;		_i2c2_control
  5662 ;;		_EPWM3_engine_SoftStart
  5663 ;;		_EPWM3_engine_SoftStop
  5664 ;;		_EPWM2_engine_SoftStart
  5665 ;; This function uses a non-reentrant model
  5666 ;;
  5667                           
  5668                           	psect	text32
  5669  003DDA                     __ptext32:
  5670                           	opt callstack 0
  5671  003DDA                     _TMR0_request_period:
  5672                           	opt callstack 19
  5673  003DDA                     
  5674                           ;mcc_generated_files/tmr0.c: 35:     return T;
  5675  003DDA  0100               	movlb	0	; () banked
  5676  003DDC  51BB               	movf	_T& (0+255),w,b	;volatile
  5677  003DDE                     
  5678                           ; BSR set to: 0
  5679  003DDE  0012               	return		;funcret
  5680  003DE0                     __end_of_TMR0_request_period:
  5681                           	opt callstack 0
  5682                           
  5683 ;; *************** function _TMR0_period *****************
  5684 ;; Defined at:
  5685 ;;		line 28 in file "mcc_generated_files/tmr0.c"
  5686 ;; Parameters:    Size  Location     Type
  5687 ;;  per             1    wreg     unsigned char 
  5688 ;; Auto vars:     Size  Location     Type
  5689 ;;  per             1   52[COMRAM] unsigned char 
  5690 ;; Return value:  Size  Location     Type
  5691 ;;                  1    wreg      void 
  5692 ;; Registers used:
  5693 ;;		wreg, status,2, status,0, cstack
  5694 ;; Tracked objects:
  5695 ;;		On entry : 0/0
  5696 ;;		On exit  : 0/0
  5697 ;;		Unchanged: 0/0
  5698 ;; Data sizes:     COMRAM   BANK0   BANK1   BANK2   BANK3   BANK4   BANK5   BANK6   BANK7   BANK8   BANK9  BANK10  BANK1
      +1  BANK12  BANK13  BANK14  BANK15
  5699 ;;      Params:         0       0       0       0       0       0       0       0       0       0       0       0       
      +0       0       0       0       0
  5700 ;;      Locals:         1       0       0       0       0       0       0       0       0       0       0       0       
      +0       0       0       0       0
  5701 ;;      Temps:          0       0       0       0       0       0       0       0       0       0       0       0       
      +0       0       0       0       0
  5702 ;;      Totals:         1       0       0       0       0       0       0       0       0       0       0       0       
      +0       0       0       0       0
  5703 ;;Total ram usage:        1 bytes
  5704 ;; Hardware stack levels used:    1
  5705 ;; Hardware stack levels required when called:   10
  5706 ;; This function calls:
  5707 ;;		_TMR0_WriteTimer
  5708 ;; This function is called by:
  5709 ;;		_EPWM2_engine_SoftStop
  5710 ;;		_i2c2_control
  5711 ;;		_EPWM3_engine_SoftStart
  5712 ;;		_EPWM3_engine_SoftStop
  5713 ;;		_EPWM2_engine_SoftStart
  5714 ;; This function uses a non-reentrant model
  5715 ;;
  5716                           
  5717                           	psect	text33
  5718  003D02                     __ptext33:
  5719                           	opt callstack 0
  5720  003D02                     _TMR0_period:
  5721                           	opt callstack 17
  5722                           
  5723                           ; BSR set to: 0
  5724                           ;incstack = 0
  5725                           ;TMR0_period@per stored from wreg
  5726  003D02  6E35               	movwf	TMR0_period@per^0,c
  5727  003D04                     
  5728                           ;mcc_generated_files/tmr0.c: 29:     timer0ReloadVal = TMR0_WriteTimer(per);
  5729  003D04  5035               	movf	TMR0_period@per^0,w,c
  5730  003D06  EC10  F018         	call	_TMR0_WriteTimer
  5731  003D0A  C02E  F0AC         	movff	?_TMR0_WriteTimer,_timer0ReloadVal	;volatile
  5732  003D0E  C02F  F0AD         	movff	?_TMR0_WriteTimer+1,_timer0ReloadVal+1	;volatile
  5733  003D12                     
  5734                           ;mcc_generated_files/tmr0.c: 30:     T = per;
  5735  003D12  C035  F0BB         	movff	TMR0_period@per,_T	;volatile
  5736  003D16  0012               	return		;funcret
  5737  003D18                     __end_of_TMR0_period:
  5738                           	opt callstack 0
  5739                           
  5740 ;; *************** function _TMR0_StopTimer *****************
  5741 ;; Defined at:
  5742 ;;		line 43 in file "mcc_generated_files/tmr0.c"
  5743 ;; Parameters:    Size  Location     Type
  5744 ;;		None
  5745 ;; Auto vars:     Size  Location     Type
  5746 ;;		None
  5747 ;; Return value:  Size  Location     Type
  5748 ;;                  1    wreg      void 
  5749 ;; Registers used:
  5750 ;;		None
  5751 ;; Tracked objects:
  5752 ;;		On entry : 0/0
  5753 ;;		On exit  : 0/0
  5754 ;;		Unchanged: 0/0
  5755 ;; Data sizes:     COMRAM   BANK0   BANK1   BANK2   BANK3   BANK4   BANK5   BANK6   BANK7   BANK8   BANK9  BANK10  BANK1
      +1  BANK12  BANK13  BANK14  BANK15
  5756 ;;      Params:         0       0       0       0       0       0       0       0       0       0       0       0       
      +0       0       0       0       0
  5757 ;;      Locals:         0       0       0       0       0       0       0       0       0       0       0       0       
      +0       0       0       0       0
  5758 ;;      Temps:          0       0       0       0       0       0       0       0       0       0       0       0       
      +0       0       0       0       0
  5759 ;;      Totals:         0       0       0       0       0       0       0       0       0       0       0       0       
      +0       0       0       0       0
  5760 ;;Total ram usage:        0 bytes
  5761 ;; Hardware stack levels used:    1
  5762 ;; Hardware stack levels required when called:    8
  5763 ;; This function calls:
  5764 ;;		Nothing
  5765 ;; This function is called by:
  5766 ;;		_EPWM2_engine_SoftStop
  5767 ;;		_i2c2_control
  5768 ;;		_EPWM3_engine_SoftStart
  5769 ;;		_EPWM3_engine_SoftStop
  5770 ;;		_EPWM2_engine_SoftStart
  5771 ;; This function uses a non-reentrant model
  5772 ;;
  5773                           
  5774                           	psect	text34
  5775  003DF8                     __ptext34:
  5776                           	opt callstack 0
  5777  003DF8                     _TMR0_StopTimer:
  5778                           	opt callstack 19
  5779  003DF8                     
  5780                           ;mcc_generated_files/tmr0.c: 44:     T0CONbits.TMR0ON = 0;
  5781  003DF8  9ED5               	bcf	213,7,c	;volatile
  5782  003DFA  0012               	return		;funcret
  5783  003DFC                     __end_of_TMR0_StopTimer:
  5784                           	opt callstack 0
  5785                           
  5786 ;; *************** function _TMR0_StartTimer *****************
  5787 ;; Defined at:
  5788 ;;		line 38 in file "mcc_generated_files/tmr0.c"
  5789 ;; Parameters:    Size  Location     Type
  5790 ;;		None
  5791 ;; Auto vars:     Size  Location     Type
  5792 ;;		None
  5793 ;; Return value:  Size  Location     Type
  5794 ;;                  1    wreg      void 
  5795 ;; Registers used:
  5796 ;;		None
  5797 ;; Tracked objects:
  5798 ;;		On entry : 0/0
  5799 ;;		On exit  : 0/0
  5800 ;;		Unchanged: 0/0
  5801 ;; Data sizes:     COMRAM   BANK0   BANK1   BANK2   BANK3   BANK4   BANK5   BANK6   BANK7   BANK8   BANK9  BANK10  BANK1
      +1  BANK12  BANK13  BANK14  BANK15
  5802 ;;      Params:         0       0       0       0       0       0       0       0       0       0       0       0       
      +0       0       0       0       0
  5803 ;;      Locals:         0       0       0       0       0       0       0       0       0       0       0       0       
      +0       0       0       0       0
  5804 ;;      Temps:          0       0       0       0       0       0       0       0       0       0       0       0       
      +0       0       0       0       0
  5805 ;;      Totals:         0       0       0       0       0       0       0       0       0       0       0       0       
      +0       0       0       0       0
  5806 ;;Total ram usage:        0 bytes
  5807 ;; Hardware stack levels used:    1
  5808 ;; Hardware stack levels required when called:    8
  5809 ;; This function calls:
  5810 ;;		Nothing
  5811 ;; This function is called by:
  5812 ;;		_EPWM2_engine_SoftStop
  5813 ;;		_i2c2_control
  5814 ;;		_EPWM3_engine_SoftStart
  5815 ;;		_EPWM3_engine_SoftStop
  5816 ;;		_EPWM2_engine_SoftStart
  5817 ;; This function uses a non-reentrant model
  5818 ;;
  5819                           
  5820                           	psect	text35
  5821  003DFC                     __ptext35:
  5822                           	opt callstack 0
  5823  003DFC                     _TMR0_StartTimer:
  5824                           	opt callstack 19
  5825  003DFC                     
  5826                           ;mcc_generated_files/tmr0.c: 39:     T0CONbits.TMR0ON = 1;
  5827  003DFC  8ED5               	bsf	213,7,c	;volatile
  5828  003DFE  0012               	return		;funcret
  5829  003E00                     __end_of_TMR0_StartTimer:
  5830                           	opt callstack 0
  5831                           
  5832 ;; *************** function _TMR0_Reload *****************
  5833 ;; Defined at:
  5834 ;;		line 62 in file "mcc_generated_files/tmr0.c"
  5835 ;; Parameters:    Size  Location     Type
  5836 ;;		None
  5837 ;; Auto vars:     Size  Location     Type
  5838 ;;		None
  5839 ;; Return value:  Size  Location     Type
  5840 ;;                  1    wreg      void 
  5841 ;; Registers used:
  5842 ;;		wreg, status,2
  5843 ;; Tracked objects:
  5844 ;;		On entry : 0/0
  5845 ;;		On exit  : 0/0
  5846 ;;		Unchanged: 0/0
  5847 ;; Data sizes:     COMRAM   BANK0   BANK1   BANK2   BANK3   BANK4   BANK5   BANK6   BANK7   BANK8   BANK9  BANK10  BANK1
      +1  BANK12  BANK13  BANK14  BANK15
  5848 ;;      Params:         0       0       0       0       0       0       0       0       0       0       0       0       
      +0       0       0       0       0
  5849 ;;      Locals:         0       0       0       0       0       0       0       0       0       0       0       0       
      +0       0       0       0       0
  5850 ;;      Temps:          0       0       0       0       0       0       0       0       0       0       0       0       
      +0       0       0       0       0
  5851 ;;      Totals:         0       0       0       0       0       0       0       0       0       0       0       0       
      +0       0       0       0       0
  5852 ;;Total ram usage:        0 bytes
  5853 ;; Hardware stack levels used:    1
  5854 ;; Hardware stack levels required when called:    8
  5855 ;; This function calls:
  5856 ;;		Nothing
  5857 ;; This function is called by:
  5858 ;;		_EPWM2_engine_SoftStop
  5859 ;;		_i2c2_control
  5860 ;;		_EPWM3_engine_SoftStart
  5861 ;;		_EPWM3_engine_SoftStop
  5862 ;;		_EPWM2_engine_SoftStart
  5863 ;; This function uses a non-reentrant model
  5864 ;;
  5865                           
  5866                           	psect	text36
  5867  003D5A                     __ptext36:
  5868                           	opt callstack 0
  5869  003D5A                     _TMR0_Reload:
  5870                           	opt callstack 19
  5871  003D5A                     
  5872                           ;mcc_generated_files/tmr0.c: 63:     TMR0H = timer0ReloadVal >> 8;
  5873  003D5A  0100               	movlb	0	; () banked
  5874  003D5C  51AD               	movf	(_timer0ReloadVal+1)& (0+255),w,b	;volatile
  5875  003D5E  6ED7               	movwf	215,c	;volatile
  5876  003D60                     
  5877                           ; BSR set to: 0
  5878                           ;mcc_generated_files/tmr0.c: 64:     TMR0L = (uint8_t) timer0ReloadVal;
  5879  003D60  C0AC  FFD6         	movff	_timer0ReloadVal,4054	;volatile
  5880  003D64                     
  5881                           ; BSR set to: 0
  5882  003D64  0012               	return		;funcret
  5883  003D66                     __end_of_TMR0_Reload:
  5884                           	opt callstack 0
  5885                           
  5886 ;; *************** function _TMR0_HasOverflowOccured *****************
  5887 ;; Defined at:
  5888 ;;		line 68 in file "mcc_generated_files/tmr0.c"
  5889 ;; Parameters:    Size  Location     Type
  5890 ;;		None
  5891 ;; Auto vars:     Size  Location     Type
  5892 ;;		None
  5893 ;; Return value:  Size  Location     Type
  5894 ;;                  1    wreg      _Bool 
  5895 ;; Registers used:
  5896 ;;		wreg
  5897 ;; Tracked objects:
  5898 ;;		On entry : 0/0
  5899 ;;		On exit  : 0/0
  5900 ;;		Unchanged: 0/0
  5901 ;; Data sizes:     COMRAM   BANK0   BANK1   BANK2   BANK3   BANK4   BANK5   BANK6   BANK7   BANK8   BANK9  BANK10  BANK1
      +1  BANK12  BANK13  BANK14  BANK15
  5902 ;;      Params:         0       0       0       0       0       0       0       0       0       0       0       0       
      +0       0       0       0       0
  5903 ;;      Locals:         0       0       0       0       0       0       0       0       0       0       0       0       
      +0       0       0       0       0
  5904 ;;      Temps:          0       0       0       0       0       0       0       0       0       0       0       0       
      +0       0       0       0       0
  5905 ;;      Totals:         0       0       0       0       0       0       0       0       0       0       0       0       
      +0       0       0       0       0
  5906 ;;Total ram usage:        0 bytes
  5907 ;; Hardware stack levels used:    1
  5908 ;; Hardware stack levels required when called:    8
  5909 ;; This function calls:
  5910 ;;		Nothing
  5911 ;; This function is called by:
  5912 ;;		_EPWM2_engine_SoftStop
  5913 ;;		_i2c2_control
  5914 ;;		_EPWM3_engine_SoftStart
  5915 ;;		_EPWM3_engine_SoftStop
  5916 ;;		_EPWM2_engine_SoftStart
  5917 ;; This function uses a non-reentrant model
  5918 ;;
  5919                           
  5920                           	psect	text37
  5921  003D18                     __ptext37:
  5922                           	opt callstack 0
  5923  003D18                     _TMR0_HasOverflowOccured:
  5924                           	opt callstack 19
  5925  003D18                     
  5926                           ;mcc_generated_files/tmr0.c: 69:     return (INTCONbits.TMR0IF);
  5927  003D18  B4F2               	btfsc	242,2,c	;volatile
  5928  003D1A  EF91  F01E         	goto	u5721
  5929  003D1E  EF94  F01E         	goto	u5720
  5930  003D22                     u5721:
  5931  003D22  0E01               	movlw	1
  5932  003D24  EF95  F01E         	goto	u5726
  5933  003D28                     u5720:
  5934  003D28  0E00               	movlw	0
  5935  003D2A                     u5726:
  5936  003D2A  0012               	return		;funcret
  5937  003D2C                     __end_of_TMR0_HasOverflowOccured:
  5938                           	opt callstack 0
  5939                           
  5940 ;; *************** function _TMR0_Initialize *****************
  5941 ;; Defined at:
  5942 ;;		line 16 in file "mcc_generated_files/tmr0.c"
  5943 ;; Parameters:    Size  Location     Type
  5944 ;;  period          1    wreg     unsigned char 
  5945 ;; Auto vars:     Size  Location     Type
  5946 ;;  period          1   52[COMRAM] unsigned char 
  5947 ;; Return value:  Size  Location     Type
  5948 ;;                  1    wreg      void 
  5949 ;; Registers used:
  5950 ;;		wreg, status,2, status,0, cstack
  5951 ;; Tracked objects:
  5952 ;;		On entry : 0/0
  5953 ;;		On exit  : 0/0
  5954 ;;		Unchanged: 0/0
  5955 ;; Data sizes:     COMRAM   BANK0   BANK1   BANK2   BANK3   BANK4   BANK5   BANK6   BANK7   BANK8   BANK9  BANK10  BANK1
      +1  BANK12  BANK13  BANK14  BANK15
  5956 ;;      Params:         0       0       0       0       0       0       0       0       0       0       0       0       
      +0       0       0       0       0
  5957 ;;      Locals:         1       0       0       0       0       0       0       0       0       0       0       0       
      +0       0       0       0       0
  5958 ;;      Temps:          0       0       0       0       0       0       0       0       0       0       0       0       
      +0       0       0       0       0
  5959 ;;      Totals:         1       0       0       0       0       0       0       0       0       0       0       0       
      +0       0       0       0       0
  5960 ;;Total ram usage:        1 bytes
  5961 ;; Hardware stack levels used:    1
  5962 ;; Hardware stack levels required when called:   10
  5963 ;; This function calls:
  5964 ;;		_TMR0_WriteTimer
  5965 ;; This function is called by:
  5966 ;;		_SYSTEM_Initialize
  5967 ;; This function uses a non-reentrant model
  5968 ;;
  5969                           
  5970                           	psect	text38
  5971  003CB8                     __ptext38:
  5972                           	opt callstack 0
  5973  003CB8                     _TMR0_Initialize:
  5974                           	opt callstack 19
  5975                           
  5976                           ;incstack = 0
  5977                           ;TMR0_Initialize@period stored from wreg
  5978  003CB8  6E35               	movwf	TMR0_Initialize@period^0,c
  5979  003CBA                     
  5980                           ;mcc_generated_files/tmr0.c: 17:     T0CON = 0x04;
  5981  003CBA  0E04               	movlw	4
  5982  003CBC  6ED5               	movwf	213,c	;volatile
  5983  003CBE                     
  5984                           ;mcc_generated_files/tmr0.c: 18:     INTCONbits.TMR0IF = 0;
  5985  003CBE  94F2               	bcf	242,2,c	;volatile
  5986  003CC0                     
  5987                           ;mcc_generated_files/tmr0.c: 23:     timer0ReloadVal = TMR0_WriteTimer(period);
  5988  003CC0  5035               	movf	TMR0_Initialize@period^0,w,c
  5989  003CC2  EC10  F018         	call	_TMR0_WriteTimer
  5990  003CC6  C02E  F0AC         	movff	?_TMR0_WriteTimer,_timer0ReloadVal	;volatile
  5991  003CCA  C02F  F0AD         	movff	?_TMR0_WriteTimer+1,_timer0ReloadVal+1	;volatile
  5992  003CCE                     
  5993                           ;mcc_generated_files/tmr0.c: 24:     T = period;
  5994  003CCE  C035  F0BB         	movff	TMR0_Initialize@period,_T	;volatile
  5995  003CD2  0012               	return		;funcret
  5996  003CD4                     __end_of_TMR0_Initialize:
  5997                           	opt callstack 0
  5998                           
  5999 ;; *************** function _TMR0_WriteTimer *****************
  6000 ;; Defined at:
  6001 ;;		line 48 in file "mcc_generated_files/tmr0.c"
  6002 ;; Parameters:    Size  Location     Type
  6003 ;;  timerVal        1    wreg     unsigned char 
  6004 ;; Auto vars:     Size  Location     Type
  6005 ;;  timerVal        1   49[COMRAM] unsigned char 
  6006 ;;  period          2   50[COMRAM] unsigned short 
  6007 ;; Return value:  Size  Location     Type
  6008 ;;                  2   45[COMRAM] unsigned short 
  6009 ;; Registers used:
  6010 ;;		wreg, status,2, status,0, cstack
  6011 ;; Tracked objects:
  6012 ;;		On entry : 0/0
  6013 ;;		On exit  : 0/0
  6014 ;;		Unchanged: 0/0
  6015 ;; Data sizes:     COMRAM   BANK0   BANK1   BANK2   BANK3   BANK4   BANK5   BANK6   BANK7   BANK8   BANK9  BANK10  BANK1
      +1  BANK12  BANK13  BANK14  BANK15
  6016 ;;      Params:         2       0       0       0       0       0       0       0       0       0       0       0       
      +0       0       0       0       0
  6017 ;;      Locals:         3       0       0       0       0       0       0       0       0       0       0       0       
      +0       0       0       0       0
  6018 ;;      Temps:          2       0       0       0       0       0       0       0       0       0       0       0       
      +0       0       0       0       0
  6019 ;;      Totals:         7       0       0       0       0       0       0       0       0       0       0       0       
      +0       0       0       0       0
  6020 ;;Total ram usage:        7 bytes
  6021 ;; Hardware stack levels used:    1
  6022 ;; Hardware stack levels required when called:    9
  6023 ;; This function calls:
  6024 ;;		___aldiv
  6025 ;;		___lmul
  6026 ;; This function is called by:
  6027 ;;		_TMR0_Initialize
  6028 ;;		_TMR0_period
  6029 ;; This function uses a non-reentrant model
  6030 ;;
  6031                           
  6032                           	psect	text39
  6033  003020                     __ptext39:
  6034                           	opt callstack 0
  6035  003020                     _TMR0_WriteTimer:
  6036                           	opt callstack 17
  6037                           
  6038                           ;incstack = 0
  6039                           ;TMR0_WriteTimer@timerVal stored from wreg
  6040  003020  6E32               	movwf	TMR0_WriteTimer@timerVal^0,c
  6041  003022                     
  6042                           ;mcc_generated_files/tmr0.c: 49:     uint16_t period;;mcc_generated_files/tmr0.c: 50:   
      +                            if (timerVal < 5)
  6043  003022  0E05               	movlw	5
  6044  003024  6032               	cpfslt	TMR0_WriteTimer@timerVal^0,c
  6045  003026  EF17  F018         	goto	u5681
  6046  00302A  EF19  F018         	goto	u5680
  6047  00302E                     u5681:
  6048  00302E  EF1F  F018         	goto	l6768
  6049  003032                     u5680:
  6050  003032                     
  6051                           ;mcc_generated_files/tmr0.c: 51:         period = 65535 - ((5 * (64000000 / 1000)) / (4 
      +                          * 32));
  6052  003032  0EF6               	movlw	246
  6053  003034  6E34               	movwf	(TMR0_WriteTimer@period+1)^0,c
  6054  003036  0E3B               	movlw	59
  6055  003038  6E33               	movwf	TMR0_WriteTimer@period^0,c
  6056  00303A  EF52  F018         	goto	l6774
  6057  00303E                     l6768:
  6058  00303E  0E83               	movlw	131
  6059  003040  6432               	cpfsgt	TMR0_WriteTimer@timerVal^0,c
  6060  003042  EF25  F018         	goto	u5691
  6061  003046  EF27  F018         	goto	u5690
  6062  00304A                     u5691:
  6063  00304A  EF2D  F018         	goto	l6772
  6064  00304E                     u5690:
  6065  00304E                     
  6066                           ;mcc_generated_files/tmr0.c: 53:         period = 65535 - ((131 * (64000000 / 1000)) / (
      +                          4 * 32));
  6067  00304E  0E00               	movlw	0
  6068  003050  6E34               	movwf	(TMR0_WriteTimer@period+1)^0,c
  6069  003052  0E23               	movlw	35
  6070  003054  6E33               	movwf	TMR0_WriteTimer@period^0,c
  6071  003056  EF52  F018         	goto	l6774
  6072  00305A                     l6772:
  6073                           
  6074                           ;mcc_generated_files/tmr0.c: 55:         period = 65535 - ((timerVal * (64000000 / 1000)
      +                          ) / (4 * 32));
  6075  00305A  5032               	movf	TMR0_WriteTimer@timerVal^0,w,c
  6076  00305C  6E14               	movwf	___lmul@multiplier^0,c
  6077  00305E  6A15               	clrf	(___lmul@multiplier+1)^0,c
  6078  003060  6A16               	clrf	(___lmul@multiplier+2)^0,c
  6079  003062  6A17               	clrf	(___lmul@multiplier+3)^0,c
  6080  003064  0E00               	movlw	0
  6081  003066  6E18               	movwf	___lmul@multiplicand^0,c
  6082  003068  0EFA               	movlw	250
  6083  00306A  6E19               	movwf	(___lmul@multiplicand+1)^0,c
  6084  00306C  0E00               	movlw	0
  6085  00306E  6E1A               	movwf	(___lmul@multiplicand+2)^0,c
  6086  003070  0E00               	movlw	0
  6087  003072  6E1B               	movwf	(___lmul@multiplicand+3)^0,c
  6088  003074  EC12  F01C         	call	___lmul	;wreg free
  6089  003078  C014  F020         	movff	?___lmul,___aldiv@dividend
  6090  00307C  C015  F021         	movff	?___lmul+1,___aldiv@dividend+1
  6091  003080  C016  F022         	movff	?___lmul+2,___aldiv@dividend+2
  6092  003084  C017  F023         	movff	?___lmul+3,___aldiv@dividend+3
  6093  003088  0E80               	movlw	128
  6094  00308A  6E24               	movwf	___aldiv@divisor^0,c
  6095  00308C  0E00               	movlw	0
  6096  00308E  6E25               	movwf	(___aldiv@divisor+1)^0,c
  6097  003090  0E00               	movlw	0
  6098  003092  6E26               	movwf	(___aldiv@divisor+2)^0,c
  6099  003094  0E00               	movlw	0
  6100  003096  6E27               	movwf	(___aldiv@divisor+3)^0,c
  6101  003098  EC35  F013         	call	___aldiv	;wreg free
  6102  00309C  1C20               	comf	?___aldiv^0,w,c
  6103  00309E  6E33               	movwf	TMR0_WriteTimer@period^0,c
  6104  0030A0  1C21               	comf	(?___aldiv+1)^0,w,c
  6105  0030A2  6E34               	movwf	(TMR0_WriteTimer@period+1)^0,c
  6106  0030A4                     l6774:
  6107                           
  6108                           ;mcc_generated_files/tmr0.c: 57:     TMR0H = period >> 8;
  6109  0030A4  5034               	movf	(TMR0_WriteTimer@period+1)^0,w,c
  6110  0030A6  6ED7               	movwf	215,c	;volatile
  6111  0030A8                     
  6112                           ;mcc_generated_files/tmr0.c: 58:     TMR0L = (uint8_t) period;
  6113  0030A8  C033  FFD6         	movff	TMR0_WriteTimer@period,4054	;volatile
  6114  0030AC                     
  6115                           ;mcc_generated_files/tmr0.c: 59:     return (uint16_t) ((period << 8) | period);
  6116  0030AC  5033               	movf	TMR0_WriteTimer@period^0,w,c
  6117  0030AE  6E31               	movwf	(??_TMR0_WriteTimer+1)^0,c
  6118  0030B0  6A30               	clrf	??_TMR0_WriteTimer^0,c
  6119  0030B2  5033               	movf	TMR0_WriteTimer@period^0,w,c
  6120  0030B4  1030               	iorwf	??_TMR0_WriteTimer^0,w,c
  6121  0030B6  6E2E               	movwf	?_TMR0_WriteTimer^0,c
  6122  0030B8  5034               	movf	(TMR0_WriteTimer@period+1)^0,w,c
  6123  0030BA  1031               	iorwf	(??_TMR0_WriteTimer+1)^0,w,c
  6124  0030BC  6E2F               	movwf	(?_TMR0_WriteTimer+1)^0,c
  6125  0030BE  0012               	return		;funcret
  6126  0030C0                     __end_of_TMR0_WriteTimer:
  6127                           	opt callstack 0
  6128                           
  6129 ;; *************** function ___lmul *****************
  6130 ;; Defined at:
  6131 ;;		line 15 in file "C:\Program Files (x86)\Microchip\xc8\v2.10\pic\sources\c99\common\Umul32.c"
  6132 ;; Parameters:    Size  Location     Type
  6133 ;;  multiplier      4   19[COMRAM] unsigned long 
  6134 ;;  multiplicand    4   23[COMRAM] unsigned long 
  6135 ;; Auto vars:     Size  Location     Type
  6136 ;;  product         4   27[COMRAM] unsigned long 
  6137 ;; Return value:  Size  Location     Type
  6138 ;;                  4   19[COMRAM] unsigned long 
  6139 ;; Registers used:
  6140 ;;		wreg, status,2, status,0
  6141 ;; Tracked objects:
  6142 ;;		On entry : 0/0
  6143 ;;		On exit  : 0/0
  6144 ;;		Unchanged: 0/0
  6145 ;; Data sizes:     COMRAM   BANK0   BANK1   BANK2   BANK3   BANK4   BANK5   BANK6   BANK7   BANK8   BANK9  BANK10  BANK1
      +1  BANK12  BANK13  BANK14  BANK15
  6146 ;;      Params:         8       0       0       0       0       0       0       0       0       0       0       0       
      +0       0       0       0       0
  6147 ;;      Locals:         4       0       0       0       0       0       0       0       0       0       0       0       
      +0       0       0       0       0
  6148 ;;      Temps:          0       0       0       0       0       0       0       0       0       0       0       0       
      +0       0       0       0       0
  6149 ;;      Totals:        12       0       0       0       0       0       0       0       0       0       0       0       
      +0       0       0       0       0
  6150 ;;Total ram usage:       12 bytes
  6151 ;; Hardware stack levels used:    1
  6152 ;; Hardware stack levels required when called:    8
  6153 ;; This function calls:
  6154 ;;		Nothing
  6155 ;; This function is called by:
  6156 ;;		_TMR0_WriteTimer
  6157 ;; This function uses a non-reentrant model
  6158 ;;
  6159                           
  6160                           	psect	text40
  6161  003824                     __ptext40:
  6162                           	opt callstack 0
  6163  003824                     ___lmul:
  6164                           	opt callstack 17
  6165  003824  0E00               	movlw	0
  6166  003826  6E1C               	movwf	___lmul@product^0,c
  6167  003828  0E00               	movlw	0
  6168  00382A  6E1D               	movwf	(___lmul@product+1)^0,c
  6169  00382C  0E00               	movlw	0
  6170  00382E  6E1E               	movwf	(___lmul@product+2)^0,c
  6171  003830  0E00               	movlw	0
  6172  003832  6E1F               	movwf	(___lmul@product+3)^0,c
  6173  003834                     l6712:
  6174  003834  A014               	btfss	___lmul@multiplier^0,0,c
  6175  003836  EF1F  F01C         	goto	u5601
  6176  00383A  EF21  F01C         	goto	u5600
  6177  00383E                     u5601:
  6178  00383E  EF29  F01C         	goto	l6716
  6179  003842                     u5600:
  6180  003842  5018               	movf	___lmul@multiplicand^0,w,c
  6181  003844  261C               	addwf	___lmul@product^0,f,c
  6182  003846  5019               	movf	(___lmul@multiplicand+1)^0,w,c
  6183  003848  221D               	addwfc	(___lmul@product+1)^0,f,c
  6184  00384A  501A               	movf	(___lmul@multiplicand+2)^0,w,c
  6185  00384C  221E               	addwfc	(___lmul@product+2)^0,f,c
  6186  00384E  501B               	movf	(___lmul@multiplicand+3)^0,w,c
  6187  003850  221F               	addwfc	(___lmul@product+3)^0,f,c
  6188  003852                     l6716:
  6189  003852  90D8               	bcf	status,0,c
  6190  003854  3618               	rlcf	___lmul@multiplicand^0,f,c
  6191  003856  3619               	rlcf	(___lmul@multiplicand+1)^0,f,c
  6192  003858  361A               	rlcf	(___lmul@multiplicand+2)^0,f,c
  6193  00385A  361B               	rlcf	(___lmul@multiplicand+3)^0,f,c
  6194  00385C  90D8               	bcf	status,0,c
  6195  00385E  3217               	rrcf	(___lmul@multiplier+3)^0,f,c
  6196  003860  3216               	rrcf	(___lmul@multiplier+2)^0,f,c
  6197  003862  3215               	rrcf	(___lmul@multiplier+1)^0,f,c
  6198  003864  3214               	rrcf	___lmul@multiplier^0,f,c
  6199  003866  5014               	movf	___lmul@multiplier^0,w,c
  6200  003868  1015               	iorwf	(___lmul@multiplier+1)^0,w,c
  6201  00386A  1016               	iorwf	(___lmul@multiplier+2)^0,w,c
  6202  00386C  1017               	iorwf	(___lmul@multiplier+3)^0,w,c
  6203  00386E  A4D8               	btfss	status,2,c
  6204  003870  EF3C  F01C         	goto	u5611
  6205  003874  EF3E  F01C         	goto	u5610
  6206  003878                     u5611:
  6207  003878  EF1A  F01C         	goto	l6712
  6208  00387C                     u5610:
  6209  00387C  C01C  F014         	movff	___lmul@product,?___lmul
  6210  003880  C01D  F015         	movff	___lmul@product+1,?___lmul+1
  6211  003884  C01E  F016         	movff	___lmul@product+2,?___lmul+2
  6212  003888  C01F  F017         	movff	___lmul@product+3,?___lmul+3
  6213  00388C  0012               	return		;funcret
  6214  00388E                     __end_of___lmul:
  6215                           	opt callstack 0
  6216                           
  6217 ;; *************** function _PIN_MANAGER_Initialize *****************
  6218 ;; Defined at:
  6219 ;;		line 10 in file "mcc_generated_files/pin_manager.c"
  6220 ;; Parameters:    Size  Location     Type
  6221 ;;		None
  6222 ;; Auto vars:     Size  Location     Type
  6223 ;;		None
  6224 ;; Return value:  Size  Location     Type
  6225 ;;                  1    wreg      void 
  6226 ;; Registers used:
  6227 ;;		wreg, status,2
  6228 ;; Tracked objects:
  6229 ;;		On entry : 0/0
  6230 ;;		On exit  : 0/0
  6231 ;;		Unchanged: 0/0
  6232 ;; Data sizes:     COMRAM   BANK0   BANK1   BANK2   BANK3   BANK4   BANK5   BANK6   BANK7   BANK8   BANK9  BANK10  BANK1
      +1  BANK12  BANK13  BANK14  BANK15
  6233 ;;      Params:         0       0       0       0       0       0       0       0       0       0       0       0       
      +0       0       0       0       0
  6234 ;;      Locals:         0       0       0       0       0       0       0       0       0       0       0       0       
      +0       0       0       0       0
  6235 ;;      Temps:          0       0       0       0       0       0       0       0       0       0       0       0       
      +0       0       0       0       0
  6236 ;;      Totals:         0       0       0       0       0       0       0       0       0       0       0       0       
      +0       0       0       0       0
  6237 ;;Total ram usage:        0 bytes
  6238 ;; Hardware stack levels used:    1
  6239 ;; Hardware stack levels required when called:    8
  6240 ;; This function calls:
  6241 ;;		Nothing
  6242 ;; This function is called by:
  6243 ;;		_SYSTEM_Initialize
  6244 ;; This function uses a non-reentrant model
  6245 ;;
  6246                           
  6247                           	psect	text41
  6248  0039A4                     __ptext41:
  6249                           	opt callstack 0
  6250  0039A4                     _PIN_MANAGER_Initialize:
  6251                           	opt callstack 21
  6252  0039A4                     
  6253                           ;mcc_generated_files/pin_manager.c: 13:     LATA = 0x00;
  6254  0039A4  0E00               	movlw	0
  6255  0039A6  6E89               	movwf	137,c	;volatile
  6256                           
  6257                           ;mcc_generated_files/pin_manager.c: 14:     LATB = 0x00;
  6258  0039A8  0E00               	movlw	0
  6259  0039AA  6E8A               	movwf	138,c	;volatile
  6260                           
  6261                           ;mcc_generated_files/pin_manager.c: 15:     LATC = 0x00;
  6262  0039AC  0E00               	movlw	0
  6263  0039AE  6E8B               	movwf	139,c	;volatile
  6264                           
  6265                           ;mcc_generated_files/pin_manager.c: 16:     LATD = 0x00;
  6266  0039B0  0E00               	movlw	0
  6267  0039B2  6E8C               	movwf	140,c	;volatile
  6268                           
  6269                           ;mcc_generated_files/pin_manager.c: 17:     LATE = 0x00;
  6270  0039B4  0E00               	movlw	0
  6271  0039B6  6E8D               	movwf	141,c	;volatile
  6272                           
  6273                           ;mcc_generated_files/pin_manager.c: 19:     TRISA = 0xE7;
  6274  0039B8  0EE7               	movlw	231
  6275  0039BA  6E92               	movwf	146,c	;volatile
  6276                           
  6277                           ;mcc_generated_files/pin_manager.c: 24:     TRISB = 0xC7;
  6278  0039BC  0EC7               	movlw	199
  6279  0039BE  6E93               	movwf	147,c	;volatile
  6280                           
  6281                           ;mcc_generated_files/pin_manager.c: 26:     TRISC = 0xC7;
  6282  0039C0  0EC7               	movlw	199
  6283  0039C2  6E94               	movwf	148,c	;volatile
  6284                           
  6285                           ;mcc_generated_files/pin_manager.c: 29:     TRISD = 0x02;
  6286  0039C4  0E02               	movlw	2
  6287  0039C6  6E95               	movwf	149,c	;volatile
  6288                           
  6289                           ;mcc_generated_files/pin_manager.c: 33:     TRISE = 0x03;
  6290  0039C8  0E03               	movlw	3
  6291  0039CA  6E96               	movwf	150,c	;volatile
  6292                           
  6293                           ;mcc_generated_files/pin_manager.c: 37:     ANSELA = 0x07;
  6294  0039CC  0E07               	movlw	7
  6295  0039CE  010F               	movlb	15	; () banked
  6296  0039D0  6F38               	movwf	56,b	;volatile
  6297                           
  6298                           ;mcc_generated_files/pin_manager.c: 39:     ANSELB = 0;
  6299  0039D2  0E00               	movlw	0
  6300  0039D4  6F39               	movwf	57,b	;volatile
  6301                           
  6302                           ;mcc_generated_files/pin_manager.c: 40:     ANSELC = 0;
  6303  0039D6  0E00               	movlw	0
  6304  0039D8  6F3A               	movwf	58,b	;volatile
  6305                           
  6306                           ;mcc_generated_files/pin_manager.c: 41:     ANSELD = 0;
  6307  0039DA  0E00               	movlw	0
  6308  0039DC  6F3B               	movwf	59,b	;volatile
  6309                           
  6310                           ;mcc_generated_files/pin_manager.c: 42:     ANSELE = 0;
  6311  0039DE  0E00               	movlw	0
  6312  0039E0  6F3C               	movwf	60,b	;volatile
  6313                           
  6314                           ;mcc_generated_files/pin_manager.c: 44:     WPUB = 0x04;
  6315  0039E2  0E04               	movlw	4
  6316  0039E4  6E61               	movwf	97,c	;volatile
  6317  0039E6                     
  6318                           ; BSR set to: 15
  6319                           ;mcc_generated_files/pin_manager.c: 45:     INTCON2bits.nRBPU = 0;
  6320  0039E6  9EF1               	bcf	241,7,c	;volatile
  6321  0039E8                     
  6322                           ; BSR set to: 15
  6323  0039E8  0012               	return		;funcret
  6324  0039EA                     __end_of_PIN_MANAGER_Initialize:
  6325                           	opt callstack 0
  6326                           
  6327 ;; *************** function _OSCILLATOR_Initialize *****************
  6328 ;; Defined at:
  6329 ;;		line 28 in file "mcc_generated_files/mcc.c"
  6330 ;; Parameters:    Size  Location     Type
  6331 ;;		None
  6332 ;; Auto vars:     Size  Location     Type
  6333 ;;		None
  6334 ;; Return value:  Size  Location     Type
  6335 ;;                  1    wreg      void 
  6336 ;; Registers used:
  6337 ;;		wreg, status,2
  6338 ;; Tracked objects:
  6339 ;;		On entry : 0/0
  6340 ;;		On exit  : 0/0
  6341 ;;		Unchanged: 0/0
  6342 ;; Data sizes:     COMRAM   BANK0   BANK1   BANK2   BANK3   BANK4   BANK5   BANK6   BANK7   BANK8   BANK9  BANK10  BANK1
      +1  BANK12  BANK13  BANK14  BANK15
  6343 ;;      Params:         0       0       0       0       0       0       0       0       0       0       0       0       
      +0       0       0       0       0
  6344 ;;      Locals:         0       0       0       0       0       0       0       0       0       0       0       0       
      +0       0       0       0       0
  6345 ;;      Temps:          0       0       0       0       0       0       0       0       0       0       0       0       
      +0       0       0       0       0
  6346 ;;      Totals:         0       0       0       0       0       0       0       0       0       0       0       0       
      +0       0       0       0       0
  6347 ;;Total ram usage:        0 bytes
  6348 ;; Hardware stack levels used:    1
  6349 ;; Hardware stack levels required when called:    8
  6350 ;; This function calls:
  6351 ;;		Nothing
  6352 ;; This function is called by:
  6353 ;;		_SYSTEM_Initialize
  6354 ;; This function uses a non-reentrant model
  6355 ;;
  6356                           
  6357                           	psect	text42
  6358  003CD4                     __ptext42:
  6359                           	opt callstack 0
  6360  003CD4                     _OSCILLATOR_Initialize:
  6361                           	opt callstack 21
  6362  003CD4                     
  6363                           ;mcc_generated_files/mcc.c: 32:     OSCCON = 0x08;
  6364  003CD4  0E08               	movlw	8
  6365  003CD6  6ED3               	movwf	211,c	;volatile
  6366                           
  6367                           ;mcc_generated_files/mcc.c: 38:     OSCCON2 = 0x04;
  6368  003CD8  0E04               	movlw	4
  6369  003CDA  6ED2               	movwf	210,c	;volatile
  6370  003CDC                     l42:
  6371  003CDC  AED2               	btfss	210,7,c	;volatile
  6372  003CDE  EF73  F01E         	goto	u4551
  6373  003CE2  EF75  F01E         	goto	u4550
  6374  003CE6                     u4551:
  6375  003CE6  EF6E  F01E         	goto	l42
  6376  003CEA                     u4550:
  6377  003CEA  0012               	return		;funcret
  6378  003CEC                     __end_of_OSCILLATOR_Initialize:
  6379                           	opt callstack 0
  6380                           
  6381 ;; *************** function _INTERRUPT_Initialize *****************
  6382 ;; Defined at:
  6383 ;;		line 12 in file "mcc_generated_files/interrupt_manager.c"
  6384 ;; Parameters:    Size  Location     Type
  6385 ;;		None
  6386 ;; Auto vars:     Size  Location     Type
  6387 ;;		None
  6388 ;; Return value:  Size  Location     Type
  6389 ;;                  1    wreg      void 
  6390 ;; Registers used:
  6391 ;;		wreg, status,2, cstack
  6392 ;; Tracked objects:
  6393 ;;		On entry : 0/0
  6394 ;;		On exit  : 0/0
  6395 ;;		Unchanged: 0/0
  6396 ;; Data sizes:     COMRAM   BANK0   BANK1   BANK2   BANK3   BANK4   BANK5   BANK6   BANK7   BANK8   BANK9  BANK10  BANK1
      +1  BANK12  BANK13  BANK14  BANK15
  6397 ;;      Params:         0       0       0       0       0       0       0       0       0       0       0       0       
      +0       0       0       0       0
  6398 ;;      Locals:         0       0       0       0       0       0       0       0       0       0       0       0       
      +0       0       0       0       0
  6399 ;;      Temps:          0       0       0       0       0       0       0       0       0       0       0       0       
      +0       0       0       0       0
  6400 ;;      Totals:         0       0       0       0       0       0       0       0       0       0       0       0       
      +0       0       0       0       0
  6401 ;;Total ram usage:        0 bytes
  6402 ;; Hardware stack levels used:    1
  6403 ;; Hardware stack levels required when called:    9
  6404 ;; This function calls:
  6405 ;;		_EXT_INT_init
  6406 ;; This function is called by:
  6407 ;;		_SYSTEM_Initialize
  6408 ;; This function uses a non-reentrant model
  6409 ;;
  6410                           
  6411                           	psect	text43
  6412  003D2C                     __ptext43:
  6413                           	opt callstack 0
  6414  003D2C                     _INTERRUPT_Initialize:
  6415                           	opt callstack 20
  6416  003D2C                     
  6417                           ;mcc_generated_files/interrupt_manager.c: 13:     RCONbits.IPEN = 1;
  6418  003D2C  8ED0               	bsf	208,7,c	;volatile
  6419                           
  6420                           ;mcc_generated_files/interrupt_manager.c: 16:     IPR1bits.RC1IP = 1;
  6421  003D2E  8A9F               	bsf	159,5,c	;volatile
  6422                           
  6423                           ;mcc_generated_files/interrupt_manager.c: 17:     IPR1bits.TX1IP = 0;
  6424  003D30  989F               	bcf	159,4,c	;volatile
  6425  003D32                     
  6426                           ;mcc_generated_files/interrupt_manager.c: 20:     EXT_INT_init();
  6427  003D32  EC3F  F01E         	call	_EXT_INT_init	;wreg free
  6428  003D36                     
  6429                           ;mcc_generated_files/interrupt_manager.c: 23:     IPR2bits.TMR3IP = 0;
  6430  003D36  92A2               	bcf	162,1,c	;volatile
  6431  003D38                     
  6432                           ;mcc_generated_files/interrupt_manager.c: 24:     IPR1bits.TMR1IP = 0;
  6433  003D38  909F               	bcf	159,0,c	;volatile
  6434  003D3A                     
  6435                           ;mcc_generated_files/interrupt_manager.c: 27:     INTCONbits.RBIF = 0;
  6436  003D3A  90F2               	bcf	242,0,c	;volatile
  6437  003D3C  0012               	return		;funcret
  6438  003D3E                     __end_of_INTERRUPT_Initialize:
  6439                           	opt callstack 0
  6440                           
  6441 ;; *************** function _EXT_INT_init *****************
  6442 ;; Defined at:
  6443 ;;		line 31 in file "mcc_generated_files/interrupt_manager.c"
  6444 ;; Parameters:    Size  Location     Type
  6445 ;;		None
  6446 ;; Auto vars:     Size  Location     Type
  6447 ;;		None
  6448 ;; Return value:  Size  Location     Type
  6449 ;;                  1    wreg      void 
  6450 ;; Registers used:
  6451 ;;		wreg, status,2
  6452 ;; Tracked objects:
  6453 ;;		On entry : 0/0
  6454 ;;		On exit  : 0/0
  6455 ;;		Unchanged: 0/0
  6456 ;; Data sizes:     COMRAM   BANK0   BANK1   BANK2   BANK3   BANK4   BANK5   BANK6   BANK7   BANK8   BANK9  BANK10  BANK1
      +1  BANK12  BANK13  BANK14  BANK15
  6457 ;;      Params:         0       0       0       0       0       0       0       0       0       0       0       0       
      +0       0       0       0       0
  6458 ;;      Locals:         0       0       0       0       0       0       0       0       0       0       0       0       
      +0       0       0       0       0
  6459 ;;      Temps:          0       0       0       0       0       0       0       0       0       0       0       0       
      +0       0       0       0       0
  6460 ;;      Totals:         0       0       0       0       0       0       0       0       0       0       0       0       
      +0       0       0       0       0
  6461 ;;Total ram usage:        0 bytes
  6462 ;; Hardware stack levels used:    1
  6463 ;; Hardware stack levels required when called:    8
  6464 ;; This function calls:
  6465 ;;		Nothing
  6466 ;; This function is called by:
  6467 ;;		_INTERRUPT_Initialize
  6468 ;; This function uses a non-reentrant model
  6469 ;;
  6470                           
  6471                           	psect	text44
  6472  003C7E                     __ptext44:
  6473                           	opt callstack 0
  6474  003C7E                     _EXT_INT_init:
  6475                           	opt callstack 20
  6476  003C7E                     
  6477                           ;mcc_generated_files/interrupt_manager.c: 35:     INTCONbits.INT0IF = 0;
  6478  003C7E  92F2               	bcf	242,1,c	;volatile
  6479                           
  6480                           ;mcc_generated_files/interrupt_manager.c: 36:     INTCON2bits.INTEDG0 = 1;
  6481  003C80  8CF1               	bsf	241,6,c	;volatile
  6482                           
  6483                           ;mcc_generated_files/interrupt_manager.c: 37:     INTCONbits.INT0IE = 1;
  6484  003C82  88F2               	bsf	242,4,c	;volatile
  6485                           
  6486                           ;mcc_generated_files/interrupt_manager.c: 42:     INTCON3bits.INT1IF = 0;
  6487  003C84  90F0               	bcf	240,0,c	;volatile
  6488                           
  6489                           ;mcc_generated_files/interrupt_manager.c: 43:     INTCON3bits.INT1IP = 1;
  6490  003C86  8CF0               	bsf	240,6,c	;volatile
  6491                           
  6492                           ;mcc_generated_files/interrupt_manager.c: 44:     INTCON2bits.INTEDG1 = 1;
  6493  003C88  8AF1               	bsf	241,5,c	;volatile
  6494                           
  6495                           ;mcc_generated_files/interrupt_manager.c: 45:     INTCON3bits.INT1IE = 1;
  6496  003C8A  86F0               	bsf	240,3,c	;volatile
  6497                           
  6498                           ;mcc_generated_files/interrupt_manager.c: 49:     INTCON3bits.INT2IF = 0;
  6499  003C8C  92F0               	bcf	240,1,c	;volatile
  6500                           
  6501                           ;mcc_generated_files/interrupt_manager.c: 50:     INTCON3bits.INT2IP = 0;
  6502  003C8E  9EF0               	bcf	240,7,c	;volatile
  6503                           
  6504                           ;mcc_generated_files/interrupt_manager.c: 51:     INTCON2bits.INTEDG2 = 0;
  6505  003C90  98F1               	bcf	241,4,c	;volatile
  6506                           
  6507                           ;mcc_generated_files/interrupt_manager.c: 52:     INTCON3bits.INT2IE = 1;
  6508  003C92  88F0               	bsf	240,4,c	;volatile
  6509  003C94                     
  6510                           ;mcc_generated_files/interrupt_manager.c: 54:     MODE_BUTTON = 0;
  6511  003C94  0E00               	movlw	0
  6512  003C96  0100               	movlb	0	; () banked
  6513  003C98  6FC2               	movwf	_MODE_BUTTON& (0+255),b
  6514  003C9A                     
  6515                           ; BSR set to: 0
  6516  003C9A  0012               	return		;funcret
  6517  003C9C                     __end_of_EXT_INT_init:
  6518                           	opt callstack 0
  6519                           
  6520 ;; *************** function _EUSART1_Initialize *****************
  6521 ;; Defined at:
  6522 ;;		line 51 in file "mcc_generated_files/eusart1.c"
  6523 ;; Parameters:    Size  Location     Type
  6524 ;;		None
  6525 ;; Auto vars:     Size  Location     Type
  6526 ;;		None
  6527 ;; Return value:  Size  Location     Type
  6528 ;;                  1    wreg      void 
  6529 ;; Registers used:
  6530 ;;		wreg, status,2, status,0, cstack
  6531 ;; Tracked objects:
  6532 ;;		On entry : 0/0
  6533 ;;		On exit  : 0/0
  6534 ;;		Unchanged: 0/0
  6535 ;; Data sizes:     COMRAM   BANK0   BANK1   BANK2   BANK3   BANK4   BANK5   BANK6   BANK7   BANK8   BANK9  BANK10  BANK1
      +1  BANK12  BANK13  BANK14  BANK15
  6536 ;;      Params:         0       0       0       0       0       0       0       0       0       0       0       0       
      +0       0       0       0       0
  6537 ;;      Locals:         0       0       0       0       0       0       0       0       0       0       0       0       
      +0       0       0       0       0
  6538 ;;      Temps:          0       0       0       0       0       0       0       0       0       0       0       0       
      +0       0       0       0       0
  6539 ;;      Totals:         0       0       0       0       0       0       0       0       0       0       0       0       
      +0       0       0       0       0
  6540 ;;Total ram usage:        0 bytes
  6541 ;; Hardware stack levels used:    1
  6542 ;; Hardware stack levels required when called:    9
  6543 ;; This function calls:
  6544 ;;		_EUSART1_SetErrorHandler
  6545 ;;		_EUSART1_SetFramingErrorHandler
  6546 ;;		_EUSART1_SetOverrunErrorHandler
  6547 ;;		_EUSART1_SetRxInterruptHandler
  6548 ;;		_EUSART1_SetTxInterruptHandler
  6549 ;; This function is called by:
  6550 ;;		_SYSTEM_Initialize
  6551 ;; This function uses a non-reentrant model
  6552 ;;
  6553                           
  6554                           	psect	text45
  6555  00354C                     __ptext45:
  6556                           	opt callstack 0
  6557  00354C                     _EUSART1_Initialize:
  6558                           	opt callstack 20
  6559  00354C                     
  6560                           ;mcc_generated_files/eusart1.c: 52:     ANSELC &= 0x3F;
  6561  00354C  0E3F               	movlw	63
  6562  00354E  010F               	movlb	15	; () banked
  6563  003550  173A               	andwf	58,f,b	;volatile
  6564  003552                     
  6565                           ; BSR set to: 15
  6566                           ;mcc_generated_files/eusart1.c: 53:     PIE1bits.RC1IE = 0;
  6567  003552  9A9D               	bcf	157,5,c	;volatile
  6568  003554                     
  6569                           ; BSR set to: 15
  6570                           ;mcc_generated_files/eusart1.c: 54:     EUSART1_SetRxInterruptHandler(EUSART1_Receive_IS
      +                          R);
  6571  003554  0EB8               	movlw	low _EUSART1_Receive_ISR
  6572  003556  6E14               	movwf	EUSART1_SetRxInterruptHandler@interruptHandler^0,c
  6573  003558  0E2C               	movlw	high _EUSART1_Receive_ISR
  6574  00355A  6E15               	movwf	(EUSART1_SetRxInterruptHandler@interruptHandler+1)^0,c
  6575  00355C  ECBD  F01E         	call	_EUSART1_SetRxInterruptHandler	;wreg free
  6576  003560                     
  6577                           ;mcc_generated_files/eusart1.c: 55:     PIE1bits.TX1IE = 0;
  6578  003560  989D               	bcf	157,4,c	;volatile
  6579  003562                     
  6580                           ;mcc_generated_files/eusart1.c: 56:     EUSART1_SetTxInterruptHandler(EUSART1_Transmit_I
      +                          SR);
  6581  003562  0E6E               	movlw	low _EUSART1_Transmit_ISR
  6582  003564  6E14               	movwf	EUSART1_SetTxInterruptHandler@interruptHandler^0,c
  6583  003566  0E3A               	movlw	high _EUSART1_Transmit_ISR
  6584  003568  6E15               	movwf	(EUSART1_SetTxInterruptHandler@interruptHandler+1)^0,c
  6585  00356A  ECB8  F01E         	call	_EUSART1_SetTxInterruptHandler	;wreg free
  6586  00356E                     
  6587                           ;mcc_generated_files/eusart1.c: 57:     BAUDCON1 = 0x08;
  6588  00356E  0E08               	movlw	8
  6589  003570  6EB8               	movwf	184,c	;volatile
  6590  003572                     
  6591                           ;mcc_generated_files/eusart1.c: 64:     RCSTA1 = 0x90;
  6592  003572  0E90               	movlw	144
  6593  003574  6EAB               	movwf	171,c	;volatile
  6594  003576                     
  6595                           ;mcc_generated_files/eusart1.c: 70:     TXSTA1 = 0x24;
  6596  003576  0E24               	movlw	36
  6597  003578  6EAC               	movwf	172,c	;volatile
  6598  00357A                     
  6599                           ;mcc_generated_files/eusart1.c: 78:     SPBRG1 = 0x82;
  6600  00357A  0E82               	movlw	130
  6601  00357C  6EAF               	movwf	175,c	;volatile
  6602  00357E                     
  6603                           ;mcc_generated_files/eusart1.c: 79:     SPBRGH1 = 0x06;
  6604  00357E  0E06               	movlw	6
  6605  003580  6EB0               	movwf	176,c	;volatile
  6606  003582                     
  6607                           ;mcc_generated_files/eusart1.c: 80:     TRISCbits.TRISC7 = 1;
  6608  003582  8E94               	bsf	148,7,c	;volatile
  6609  003584                     
  6610                           ;mcc_generated_files/eusart1.c: 81:     EUSART1_SetFramingErrorHandler(EUSART1_DefaultFr
      +                          amingErrorHandler);
  6611  003584  0E0C               	movlw	low _EUSART1_DefaultFramingErrorHandler
  6612  003586  6E14               	movwf	EUSART1_SetFramingErrorHandler@interruptHandler^0,c
  6613  003588  0E3E               	movlw	high _EUSART1_DefaultFramingErrorHandler
  6614  00358A  6E15               	movwf	(EUSART1_SetFramingErrorHandler@interruptHandler+1)^0,c
  6615  00358C  ECC7  F01E         	call	_EUSART1_SetFramingErrorHandler	;wreg free
  6616  003590                     
  6617                           ;mcc_generated_files/eusart1.c: 82:     EUSART1_SetOverrunErrorHandler(EUSART1_DefaultOv
      +                          errunErrorHandler);
  6618  003590  0EEC               	movlw	low _EUSART1_DefaultOverrunErrorHandler
  6619  003592  6E14               	movwf	EUSART1_SetOverrunErrorHandler@interruptHandler^0,c
  6620  003594  0E3D               	movlw	high _EUSART1_DefaultOverrunErrorHandler
  6621  003596  6E15               	movwf	(EUSART1_SetOverrunErrorHandler@interruptHandler+1)^0,c
  6622  003598  ECC2  F01E         	call	_EUSART1_SetOverrunErrorHandler	;wreg free
  6623  00359C                     
  6624                           ;mcc_generated_files/eusart1.c: 83:     EUSART1_SetErrorHandler(EUSART1_DefaultErrorHand
      +                          ler);
  6625  00359C  0EF2               	movlw	low _EUSART1_DefaultErrorHandler
  6626  00359E  6E14               	movwf	EUSART1_SetErrorHandler@interruptHandler^0,c
  6627  0035A0  0E3D               	movlw	high _EUSART1_DefaultErrorHandler
  6628  0035A2  6E15               	movwf	(EUSART1_SetErrorHandler@interruptHandler+1)^0,c
  6629  0035A4  ECCC  F01E         	call	_EUSART1_SetErrorHandler	;wreg free
  6630  0035A8                     
  6631                           ;mcc_generated_files/eusart1.c: 84:     eusart1RxLastError.status = 0;
  6632  0035A8  0E00               	movlw	0
  6633  0035AA  0100               	movlb	0	; () banked
  6634  0035AC  6FBE               	movwf	_eusart1RxLastError& (0+255),b	;volatile
  6635  0035AE                     
  6636                           ; BSR set to: 0
  6637                           ;mcc_generated_files/eusart1.c: 86:     eusart1TxHead = 0;
  6638  0035AE  0E00               	movlw	0
  6639  0035B0  6E46               	movwf	_eusart1TxHead^0,c	;volatile
  6640  0035B2                     
  6641                           ; BSR set to: 0
  6642                           ;mcc_generated_files/eusart1.c: 87:     eusart1TxTail = 0;
  6643  0035B2  0E00               	movlw	0
  6644  0035B4  6E45               	movwf	_eusart1TxTail^0,c	;volatile
  6645  0035B6                     
  6646                           ; BSR set to: 0
  6647                           ;mcc_generated_files/eusart1.c: 88:     eusart1TxBufferRemaining = sizeof (eusart1TxBuff
      +                          er);
  6648  0035B6  0E18               	movlw	24
  6649  0035B8  6E44               	movwf	_eusart1TxBufferRemaining^0,c	;volatile
  6650  0035BA                     
  6651                           ; BSR set to: 0
  6652                           ;mcc_generated_files/eusart1.c: 90:     eusart1RxHead = 0;
  6653  0035BA  0E00               	movlw	0
  6654  0035BC  6E43               	movwf	_eusart1RxHead^0,c	;volatile
  6655  0035BE                     
  6656                           ; BSR set to: 0
  6657                           ;mcc_generated_files/eusart1.c: 91:     eusart1RxTail = 0;
  6658  0035BE  0E00               	movlw	0
  6659  0035C0  6E42               	movwf	_eusart1RxTail^0,c	;volatile
  6660  0035C2                     
  6661                           ; BSR set to: 0
  6662                           ;mcc_generated_files/eusart1.c: 92:     eusart1RxCount = 0;
  6663  0035C2  0E00               	movlw	0
  6664  0035C4  6FBF               	movwf	_eusart1RxCount& (0+255),b	;volatile
  6665  0035C6                     
  6666                           ; BSR set to: 0
  6667                           ;mcc_generated_files/eusart1.c: 94:     PIE1bits.RC1IE = 1;
  6668  0035C6  8A9D               	bsf	157,5,c	;volatile
  6669  0035C8                     
  6670                           ; BSR set to: 0
  6671  0035C8  0012               	return		;funcret
  6672  0035CA                     __end_of_EUSART1_Initialize:
  6673                           	opt callstack 0
  6674                           
  6675 ;; *************** function _EUSART1_SetTxInterruptHandler *****************
  6676 ;; Defined at:
  6677 ;;		line 261 in file "mcc_generated_files/eusart1.c"
  6678 ;; Parameters:    Size  Location     Type
  6679 ;;  interruptHan    2   19[COMRAM] PTR FTN()void 
  6680 ;;		 -> EUSART1_Transmit_ISR(1), 
  6681 ;; Auto vars:     Size  Location     Type
  6682 ;;		None
  6683 ;; Return value:  Size  Location     Type
  6684 ;;                  1    wreg      void 
  6685 ;; Registers used:
  6686 ;;		wreg, status,2, status,0
  6687 ;; Tracked objects:
  6688 ;;		On entry : 0/0
  6689 ;;		On exit  : 0/0
  6690 ;;		Unchanged: 0/0
  6691 ;; Data sizes:     COMRAM   BANK0   BANK1   BANK2   BANK3   BANK4   BANK5   BANK6   BANK7   BANK8   BANK9  BANK10  BANK1
      +1  BANK12  BANK13  BANK14  BANK15
  6692 ;;      Params:         2       0       0       0       0       0       0       0       0       0       0       0       
      +0       0       0       0       0
  6693 ;;      Locals:         0       0       0       0       0       0       0       0       0       0       0       0       
      +0       0       0       0       0
  6694 ;;      Temps:          0       0       0       0       0       0       0       0       0       0       0       0       
      +0       0       0       0       0
  6695 ;;      Totals:         2       0       0       0       0       0       0       0       0       0       0       0       
      +0       0       0       0       0
  6696 ;;Total ram usage:        2 bytes
  6697 ;; Hardware stack levels used:    1
  6698 ;; Hardware stack levels required when called:    8
  6699 ;; This function calls:
  6700 ;;		Nothing
  6701 ;; This function is called by:
  6702 ;;		_EUSART1_Initialize
  6703 ;; This function uses a non-reentrant model
  6704 ;;
  6705                           
  6706                           	psect	text46
  6707  003D70                     __ptext46:
  6708                           	opt callstack 0
  6709  003D70                     _EUSART1_SetTxInterruptHandler:
  6710                           	opt callstack 20
  6711  003D70                     
  6712                           ;mcc_generated_files/eusart1.c: 262:     EUSART1_TxDefaultInterruptHandler = interruptHa
      +                          ndler;
  6713  003D70  C014  F0B6         	movff	EUSART1_SetTxInterruptHandler@interruptHandler,_EUSART1_TxDefaultInterruptHandler
  6714  003D74  C015  F0B7         	movff	EUSART1_SetTxInterruptHandler@interruptHandler+1,_EUSART1_TxDefaultInterruptHandl
      +                          er+1
  6715  003D78  0012               	return		;funcret
  6716  003D7A                     __end_of_EUSART1_SetTxInterruptHandler:
  6717                           	opt callstack 0
  6718                           
  6719 ;; *************** function _EUSART1_SetRxInterruptHandler *****************
  6720 ;; Defined at:
  6721 ;;		line 265 in file "mcc_generated_files/eusart1.c"
  6722 ;; Parameters:    Size  Location     Type
  6723 ;;  interruptHan    2   19[COMRAM] PTR FTN()void 
  6724 ;;		 -> EUSART1_Receive_ISR(1), 
  6725 ;; Auto vars:     Size  Location     Type
  6726 ;;		None
  6727 ;; Return value:  Size  Location     Type
  6728 ;;                  1    wreg      void 
  6729 ;; Registers used:
  6730 ;;		wreg, status,2, status,0
  6731 ;; Tracked objects:
  6732 ;;		On entry : 0/0
  6733 ;;		On exit  : 0/0
  6734 ;;		Unchanged: 0/0
  6735 ;; Data sizes:     COMRAM   BANK0   BANK1   BANK2   BANK3   BANK4   BANK5   BANK6   BANK7   BANK8   BANK9  BANK10  BANK1
      +1  BANK12  BANK13  BANK14  BANK15
  6736 ;;      Params:         2       0       0       0       0       0       0       0       0       0       0       0       
      +0       0       0       0       0
  6737 ;;      Locals:         0       0       0       0       0       0       0       0       0       0       0       0       
      +0       0       0       0       0
  6738 ;;      Temps:          0       0       0       0       0       0       0       0       0       0       0       0       
      +0       0       0       0       0
  6739 ;;      Totals:         2       0       0       0       0       0       0       0       0       0       0       0       
      +0       0       0       0       0
  6740 ;;Total ram usage:        2 bytes
  6741 ;; Hardware stack levels used:    1
  6742 ;; Hardware stack levels required when called:    8
  6743 ;; This function calls:
  6744 ;;		Nothing
  6745 ;; This function is called by:
  6746 ;;		_EUSART1_Initialize
  6747 ;; This function uses a non-reentrant model
  6748 ;;
  6749                           
  6750                           	psect	text47
  6751  003D7A                     __ptext47:
  6752                           	opt callstack 0
  6753  003D7A                     _EUSART1_SetRxInterruptHandler:
  6754                           	opt callstack 20
  6755  003D7A                     
  6756                           ;mcc_generated_files/eusart1.c: 266:     EUSART1_RxDefaultInterruptHandler = interruptHa
      +                          ndler;
  6757  003D7A  C014  F0B4         	movff	EUSART1_SetRxInterruptHandler@interruptHandler,_EUSART1_RxDefaultInterruptHandler
  6758  003D7E  C015  F0B5         	movff	EUSART1_SetRxInterruptHandler@interruptHandler+1,_EUSART1_RxDefaultInterruptHandl
      +                          er+1
  6759  003D82  0012               	return		;funcret
  6760  003D84                     __end_of_EUSART1_SetRxInterruptHandler:
  6761                           	opt callstack 0
  6762                           
  6763 ;; *************** function _EUSART1_SetOverrunErrorHandler *****************
  6764 ;; Defined at:
  6765 ;;		line 253 in file "mcc_generated_files/eusart1.c"
  6766 ;; Parameters:    Size  Location     Type
  6767 ;;  interruptHan    2   19[COMRAM] PTR FTN()void 
  6768 ;;		 -> EUSART1_DefaultOverrunErrorHandler(1), 
  6769 ;; Auto vars:     Size  Location     Type
  6770 ;;		None
  6771 ;; Return value:  Size  Location     Type
  6772 ;;                  1    wreg      void 
  6773 ;; Registers used:
  6774 ;;		wreg, status,2, status,0
  6775 ;; Tracked objects:
  6776 ;;		On entry : 0/0
  6777 ;;		On exit  : 0/0
  6778 ;;		Unchanged: 0/0
  6779 ;; Data sizes:     COMRAM   BANK0   BANK1   BANK2   BANK3   BANK4   BANK5   BANK6   BANK7   BANK8   BANK9  BANK10  BANK1
      +1  BANK12  BANK13  BANK14  BANK15
  6780 ;;      Params:         2       0       0       0       0       0       0       0       0       0       0       0       
      +0       0       0       0       0
  6781 ;;      Locals:         0       0       0       0       0       0       0       0       0       0       0       0       
      +0       0       0       0       0
  6782 ;;      Temps:          0       0       0       0       0       0       0       0       0       0       0       0       
      +0       0       0       0       0
  6783 ;;      Totals:         2       0       0       0       0       0       0       0       0       0       0       0       
      +0       0       0       0       0
  6784 ;;Total ram usage:        2 bytes
  6785 ;; Hardware stack levels used:    1
  6786 ;; Hardware stack levels required when called:    8
  6787 ;; This function calls:
  6788 ;;		Nothing
  6789 ;; This function is called by:
  6790 ;;		_EUSART1_Initialize
  6791 ;; This function uses a non-reentrant model
  6792 ;;
  6793                           
  6794                           	psect	text48
  6795  003D84                     __ptext48:
  6796                           	opt callstack 0
  6797  003D84                     _EUSART1_SetOverrunErrorHandler:
  6798                           	opt callstack 20
  6799  003D84                     
  6800                           ;mcc_generated_files/eusart1.c: 254:     EUSART1_OverrunErrorHandler = interruptHandler;
  6801  003D84  C014  F0B0         	movff	EUSART1_SetOverrunErrorHandler@interruptHandler,_EUSART1_OverrunErrorHandler
  6802  003D88  C015  F0B1         	movff	EUSART1_SetOverrunErrorHandler@interruptHandler+1,_EUSART1_OverrunErrorHandler+1
  6803  003D8C  0012               	return		;funcret
  6804  003D8E                     __end_of_EUSART1_SetOverrunErrorHandler:
  6805                           	opt callstack 0
  6806                           
  6807 ;; *************** function _EUSART1_SetFramingErrorHandler *****************
  6808 ;; Defined at:
  6809 ;;		line 249 in file "mcc_generated_files/eusart1.c"
  6810 ;; Parameters:    Size  Location     Type
  6811 ;;  interruptHan    2   19[COMRAM] PTR FTN()void 
  6812 ;;		 -> EUSART1_DefaultFramingErrorHandler(1), 
  6813 ;; Auto vars:     Size  Location     Type
  6814 ;;		None
  6815 ;; Return value:  Size  Location     Type
  6816 ;;                  1    wreg      void 
  6817 ;; Registers used:
  6818 ;;		wreg, status,2, status,0
  6819 ;; Tracked objects:
  6820 ;;		On entry : 0/0
  6821 ;;		On exit  : 0/0
  6822 ;;		Unchanged: 0/0
  6823 ;; Data sizes:     COMRAM   BANK0   BANK1   BANK2   BANK3   BANK4   BANK5   BANK6   BANK7   BANK8   BANK9  BANK10  BANK1
      +1  BANK12  BANK13  BANK14  BANK15
  6824 ;;      Params:         2       0       0       0       0       0       0       0       0       0       0       0       
      +0       0       0       0       0
  6825 ;;      Locals:         0       0       0       0       0       0       0       0       0       0       0       0       
      +0       0       0       0       0
  6826 ;;      Temps:          0       0       0       0       0       0       0       0       0       0       0       0       
      +0       0       0       0       0
  6827 ;;      Totals:         2       0       0       0       0       0       0       0       0       0       0       0       
      +0       0       0       0       0
  6828 ;;Total ram usage:        2 bytes
  6829 ;; Hardware stack levels used:    1
  6830 ;; Hardware stack levels required when called:    8
  6831 ;; This function calls:
  6832 ;;		Nothing
  6833 ;; This function is called by:
  6834 ;;		_EUSART1_Initialize
  6835 ;; This function uses a non-reentrant model
  6836 ;;
  6837                           
  6838                           	psect	text49
  6839  003D8E                     __ptext49:
  6840                           	opt callstack 0
  6841  003D8E                     _EUSART1_SetFramingErrorHandler:
  6842                           	opt callstack 20
  6843  003D8E                     
  6844                           ;mcc_generated_files/eusart1.c: 250:     EUSART1_FramingErrorHandler = interruptHandler;
  6845  003D8E  C014  F0B2         	movff	EUSART1_SetFramingErrorHandler@interruptHandler,_EUSART1_FramingErrorHandler
  6846  003D92  C015  F0B3         	movff	EUSART1_SetFramingErrorHandler@interruptHandler+1,_EUSART1_FramingErrorHandler+1
  6847  003D96  0012               	return		;funcret
  6848  003D98                     __end_of_EUSART1_SetFramingErrorHandler:
  6849                           	opt callstack 0
  6850                           
  6851 ;; *************** function _EUSART1_SetErrorHandler *****************
  6852 ;; Defined at:
  6853 ;;		line 257 in file "mcc_generated_files/eusart1.c"
  6854 ;; Parameters:    Size  Location     Type
  6855 ;;  interruptHan    2   19[COMRAM] PTR FTN()void 
  6856 ;;		 -> EUSART1_DefaultErrorHandler(1), 
  6857 ;; Auto vars:     Size  Location     Type
  6858 ;;		None
  6859 ;; Return value:  Size  Location     Type
  6860 ;;                  1    wreg      void 
  6861 ;; Registers used:
  6862 ;;		wreg, status,2, status,0
  6863 ;; Tracked objects:
  6864 ;;		On entry : 0/0
  6865 ;;		On exit  : 0/0
  6866 ;;		Unchanged: 0/0
  6867 ;; Data sizes:     COMRAM   BANK0   BANK1   BANK2   BANK3   BANK4   BANK5   BANK6   BANK7   BANK8   BANK9  BANK10  BANK1
      +1  BANK12  BANK13  BANK14  BANK15
  6868 ;;      Params:         2       0       0       0       0       0       0       0       0       0       0       0       
      +0       0       0       0       0
  6869 ;;      Locals:         0       0       0       0       0       0       0       0       0       0       0       0       
      +0       0       0       0       0
  6870 ;;      Temps:          0       0       0       0       0       0       0       0       0       0       0       0       
      +0       0       0       0       0
  6871 ;;      Totals:         2       0       0       0       0       0       0       0       0       0       0       0       
      +0       0       0       0       0
  6872 ;;Total ram usage:        2 bytes
  6873 ;; Hardware stack levels used:    1
  6874 ;; Hardware stack levels required when called:    8
  6875 ;; This function calls:
  6876 ;;		Nothing
  6877 ;; This function is called by:
  6878 ;;		_EUSART1_Initialize
  6879 ;; This function uses a non-reentrant model
  6880 ;;
  6881                           
  6882                           	psect	text50
  6883  003D98                     __ptext50:
  6884                           	opt callstack 0
  6885  003D98                     _EUSART1_SetErrorHandler:
  6886                           	opt callstack 20
  6887  003D98                     
  6888                           ;mcc_generated_files/eusart1.c: 258:     EUSART1_ErrorHandler = interruptHandler;
  6889  003D98  C014  F0AE         	movff	EUSART1_SetErrorHandler@interruptHandler,_EUSART1_ErrorHandler
  6890  003D9C  C015  F0AF         	movff	EUSART1_SetErrorHandler@interruptHandler+1,_EUSART1_ErrorHandler+1
  6891  003DA0  0012               	return		;funcret
  6892  003DA2                     __end_of_EUSART1_SetErrorHandler:
  6893                           	opt callstack 0
  6894                           
  6895 ;; *************** function _EPWM3_Initialize *****************
  6896 ;; Defined at:
  6897 ;;		line 15 in file "mcc_generated_files/epwm3.c"
  6898 ;; Parameters:    Size  Location     Type
  6899 ;;  freq            1    wreg     unsigned char 
  6900 ;; Auto vars:     Size  Location     Type
  6901 ;;  freq            1   33[BANK0 ] unsigned char 
  6902 ;; Return value:  Size  Location     Type
  6903 ;;                  1    wreg      void 
  6904 ;; Registers used:
  6905 ;;		wreg, status,2, status,0, prodl, prodh, cstack
  6906 ;; Tracked objects:
  6907 ;;		On entry : 0/0
  6908 ;;		On exit  : 0/0
  6909 ;;		Unchanged: 0/0
  6910 ;; Data sizes:     COMRAM   BANK0   BANK1   BANK2   BANK3   BANK4   BANK5   BANK6   BANK7   BANK8   BANK9  BANK10  BANK1
      +1  BANK12  BANK13  BANK14  BANK15
  6911 ;;      Params:         0       0       0       0       0       0       0       0       0       0       0       0       
      +0       0       0       0       0
  6912 ;;      Locals:         0       1       0       0       0       0       0       0       0       0       0       0       
      +0       0       0       0       0
  6913 ;;      Temps:          0       0       0       0       0       0       0       0       0       0       0       0       
      +0       0       0       0       0
  6914 ;;      Totals:         0       1       0       0       0       0       0       0       0       0       0       0       
      +0       0       0       0       0
  6915 ;;Total ram usage:        1 bytes
  6916 ;; Hardware stack levels used:    1
  6917 ;; Hardware stack levels required when called:   11
  6918 ;; This function calls:
  6919 ;;		_EPWM3_engine_config
  6920 ;;		_EPWM3_outputs_off
  6921 ;;		_EPWM3_period
  6922 ;;		_TMR4_StopTimer
  6923 ;;		_TMR4_WriteTimer
  6924 ;; This function is called by:
  6925 ;;		_SYSTEM_Initialize
  6926 ;; This function uses a non-reentrant model
  6927 ;;
  6928                           
  6929                           	psect	text51
  6930  003322                     __ptext51:
  6931                           	opt callstack 0
  6932  003322                     _EPWM3_Initialize:
  6933                           	opt callstack 18
  6934                           
  6935                           ;incstack = 0
  6936                           ;EPWM3_Initialize@freq stored from wreg
  6937  003322  0100               	movlb	0	; () banked
  6938  003324  6FE5               	movwf	EPWM3_Initialize@freq& (0+255),b
  6939  003326                     
  6940                           ;mcc_generated_files/epwm3.c: 16:     TRISE |= 0x03;
  6941  003326  0E03               	movlw	3
  6942  003328  1296               	iorwf	150,f,c	;volatile
  6943  00332A                     
  6944                           ;mcc_generated_files/epwm3.c: 19:     LATCbits.LATC2 = 0;
  6945  00332A  948B               	bcf	139,2,c	;volatile
  6946  00332C                     
  6947                           ;mcc_generated_files/epwm3.c: 20:     TRISCbits.TRISC2 = 1;
  6948  00332C  8494               	bsf	148,2,c	;volatile
  6949  00332E                     
  6950                           ;mcc_generated_files/epwm3.c: 21:     PSTR3CON = 0x13;
  6951  00332E  0E13               	movlw	19
  6952  003330  010F               	movlb	15	; () banked
  6953  003332  6F5A               	movwf	90,b	;volatile
  6954  003334                     
  6955                           ; BSR set to: 15
  6956                           ;mcc_generated_files/epwm3.c: 25:     CCPTMRS0bits.C3TSEL = 0b01;
  6957  003334  5149               	movf	73,w,b	;volatile
  6958  003336  0B3F               	andlw	-193
  6959  003338  0940               	iorlw	64
  6960  00333A  6F49               	movwf	73,b	;volatile
  6961                           
  6962                           ;mcc_generated_files/epwm3.c: 26:     if (freq < 4)
  6963  00333C  0E04               	movlw	4
  6964  00333E  0100               	movlb	0	; () banked
  6965  003340  61E5               	cpfslt	EPWM3_Initialize@freq& (0+255),b
  6966  003342  EFA5  F019         	goto	u7181
  6967  003346  EFA7  F019         	goto	u7180
  6968  00334A                     u7181:
  6969  00334A  EFAC  F019         	goto	l7876
  6970  00334E                     u7180:
  6971  00334E                     
  6972                           ; BSR set to: 0
  6973                           ;mcc_generated_files/epwm3.c: 27:         EPWM3_period(4);
  6974  00334E  0E04               	movlw	4
  6975  003350  EC60  F01B         	call	_EPWM3_period
  6976  003354  EFAF  F019         	goto	l7878
  6977  003358                     l7876:
  6978                           
  6979                           ; BSR set to: 0
  6980                           ;mcc_generated_files/epwm3.c: 29:         EPWM3_period(freq);
  6981  003358  51E5               	movf	EPWM3_Initialize@freq& (0+255),w,b
  6982  00335A  EC60  F01B         	call	_EPWM3_period
  6983  00335E                     l7878:
  6984                           
  6985                           ;mcc_generated_files/epwm3.c: 30:     ECCP3ASbits.CCP3AS = 0;
  6986  00335E  0E8F               	movlw	-113
  6987  003360  010F               	movlb	15	; () banked
  6988  003362  175B               	andwf	91,f,b	;volatile
  6989  003364                     
  6990                           ; BSR set to: 15
  6991                           ;mcc_generated_files/epwm3.c: 31:     ECCP3ASbits.PSS3AC = 0;
  6992  003364  0EF3               	movlw	-13
  6993  003366  175B               	andwf	91,f,b	;volatile
  6994  003368                     
  6995                           ; BSR set to: 15
  6996                           ;mcc_generated_files/epwm3.c: 33:     ECCP3ASbits.PSS3BD = 0;
  6997  003368  0EFC               	movlw	-4
  6998  00336A  175B               	andwf	91,f,b	;volatile
  6999  00336C                     
  7000                           ; BSR set to: 15
  7001                           ;mcc_generated_files/epwm3.c: 35:     PWM3CONbits.P3RSEN = 0;
  7002  00336C  9F5C               	bcf	92,7,b	;volatile
  7003  00336E                     
  7004                           ; BSR set to: 15
  7005                           ;mcc_generated_files/epwm3.c: 39:     CCP3CONbits.P3M = 0b10;
  7006  00336E  515D               	movf	93,w,b	;volatile
  7007  003370  0B3F               	andlw	-193
  7008  003372  0980               	iorlw	128
  7009  003374  6F5D               	movwf	93,b	;volatile
  7010  003376                     
  7011                           ; BSR set to: 15
  7012                           ;mcc_generated_files/epwm3.c: 42:     CCP3CONbits.CCP3M = 0b1100;
  7013  003376  515D               	movf	93,w,b	;volatile
  7014  003378  0BF0               	andlw	-16
  7015  00337A  090C               	iorlw	12
  7016  00337C  6F5D               	movwf	93,b	;volatile
  7017  00337E                     
  7018                           ; BSR set to: 15
  7019                           ;mcc_generated_files/epwm3.c: 46:     EPWM3_engine_config(0x00, 50);
  7020  00337E  0E32               	movlw	50
  7021  003380  0100               	movlb	0	; () banked
  7022  003382  6FDB               	movwf	EPWM3_engine_config@duty& (0+255),b
  7023  003384  0E00               	movlw	0
  7024  003386  ECF2  F00F         	call	_EPWM3_engine_config
  7025                           
  7026                           ;mcc_generated_files/epwm3.c: 48:     PWM3CONbits.P3DC = 0x50;
  7027  00338A  010F               	movlb	15	; () banked
  7028  00338C  515C               	movf	92,w,b	;volatile
  7029  00338E  0B80               	andlw	-128
  7030  003390  0950               	iorlw	80
  7031  003392  6F5C               	movwf	92,b	;volatile
  7032                           
  7033                           ;mcc_generated_files/epwm3.c: 52:     T4CONbits.T4CKPS = 0b11;
  7034  003394  0E03               	movlw	3
  7035  003396  1351               	iorwf	81,f,b	;volatile
  7036  003398                     
  7037                           ; BSR set to: 15
  7038                           ;mcc_generated_files/epwm3.c: 55:     TMR4_StopTimer();
  7039  003398  ECF0  F01E         	call	_TMR4_StopTimer	;wreg free
  7040  00339C                     
  7041                           ;mcc_generated_files/epwm3.c: 56:     TMR4_WriteTimer(0);
  7042  00339C  0E00               	movlw	0
  7043  00339E  ECD1  F01E         	call	_TMR4_WriteTimer
  7044  0033A2                     
  7045                           ;mcc_generated_files/epwm3.c: 57:     TRISE &= 0xFC;
  7046  0033A2  0EFC               	movlw	252
  7047  0033A4  1696               	andwf	150,f,c	;volatile
  7048  0033A6                     
  7049                           ;mcc_generated_files/epwm3.c: 58:     LATCbits.LATC2 = 0;
  7050  0033A6  948B               	bcf	139,2,c	;volatile
  7051  0033A8                     
  7052                           ;mcc_generated_files/epwm3.c: 59:     TRISCbits.TRISC2 = 0;
  7053  0033A8  9494               	bcf	148,2,c	;volatile
  7054  0033AA                     
  7055                           ;mcc_generated_files/epwm3.c: 60:     EPWM3_outputs_off();
  7056  0033AA  ECF3  F01E         	call	_EPWM3_outputs_off	;wreg free
  7057  0033AE                     
  7058                           ;mcc_generated_files/epwm3.c: 61:     STATUS_Eng_V.status = 0;
  7059  0033AE  0E00               	movlw	0
  7060  0033B0  6E3E               	movwf	_STATUS_Eng_V^0,c
  7061  0033B2                     
  7062                           ;mcc_generated_files/epwm3.c: 62:     STATUS_Eng_V.turn = 0x00;
  7063  0033B2  0E00               	movlw	0
  7064  0033B4  6E3F               	movwf	(_STATUS_Eng_V+1)^0,c
  7065  0033B6  0012               	return		;funcret
  7066  0033B8                     __end_of_EPWM3_Initialize:
  7067                           	opt callstack 0
  7068                           
  7069 ;; *************** function _TMR4_WriteTimer *****************
  7070 ;; Defined at:
  7071 ;;		line 20 in file "mcc_generated_files/tmr4.c"
  7072 ;; Parameters:    Size  Location     Type
  7073 ;;  timerVal        1    wreg     unsigned char 
  7074 ;; Auto vars:     Size  Location     Type
  7075 ;;  timerVal        1   19[COMRAM] unsigned char 
  7076 ;; Return value:  Size  Location     Type
  7077 ;;                  1    wreg      void 
  7078 ;; Registers used:
  7079 ;;		wreg
  7080 ;; Tracked objects:
  7081 ;;		On entry : 0/0
  7082 ;;		On exit  : 0/0
  7083 ;;		Unchanged: 0/0
  7084 ;; Data sizes:     COMRAM   BANK0   BANK1   BANK2   BANK3   BANK4   BANK5   BANK6   BANK7   BANK8   BANK9  BANK10  BANK1
      +1  BANK12  BANK13  BANK14  BANK15
  7085 ;;      Params:         0       0       0       0       0       0       0       0       0       0       0       0       
      +0       0       0       0       0
  7086 ;;      Locals:         1       0       0       0       0       0       0       0       0       0       0       0       
      +0       0       0       0       0
  7087 ;;      Temps:          0       0       0       0       0       0       0       0       0       0       0       0       
      +0       0       0       0       0
  7088 ;;      Totals:         1       0       0       0       0       0       0       0       0       0       0       0       
      +0       0       0       0       0
  7089 ;;Total ram usage:        1 bytes
  7090 ;; Hardware stack levels used:    1
  7091 ;; Hardware stack levels required when called:    8
  7092 ;; This function calls:
  7093 ;;		Nothing
  7094 ;; This function is called by:
  7095 ;;		_EPWM3_Initialize
  7096 ;;		_EPWM3_engine_running
  7097 ;; This function uses a non-reentrant model
  7098 ;;
  7099                           
  7100                           	psect	text52
  7101  003DA2                     __ptext52:
  7102                           	opt callstack 0
  7103  003DA2                     _TMR4_WriteTimer:
  7104                           	opt callstack 20
  7105                           
  7106                           ;incstack = 0
  7107                           ;TMR4_WriteTimer@timerVal stored from wreg
  7108  003DA2  6E14               	movwf	TMR4_WriteTimer@timerVal^0,c
  7109  003DA4                     
  7110                           ;mcc_generated_files/tmr4.c: 21:     TMR4 = timerVal;
  7111  003DA4  C014  FF53         	movff	TMR4_WriteTimer@timerVal,3923	;volatile
  7112  003DA8  0012               	return		;funcret
  7113  003DAA                     __end_of_TMR4_WriteTimer:
  7114                           	opt callstack 0
  7115                           
  7116 ;; *************** function _TMR4_StopTimer *****************
  7117 ;; Defined at:
  7118 ;;		line 15 in file "mcc_generated_files/tmr4.c"
  7119 ;; Parameters:    Size  Location     Type
  7120 ;;		None
  7121 ;; Auto vars:     Size  Location     Type
  7122 ;;		None
  7123 ;; Return value:  Size  Location     Type
  7124 ;;                  1    wreg      void 
  7125 ;; Registers used:
  7126 ;;		None
  7127 ;; Tracked objects:
  7128 ;;		On entry : 0/0
  7129 ;;		On exit  : 0/0
  7130 ;;		Unchanged: 0/0
  7131 ;; Data sizes:     COMRAM   BANK0   BANK1   BANK2   BANK3   BANK4   BANK5   BANK6   BANK7   BANK8   BANK9  BANK10  BANK1
      +1  BANK12  BANK13  BANK14  BANK15
  7132 ;;      Params:         0       0       0       0       0       0       0       0       0       0       0       0       
      +0       0       0       0       0
  7133 ;;      Locals:         0       0       0       0       0       0       0       0       0       0       0       0       
      +0       0       0       0       0
  7134 ;;      Temps:          0       0       0       0       0       0       0       0       0       0       0       0       
      +0       0       0       0       0
  7135 ;;      Totals:         0       0       0       0       0       0       0       0       0       0       0       0       
      +0       0       0       0       0
  7136 ;;Total ram usage:        0 bytes
  7137 ;; Hardware stack levels used:    1
  7138 ;; Hardware stack levels required when called:    8
  7139 ;; This function calls:
  7140 ;;		Nothing
  7141 ;; This function is called by:
  7142 ;;		_EPWM3_Initialize
  7143 ;;		_EPWM3_engine_off
  7144 ;; This function uses a non-reentrant model
  7145 ;;
  7146                           
  7147                           	psect	text53
  7148  003DE0                     __ptext53:
  7149                           	opt callstack 0
  7150  003DE0                     _TMR4_StopTimer:
  7151                           	opt callstack 20
  7152  003DE0                     
  7153                           ;mcc_generated_files/tmr4.c: 16:     T4CONbits.TMR4ON = 0;
  7154  003DE0  010F               	movlb	15	; () banked
  7155  003DE2  9551               	bcf	81,2,b	;volatile
  7156  003DE4                     
  7157                           ; BSR set to: 15
  7158  003DE4  0012               	return		;funcret
  7159  003DE6                     __end_of_TMR4_StopTimer:
  7160                           	opt callstack 0
  7161                           
  7162 ;; *************** function _EPWM3_period *****************
  7163 ;; Defined at:
  7164 ;;		line 66 in file "mcc_generated_files/epwm3.c"
  7165 ;; Parameters:    Size  Location     Type
  7166 ;;  freq            1    wreg     unsigned char 
  7167 ;; Auto vars:     Size  Location     Type
  7168 ;;  freq            1   25[BANK0 ] unsigned char 
  7169 ;; Return value:  Size  Location     Type
  7170 ;;                  1    wreg      void 
  7171 ;; Registers used:
  7172 ;;		wreg, status,2, status,0, prodl, prodh, cstack
  7173 ;; Tracked objects:
  7174 ;;		On entry : 0/0
  7175 ;;		On exit  : 0/0
  7176 ;;		Unchanged: 0/0
  7177 ;; Data sizes:     COMRAM   BANK0   BANK1   BANK2   BANK3   BANK4   BANK5   BANK6   BANK7   BANK8   BANK9  BANK10  BANK1
      +1  BANK12  BANK13  BANK14  BANK15
  7178 ;;      Params:         0       0       0       0       0       0       0       0       0       0       0       0       
      +0       0       0       0       0
  7179 ;;      Locals:         0       1       0       0       0       0       0       0       0       0       0       0       
      +0       0       0       0       0
  7180 ;;      Temps:          0       2       0       0       0       0       0       0       0       0       0       0       
      +0       0       0       0       0
  7181 ;;      Totals:         0       3       0       0       0       0       0       0       0       0       0       0       
      +0       0       0       0       0
  7182 ;;Total ram usage:        3 bytes
  7183 ;; Hardware stack levels used:    1
  7184 ;; Hardware stack levels required when called:   10
  7185 ;; This function calls:
  7186 ;;		_EPWM3_duty_const
  7187 ;;		_TMR4_LoadPeriodRegister
  7188 ;;		___aldiv
  7189 ;; This function is called by:
  7190 ;;		_EPWM3_Initialize
  7191 ;; This function uses a non-reentrant model
  7192 ;;
  7193                           
  7194                           	psect	text54
  7195  0036C0                     __ptext54:
  7196                           	opt callstack 0
  7197  0036C0                     _EPWM3_period:
  7198                           	opt callstack 18
  7199                           
  7200                           ; BSR set to: 15
  7201                           ;incstack = 0
  7202                           ;EPWM3_period@freq stored from wreg
  7203  0036C0  0100               	movlb	0	; () banked
  7204  0036C2  6FDD               	movwf	EPWM3_period@freq& (0+255),b
  7205  0036C4                     
  7206                           ;mcc_generated_files/epwm3.c: 67:     static uint8_t freq_lure = 0;;mcc_generated_files/
      +                          epwm3.c: 68:     if (freq_lure != freq) {
  7207  0036C4  0100               	movlb	0	; () banked
  7208  0036C6  51DD               	movf	EPWM3_period@freq& (0+255),w,b
  7209  0036C8  19C1               	xorwf	EPWM3_period@freq_lure& (0+255),w,b
  7210  0036CA  B4D8               	btfsc	status,2,c
  7211  0036CC  EF6A  F01B         	goto	u6981
  7212  0036D0  EF6C  F01B         	goto	u6980
  7213  0036D4                     u6981:
  7214  0036D4  EF9B  F01B         	goto	l157
  7215  0036D8                     u6980:
  7216  0036D8                     
  7217                           ; BSR set to: 0
  7218                           ;mcc_generated_files/epwm3.c: 69:         if (freq <= 4)
  7219  0036D8  0E05               	movlw	5
  7220  0036DA  61DD               	cpfslt	EPWM3_period@freq& (0+255),b
  7221  0036DC  EF72  F01B         	goto	u6991
  7222  0036E0  EF74  F01B         	goto	u6990
  7223  0036E4                     u6991:
  7224  0036E4  EF79  F01B         	goto	l7676
  7225  0036E8                     u6990:
  7226  0036E8                     
  7227                           ; BSR set to: 0
  7228                           ;mcc_generated_files/epwm3.c: 70:             TMR4_LoadPeriodRegister(((64000000 / 1000)
      +                           / (4 * 4 * 16)) - 1);
  7229  0036E8  0EF9               	movlw	249
  7230  0036EA  ECD5  F01E         	call	_TMR4_LoadPeriodRegister
  7231  0036EE  EF95  F01B         	goto	l7678
  7232  0036F2                     l7676:
  7233                           
  7234                           ; BSR set to: 0
  7235                           ;mcc_generated_files/epwm3.c: 72:             TMR4_LoadPeriodRegister(((64000000 / 1000)
      +                           / (freq * 4 * 16)) - 1);
  7236  0036F2  0E00               	movlw	0
  7237  0036F4  6E20               	movwf	___aldiv@dividend^0,c
  7238  0036F6  0EFA               	movlw	250
  7239  0036F8  6E21               	movwf	(___aldiv@dividend+1)^0,c
  7240  0036FA  0E00               	movlw	0
  7241  0036FC  6E22               	movwf	(___aldiv@dividend+2)^0,c
  7242  0036FE  0E00               	movlw	0
  7243  003700  6E23               	movwf	(___aldiv@dividend+3)^0,c
  7244  003702  51DD               	movf	EPWM3_period@freq& (0+255),w,b
  7245  003704  0D40               	mullw	64
  7246  003706  CFF3 F0DB          	movff	prodl,??_EPWM3_period
  7247  00370A  CFF4 F0DC          	movff	prodh,??_EPWM3_period+1
  7248  00370E  C0DB  F024         	movff	??_EPWM3_period,___aldiv@divisor
  7249  003712  C0DC  F025         	movff	??_EPWM3_period+1,___aldiv@divisor+1
  7250  003716  0E00               	movlw	0
  7251  003718  BE25               	btfsc	(___aldiv@divisor+1)^0,7,c
  7252  00371A  0EFF               	movlw	-1
  7253  00371C  6E26               	movwf	(___aldiv@divisor+2)^0,c
  7254  00371E  6E27               	movwf	(___aldiv@divisor+3)^0,c
  7255  003720  EC35  F013         	call	___aldiv	;wreg free
  7256  003724  0420               	decf	?___aldiv^0,w,c
  7257  003726  ECD5  F01E         	call	_TMR4_LoadPeriodRegister
  7258  00372A                     l7678:
  7259                           
  7260                           ;mcc_generated_files/epwm3.c: 73:         freq_lure = freq;
  7261  00372A  C0DD  F0C1         	movff	EPWM3_period@freq,EPWM3_period@freq_lure
  7262                           
  7263                           ;mcc_generated_files/epwm3.c: 74:         EPWM3_duty_const(freq);
  7264  00372E  0100               	movlb	0	; () banked
  7265  003730  51DD               	movf	EPWM3_period@freq& (0+255),w,b
  7266  003732  EC60  F018         	call	_EPWM3_duty_const
  7267  003736                     l157:
  7268  003736  0012               	return		;funcret
  7269  003738                     __end_of_EPWM3_period:
  7270                           	opt callstack 0
  7271                           
  7272 ;; *************** function _TMR4_LoadPeriodRegister *****************
  7273 ;; Defined at:
  7274 ;;		line 25 in file "mcc_generated_files/tmr4.c"
  7275 ;; Parameters:    Size  Location     Type
  7276 ;;  periodVal       1    wreg     unsigned char 
  7277 ;; Auto vars:     Size  Location     Type
  7278 ;;  periodVal       1   19[COMRAM] unsigned char 
  7279 ;; Return value:  Size  Location     Type
  7280 ;;                  1    wreg      void 
  7281 ;; Registers used:
  7282 ;;		wreg
  7283 ;; Tracked objects:
  7284 ;;		On entry : 0/0
  7285 ;;		On exit  : 0/0
  7286 ;;		Unchanged: 0/0
  7287 ;; Data sizes:     COMRAM   BANK0   BANK1   BANK2   BANK3   BANK4   BANK5   BANK6   BANK7   BANK8   BANK9  BANK10  BANK1
      +1  BANK12  BANK13  BANK14  BANK15
  7288 ;;      Params:         0       0       0       0       0       0       0       0       0       0       0       0       
      +0       0       0       0       0
  7289 ;;      Locals:         1       0       0       0       0       0       0       0       0       0       0       0       
      +0       0       0       0       0
  7290 ;;      Temps:          0       0       0       0       0       0       0       0       0       0       0       0       
      +0       0       0       0       0
  7291 ;;      Totals:         1       0       0       0       0       0       0       0       0       0       0       0       
      +0       0       0       0       0
  7292 ;;Total ram usage:        1 bytes
  7293 ;; Hardware stack levels used:    1
  7294 ;; Hardware stack levels required when called:    8
  7295 ;; This function calls:
  7296 ;;		Nothing
  7297 ;; This function is called by:
  7298 ;;		_EPWM3_period
  7299 ;; This function uses a non-reentrant model
  7300 ;;
  7301                           
  7302                           	psect	text55
  7303  003DAA                     __ptext55:
  7304                           	opt callstack 0
  7305  003DAA                     _TMR4_LoadPeriodRegister:
  7306                           	opt callstack 19
  7307                           
  7308                           ;incstack = 0
  7309                           ;TMR4_LoadPeriodRegister@periodVal stored from wreg
  7310  003DAA  6E14               	movwf	TMR4_LoadPeriodRegister@periodVal^0,c
  7311  003DAC                     
  7312                           ;mcc_generated_files/tmr4.c: 26:     PR4 = periodVal;
  7313  003DAC  C014  FF52         	movff	TMR4_LoadPeriodRegister@periodVal,3922	;volatile
  7314  003DB0  0012               	return		;funcret
  7315  003DB2                     __end_of_TMR4_LoadPeriodRegister:
  7316                           	opt callstack 0
  7317                           
  7318 ;; *************** function _EPWM3_outputs_off *****************
  7319 ;; Defined at:
  7320 ;;		line 103 in file "mcc_generated_files/epwm3.c"
  7321 ;; Parameters:    Size  Location     Type
  7322 ;;		None
  7323 ;; Auto vars:     Size  Location     Type
  7324 ;;		None
  7325 ;; Return value:  Size  Location     Type
  7326 ;;                  1    wreg      void 
  7327 ;; Registers used:
  7328 ;;		None
  7329 ;; Tracked objects:
  7330 ;;		On entry : 0/0
  7331 ;;		On exit  : 0/0
  7332 ;;		Unchanged: 0/0
  7333 ;; Data sizes:     COMRAM   BANK0   BANK1   BANK2   BANK3   BANK4   BANK5   BANK6   BANK7   BANK8   BANK9  BANK10  BANK1
      +1  BANK12  BANK13  BANK14  BANK15
  7334 ;;      Params:         0       0       0       0       0       0       0       0       0       0       0       0       
      +0       0       0       0       0
  7335 ;;      Locals:         0       0       0       0       0       0       0       0       0       0       0       0       
      +0       0       0       0       0
  7336 ;;      Temps:          0       0       0       0       0       0       0       0       0       0       0       0       
      +0       0       0       0       0
  7337 ;;      Totals:         0       0       0       0       0       0       0       0       0       0       0       0       
      +0       0       0       0       0
  7338 ;;Total ram usage:        0 bytes
  7339 ;; Hardware stack levels used:    1
  7340 ;; Hardware stack levels required when called:    8
  7341 ;; This function calls:
  7342 ;;		Nothing
  7343 ;; This function is called by:
  7344 ;;		_EPWM3_Initialize
  7345 ;;		_EPWM3_engine_off
  7346 ;; This function uses a non-reentrant model
  7347 ;;
  7348                           
  7349                           	psect	text56
  7350  003DE6                     __ptext56:
  7351                           	opt callstack 0
  7352  003DE6                     _EPWM3_outputs_off:
  7353                           	opt callstack 20
  7354  003DE6                     
  7355                           ;mcc_generated_files/epwm3.c: 105:     ECCP3ASbits.CCP3ASE = 1;
  7356  003DE6  010F               	movlb	15	; () banked
  7357  003DE8  8F5B               	bsf	91,7,b	;volatile
  7358  003DEA                     
  7359                           ; BSR set to: 15
  7360  003DEA  0012               	return		;funcret
  7361  003DEC                     __end_of_EPWM3_outputs_off:
  7362                           	opt callstack 0
  7363                           
  7364 ;; *************** function _EPWM3_engine_config *****************
  7365 ;; Defined at:
  7366 ;;		line 88 in file "mcc_generated_files/epwm3.c"
  7367 ;; Parameters:    Size  Location     Type
  7368 ;;  turn            1    wreg     unsigned char 
  7369 ;;  duty            1   23[BANK0 ] unsigned char 
  7370 ;; Auto vars:     Size  Location     Type
  7371 ;;  turn            1   30[BANK0 ] unsigned char 
  7372 ;;  interval        4   26[BANK0 ] float 
  7373 ;;  pulse_width_    2   31[BANK0 ] unsigned short 
  7374 ;; Return value:  Size  Location     Type
  7375 ;;                  1    wreg      void 
  7376 ;; Registers used:
  7377 ;;		wreg, status,2, status,0, prodl, prodh, cstack
  7378 ;; Tracked objects:
  7379 ;;		On entry : 0/0
  7380 ;;		On exit  : 0/0
  7381 ;;		Unchanged: 0/0
  7382 ;; Data sizes:     COMRAM   BANK0   BANK1   BANK2   BANK3   BANK4   BANK5   BANK6   BANK7   BANK8   BANK9  BANK10  BANK1
      +1  BANK12  BANK13  BANK14  BANK15
  7383 ;;      Params:         0       1       0       0       0       0       0       0       0       0       0       0       
      +0       0       0       0       0
  7384 ;;      Locals:         0       7       0       0       0       0       0       0       0       0       0       0       
      +0       0       0       0       0
  7385 ;;      Temps:          0       2       0       0       0       0       0       0       0       0       0       0       
      +0       0       0       0       0
  7386 ;;      Totals:         0      10       0       0       0       0       0       0       0       0       0       0       
      +0       0       0       0       0
  7387 ;;Total ram usage:       10 bytes
  7388 ;; Hardware stack levels used:    1
  7389 ;; Hardware stack levels required when called:   10
  7390 ;; This function calls:
  7391 ;;		_EPWM3_duty_const
  7392 ;;		___flmul
  7393 ;;		___fltol
  7394 ;;		___xxtofl
  7395 ;; This function is called by:
  7396 ;;		_EPWM3_Initialize
  7397 ;;		_EPWM3_engine_SoftStart
  7398 ;;		_EPWM3_engine_SoftStop
  7399 ;; This function uses a non-reentrant model
  7400 ;;
  7401                           
  7402                           	psect	text57
  7403  001FE4                     __ptext57:
  7404                           	opt callstack 0
  7405  001FE4                     _EPWM3_engine_config:
  7406                           	opt callstack 18
  7407                           
  7408                           ; BSR set to: 15
  7409                           ;incstack = 0
  7410                           ;EPWM3_engine_config@turn stored from wreg
  7411  001FE4  0100               	movlb	0	; () banked
  7412  001FE6  6FE2               	movwf	EPWM3_engine_config@turn& (0+255),b
  7413  001FE8                     
  7414                           ;mcc_generated_files/epwm3.c: 89:     float interval = EPWM3_duty_const(0);
  7415  001FE8  0E00               	movlw	0
  7416  001FEA  EC60  F018         	call	_EPWM3_duty_const
  7417  001FEE  C0D7  F0DE         	movff	?_EPWM3_duty_const,EPWM3_engine_config@interval
  7418  001FF2  C0D8  F0DF         	movff	?_EPWM3_duty_const+1,EPWM3_engine_config@interval+1
  7419  001FF6  C0D9  F0E0         	movff	?_EPWM3_duty_const+2,EPWM3_engine_config@interval+2
  7420  001FFA  C0DA  F0E1         	movff	?_EPWM3_duty_const+3,EPWM3_engine_config@interval+3
  7421  001FFE                     
  7422                           ;mcc_generated_files/epwm3.c: 90:     uint16_t pulse_width_bit;;mcc_generated_files/epwm
      +                          3.c: 91:     if (turn == 0x01 || turn == 0x00) {
  7423  001FFE  0100               	movlb	0	; () banked
  7424  002000  05E2               	decf	EPWM3_engine_config@turn& (0+255),w,b
  7425  002002  B4D8               	btfsc	status,2,c
  7426  002004  EF06  F010         	goto	u7001
  7427  002008  EF08  F010         	goto	u7000
  7428  00200C                     u7001:
  7429  00200C  EF10  F010         	goto	l7688
  7430  002010                     u7000:
  7431  002010                     
  7432                           ; BSR set to: 0
  7433  002010  51E2               	movf	EPWM3_engine_config@turn& (0+255),w,b
  7434  002012  A4D8               	btfss	status,2,c
  7435  002014  EF0E  F010         	goto	u7011
  7436  002018  EF10  F010         	goto	u7010
  7437  00201C                     u7011:
  7438  00201C  EF54  F010         	goto	l7694
  7439  002020                     u7010:
  7440  002020                     l7688:
  7441                           
  7442                           ; BSR set to: 0
  7443                           ;mcc_generated_files/epwm3.c: 92:         pulse_width_bit = duty * interval;
  7444  002020  C0DE  F02C         	movff	EPWM3_engine_config@interval,___flmul@a
  7445  002024  C0DF  F02D         	movff	EPWM3_engine_config@interval+1,___flmul@a+1
  7446  002028  C0E0  F02E         	movff	EPWM3_engine_config@interval+2,___flmul@a+2
  7447  00202C  C0E1  F02F         	movff	EPWM3_engine_config@interval+3,___flmul@a+3
  7448  002030  51DB               	movf	EPWM3_engine_config@duty& (0+255),w,b
  7449  002032  6E1A               	movwf	___xxtofl@val^0,c
  7450  002034  6A1B               	clrf	(___xxtofl@val+1)^0,c
  7451  002036  6A1C               	clrf	(___xxtofl@val+2)^0,c
  7452  002038  6A1D               	clrf	(___xxtofl@val+3)^0,c
  7453  00203A  0E01               	movlw	1
  7454  00203C  EC54  F00E         	call	___xxtofl
  7455  002040  C01A  F028         	movff	?___xxtofl,___flmul@b
  7456  002044  C01B  F029         	movff	?___xxtofl+1,___flmul@b+1
  7457  002048  C01C  F02A         	movff	?___xxtofl+2,___flmul@b+2
  7458  00204C  C01D  F02B         	movff	?___xxtofl+3,___flmul@b+3
  7459  002050  EC1E  F008         	call	___flmul	;wreg free
  7460  002054  C028  F034         	movff	?___flmul,___fltol@f1
  7461  002058  C029  F035         	movff	?___flmul+1,___fltol@f1+1
  7462  00205C  C02A  F036         	movff	?___flmul+2,___fltol@f1+2
  7463  002060  C02B  F037         	movff	?___flmul+3,___fltol@f1+3
  7464  002064  ECBB  F013         	call	___fltol	;wreg free
  7465  002068  C034  F0E3         	movff	?___fltol,EPWM3_engine_config@pulse_width_bit
  7466  00206C  C035  F0E4         	movff	?___fltol+1,EPWM3_engine_config@pulse_width_bit+1
  7467  002070                     
  7468                           ;mcc_generated_files/epwm3.c: 93:         CCPR3L = pulse_width_bit >> 2;
  7469  002070  C0E3  F0DC         	movff	EPWM3_engine_config@pulse_width_bit,??_EPWM3_engine_config
  7470  002074  C0E4  F0DD         	movff	EPWM3_engine_config@pulse_width_bit+1,??_EPWM3_engine_config+1
  7471  002078  0100               	movlb	0	; () banked
  7472  00207A  90D8               	bcf	status,0,c
  7473  00207C  33DD               	rrcf	(??_EPWM3_engine_config+1)& (0+255),f,b
  7474  00207E  33DC               	rrcf	??_EPWM3_engine_config& (0+255),f,b
  7475  002080  90D8               	bcf	status,0,c
  7476  002082  33DD               	rrcf	(??_EPWM3_engine_config+1)& (0+255),f,b
  7477  002084  33DC               	rrcf	??_EPWM3_engine_config& (0+255),f,b
  7478  002086  51DC               	movf	??_EPWM3_engine_config& (0+255),w,b
  7479  002088  010F               	movlb	15	; () banked
  7480  00208A  6F5E               	movwf	94,b	;volatile
  7481  00208C                     
  7482                           ; BSR set to: 15
  7483                           ;mcc_generated_files/epwm3.c: 94:         CCP3CONbits.DC3B = pulse_width_bit;
  7484  00208C  C0E3  F0DC         	movff	EPWM3_engine_config@pulse_width_bit,??_EPWM3_engine_config
  7485  002090  0100               	movlb	0	; () banked
  7486  002092  3BDC               	swapf	??_EPWM3_engine_config& (0+255),f,b
  7487  002094  010F               	movlb	15	; () banked
  7488  002096  515D               	movf	93,w,b	;volatile
  7489  002098  0100               	movlb	0	; () banked
  7490  00209A  19DC               	xorwf	??_EPWM3_engine_config& (0+255),w,b
  7491  00209C  0BCF               	andlw	-49
  7492  00209E  19DC               	xorwf	??_EPWM3_engine_config& (0+255),w,b
  7493  0020A0  010F               	movlb	15	; () banked
  7494  0020A2  6F5D               	movwf	93,b	;volatile
  7495                           
  7496                           ;mcc_generated_files/epwm3.c: 95:     } else if (turn == 0x02) {
  7497  0020A4  EFAB  F010         	goto	l171
  7498  0020A8                     l7694:
  7499                           
  7500                           ; BSR set to: 0
  7501  0020A8  0E02               	movlw	2
  7502  0020AA  19E2               	xorwf	EPWM3_engine_config@turn& (0+255),w,b
  7503  0020AC  A4D8               	btfss	status,2,c
  7504  0020AE  EF5B  F010         	goto	u7021
  7505  0020B2  EF5D  F010         	goto	u7020
  7506  0020B6                     u7021:
  7507  0020B6  EFAB  F010         	goto	l171
  7508  0020BA                     u7020:
  7509  0020BA                     
  7510                           ; BSR set to: 0
  7511                           ;mcc_generated_files/epwm3.c: 96:         pulse_width_bit = (100 - duty) * interval;
  7512  0020BA  C0DE  F02C         	movff	EPWM3_engine_config@interval,___flmul@a
  7513  0020BE  C0DF  F02D         	movff	EPWM3_engine_config@interval+1,___flmul@a+1
  7514  0020C2  C0E0  F02E         	movff	EPWM3_engine_config@interval+2,___flmul@a+2
  7515  0020C6  C0E1  F02F         	movff	EPWM3_engine_config@interval+3,___flmul@a+3
  7516  0020CA  0E64               	movlw	100
  7517  0020CC  6FDC               	movwf	??_EPWM3_engine_config& (0+255),b
  7518  0020CE  0E00               	movlw	0
  7519  0020D0  6FDD               	movwf	(??_EPWM3_engine_config+1)& (0+255),b
  7520  0020D2  51DB               	movf	EPWM3_engine_config@duty& (0+255),w,b
  7521  0020D4  5FDC               	subwf	??_EPWM3_engine_config& (0+255),f,b
  7522  0020D6  0E00               	movlw	0
  7523  0020D8  5BDD               	subwfb	(??_EPWM3_engine_config+1)& (0+255),f,b
  7524  0020DA  C0DC  F01A         	movff	??_EPWM3_engine_config,___xxtofl@val
  7525  0020DE  C0DD  F01B         	movff	??_EPWM3_engine_config+1,___xxtofl@val+1
  7526  0020E2  0E00               	movlw	0
  7527  0020E4  BE1B               	btfsc	(___xxtofl@val+1)^0,7,c
  7528  0020E6  0EFF               	movlw	-1
  7529  0020E8  6E1C               	movwf	(___xxtofl@val+2)^0,c
  7530  0020EA  6E1D               	movwf	(___xxtofl@val+3)^0,c
  7531  0020EC  0E01               	movlw	1
  7532  0020EE  EC54  F00E         	call	___xxtofl
  7533  0020F2  C01A  F028         	movff	?___xxtofl,___flmul@b
  7534  0020F6  C01B  F029         	movff	?___xxtofl+1,___flmul@b+1
  7535  0020FA  C01C  F02A         	movff	?___xxtofl+2,___flmul@b+2
  7536  0020FE  C01D  F02B         	movff	?___xxtofl+3,___flmul@b+3
  7537  002102  EC1E  F008         	call	___flmul	;wreg free
  7538  002106  C028  F034         	movff	?___flmul,___fltol@f1
  7539  00210A  C029  F035         	movff	?___flmul+1,___fltol@f1+1
  7540  00210E  C02A  F036         	movff	?___flmul+2,___fltol@f1+2
  7541  002112  C02B  F037         	movff	?___flmul+3,___fltol@f1+3
  7542  002116  ECBB  F013         	call	___fltol	;wreg free
  7543  00211A  C034  F0E3         	movff	?___fltol,EPWM3_engine_config@pulse_width_bit
  7544  00211E  C035  F0E4         	movff	?___fltol+1,EPWM3_engine_config@pulse_width_bit+1
  7545  002122                     
  7546                           ;mcc_generated_files/epwm3.c: 97:         CCPR3L = pulse_width_bit >> 2;
  7547  002122  C0E3  F0DC         	movff	EPWM3_engine_config@pulse_width_bit,??_EPWM3_engine_config
  7548  002126  C0E4  F0DD         	movff	EPWM3_engine_config@pulse_width_bit+1,??_EPWM3_engine_config+1
  7549  00212A  0100               	movlb	0	; () banked
  7550  00212C  90D8               	bcf	status,0,c
  7551  00212E  33DD               	rrcf	(??_EPWM3_engine_config+1)& (0+255),f,b
  7552  002130  33DC               	rrcf	??_EPWM3_engine_config& (0+255),f,b
  7553  002132  90D8               	bcf	status,0,c
  7554  002134  33DD               	rrcf	(??_EPWM3_engine_config+1)& (0+255),f,b
  7555  002136  33DC               	rrcf	??_EPWM3_engine_config& (0+255),f,b
  7556  002138  51DC               	movf	??_EPWM3_engine_config& (0+255),w,b
  7557  00213A  010F               	movlb	15	; () banked
  7558  00213C  6F5E               	movwf	94,b	;volatile
  7559  00213E                     
  7560                           ; BSR set to: 15
  7561                           ;mcc_generated_files/epwm3.c: 98:         CCP3CONbits.DC3B = pulse_width_bit;
  7562  00213E  C0E3  F0DC         	movff	EPWM3_engine_config@pulse_width_bit,??_EPWM3_engine_config
  7563  002142  0100               	movlb	0	; () banked
  7564  002144  3BDC               	swapf	??_EPWM3_engine_config& (0+255),f,b
  7565  002146  010F               	movlb	15	; () banked
  7566  002148  515D               	movf	93,w,b	;volatile
  7567  00214A  0100               	movlb	0	; () banked
  7568  00214C  19DC               	xorwf	??_EPWM3_engine_config& (0+255),w,b
  7569  00214E  0BCF               	andlw	-49
  7570  002150  19DC               	xorwf	??_EPWM3_engine_config& (0+255),w,b
  7571  002152  010F               	movlb	15	; () banked
  7572  002154  6F5D               	movwf	93,b	;volatile
  7573  002156                     l171:
  7574  002156  0012               	return		;funcret
  7575  002158                     __end_of_EPWM3_engine_config:
  7576                           	opt callstack 0
  7577                           
  7578 ;; *************** function _EPWM3_duty_const *****************
  7579 ;; Defined at:
  7580 ;;		line 79 in file "mcc_generated_files/epwm3.c"
  7581 ;; Parameters:    Size  Location     Type
  7582 ;;  freq            1    wreg     unsigned char 
  7583 ;; Auto vars:     Size  Location     Type
  7584 ;;  freq            1   55[COMRAM] unsigned char 
  7585 ;; Return value:  Size  Location     Type
  7586 ;;                  4   19[BANK0 ] float 
  7587 ;; Registers used:
  7588 ;;		wreg, status,2, status,0, prodl, prodh, cstack
  7589 ;; Tracked objects:
  7590 ;;		On entry : 0/0
  7591 ;;		On exit  : 0/0
  7592 ;;		Unchanged: 0/0
  7593 ;; Data sizes:     COMRAM   BANK0   BANK1   BANK2   BANK3   BANK4   BANK5   BANK6   BANK7   BANK8   BANK9  BANK10  BANK1
      +1  BANK12  BANK13  BANK14  BANK15
  7594 ;;      Params:         0       4       0       0       0       0       0       0       0       0       0       0       
      +0       0       0       0       0
  7595 ;;      Locals:         1       0       0       0       0       0       0       0       0       0       0       0       
      +0       0       0       0       0
  7596 ;;      Temps:          0       0       0       0       0       0       0       0       0       0       0       0       
      +0       0       0       0       0
  7597 ;;      Totals:         1       4       0       0       0       0       0       0       0       0       0       0       
      +0       0       0       0       0
  7598 ;;Total ram usage:        5 bytes
  7599 ;; Hardware stack levels used:    1
  7600 ;; Hardware stack levels required when called:    9
  7601 ;; This function calls:
  7602 ;;		___fldiv
  7603 ;;		___fltol
  7604 ;;		___wmul
  7605 ;;		___xxtofl
  7606 ;; This function is called by:
  7607 ;;		_EPWM3_period
  7608 ;;		_EPWM3_engine_config
  7609 ;; This function uses a non-reentrant model
  7610 ;;
  7611                           
  7612                           	psect	text58
  7613  0030C0                     __ptext58:
  7614                           	opt callstack 0
  7615  0030C0                     _EPWM3_duty_const:
  7616                           	opt callstack 18
  7617                           
  7618                           ;incstack = 0
  7619                           ;EPWM3_duty_const@freq stored from wreg
  7620  0030C0  6E38               	movwf	EPWM3_duty_const@freq^0,c
  7621  0030C2                     
  7622                           ;mcc_generated_files/epwm3.c: 80:     static float interval = 0;;mcc_generated_files/epw
      +                          m3.c: 81:     if (freq != 0) {
  7623  0030C2  5038               	movf	EPWM3_duty_const@freq^0,w,c
  7624  0030C4  B4D8               	btfsc	status,2,c
  7625  0030C6  EF67  F018         	goto	u6901
  7626  0030CA  EF69  F018         	goto	u6900
  7627  0030CE                     u6901:
  7628  0030CE  EFA5  F018         	goto	l7572
  7629  0030D2                     u6900:
  7630  0030D2                     
  7631                           ;mcc_generated_files/epwm3.c: 82:         interval = (float) (64000000 / 1000) / (freq *
      +                           100 * 16);
  7632  0030D2  0E00               	movlw	0
  7633  0030D4  6E28               	movwf	___fldiv@b^0,c
  7634  0030D6  0E00               	movlw	0
  7635  0030D8  6E29               	movwf	(___fldiv@b+1)^0,c
  7636  0030DA  0E7A               	movlw	122
  7637  0030DC  6E2A               	movwf	(___fldiv@b+2)^0,c
  7638  0030DE  0E47               	movlw	71
  7639  0030E0  6E2B               	movwf	(___fldiv@b+3)^0,c
  7640  0030E2  C038  F014         	movff	EPWM3_duty_const@freq,___wmul@multiplier
  7641  0030E6  6A15               	clrf	(___wmul@multiplier+1)^0,c
  7642  0030E8  0E06               	movlw	6
  7643  0030EA  6E17               	movwf	(___wmul@multiplicand+1)^0,c
  7644  0030EC  0E40               	movlw	64
  7645  0030EE  6E16               	movwf	___wmul@multiplicand^0,c
  7646  0030F0  ECFA  F01D         	call	___wmul	;wreg free
  7647  0030F4  C014  F01A         	movff	?___wmul,___xxtofl@val
  7648  0030F8  C015  F01B         	movff	?___wmul+1,___xxtofl@val+1
  7649  0030FC  0E00               	movlw	0
  7650  0030FE  BE1B               	btfsc	(___xxtofl@val+1)^0,7,c
  7651  003100  0EFF               	movlw	-1
  7652  003102  6E1C               	movwf	(___xxtofl@val+2)^0,c
  7653  003104  6E1D               	movwf	(___xxtofl@val+3)^0,c
  7654  003106  0E01               	movlw	1
  7655  003108  EC54  F00E         	call	___xxtofl
  7656  00310C  C01A  F02C         	movff	?___xxtofl,___fldiv@a
  7657  003110  C01B  F02D         	movff	?___xxtofl+1,___fldiv@a+1
  7658  003114  C01C  F02E         	movff	?___xxtofl+2,___fldiv@a+2
  7659  003118  C01D  F02F         	movff	?___xxtofl+3,___fldiv@a+3
  7660  00311C  EC34  F00A         	call	___fldiv	;wreg free
  7661  003120  C028  F09A         	movff	?___fldiv,EPWM3_duty_const@interval
  7662  003124  C029  F09B         	movff	?___fldiv+1,EPWM3_duty_const@interval+1
  7663  003128  C02A  F09C         	movff	?___fldiv+2,EPWM3_duty_const@interval+2
  7664  00312C  C02B  F09D         	movff	?___fldiv+3,EPWM3_duty_const@interval+3
  7665  003130                     
  7666                           ;mcc_generated_files/epwm3.c: 83:         interval_ISR = interval;
  7667  003130  C09A  F034         	movff	EPWM3_duty_const@interval,___fltol@f1
  7668  003134  C09B  F035         	movff	EPWM3_duty_const@interval+1,___fltol@f1+1
  7669  003138  C09C  F036         	movff	EPWM3_duty_const@interval+2,___fltol@f1+2
  7670  00313C  C09D  F037         	movff	EPWM3_duty_const@interval+3,___fltol@f1+3
  7671  003140  ECBB  F013         	call	___fltol	;wreg free
  7672  003144  5034               	movf	?___fltol^0,w,c
  7673  003146  0100               	movlb	0	; () banked
  7674  003148  6FC3               	movwf	_interval_ISR& (0+255),b
  7675  00314A                     l7572:
  7676                           
  7677                           ;mcc_generated_files/epwm3.c: 85:     return interval;
  7678  00314A  C09A  F0D7         	movff	EPWM3_duty_const@interval,?_EPWM3_duty_const
  7679  00314E  C09B  F0D8         	movff	EPWM3_duty_const@interval+1,?_EPWM3_duty_const+1
  7680  003152  C09C  F0D9         	movff	EPWM3_duty_const@interval+2,?_EPWM3_duty_const+2
  7681  003156  C09D  F0DA         	movff	EPWM3_duty_const@interval+3,?_EPWM3_duty_const+3
  7682  00315A  0012               	return		;funcret
  7683  00315C                     __end_of_EPWM3_duty_const:
  7684                           	opt callstack 0
  7685                           
  7686 ;; *************** function _EPWM2_Initialize *****************
  7687 ;; Defined at:
  7688 ;;		line 15 in file "mcc_generated_files/epwm2.c"
  7689 ;; Parameters:    Size  Location     Type
  7690 ;;  freq            1    wreg     unsigned char 
  7691 ;; Auto vars:     Size  Location     Type
  7692 ;;  freq            1   29[BANK0 ] unsigned char 
  7693 ;; Return value:  Size  Location     Type
  7694 ;;                  1    wreg      void 
  7695 ;; Registers used:
  7696 ;;		wreg, status,2, status,0, prodl, prodh, cstack
  7697 ;; Tracked objects:
  7698 ;;		On entry : 0/0
  7699 ;;		On exit  : 0/0
  7700 ;;		Unchanged: 0/0
  7701 ;; Data sizes:     COMRAM   BANK0   BANK1   BANK2   BANK3   BANK4   BANK5   BANK6   BANK7   BANK8   BANK9  BANK10  BANK1
      +1  BANK12  BANK13  BANK14  BANK15
  7702 ;;      Params:         0       0       0       0       0       0       0       0       0       0       0       0       
      +0       0       0       0       0
  7703 ;;      Locals:         0       1       0       0       0       0       0       0       0       0       0       0       
      +0       0       0       0       0
  7704 ;;      Temps:          0       0       0       0       0       0       0       0       0       0       0       0       
      +0       0       0       0       0
  7705 ;;      Totals:         0       1       0       0       0       0       0       0       0       0       0       0       
      +0       0       0       0       0
  7706 ;;Total ram usage:        1 bytes
  7707 ;; Hardware stack levels used:    1
  7708 ;; Hardware stack levels required when called:   11
  7709 ;; This function calls:
  7710 ;;		_EPWM2_engine_config
  7711 ;;		_EPWM2_outputs_off
  7712 ;;		_EPWM2_period
  7713 ;;		_TMR2_StopTimer
  7714 ;;		_TMR2_WriteTimer
  7715 ;; This function is called by:
  7716 ;;		_SYSTEM_Initialize
  7717 ;; This function uses a non-reentrant model
  7718 ;;
  7719                           
  7720                           	psect	text59
  7721  0033B8                     __ptext59:
  7722                           	opt callstack 0
  7723  0033B8                     _EPWM2_Initialize:
  7724                           	opt callstack 18
  7725                           
  7726                           ;incstack = 0
  7727                           ;EPWM2_Initialize@freq stored from wreg
  7728  0033B8  0100               	movlb	0	; () banked
  7729  0033BA  6FE1               	movwf	EPWM2_Initialize@freq& (0+255),b
  7730  0033BC                     
  7731                           ;mcc_generated_files/epwm2.c: 16:     TRISC |= 0x03;
  7732  0033BC  0E03               	movlw	3
  7733  0033BE  1294               	iorwf	148,f,c	;volatile
  7734  0033C0                     
  7735                           ;mcc_generated_files/epwm2.c: 19:     LATAbits.LATA5 = 0;
  7736  0033C0  9A89               	bcf	137,5,c	;volatile
  7737  0033C2                     
  7738                           ;mcc_generated_files/epwm2.c: 20:     TRISAbits.TRISA5 = 1;
  7739  0033C2  8A92               	bsf	146,5,c	;volatile
  7740  0033C4                     
  7741                           ;mcc_generated_files/epwm2.c: 21:     PSTR2CON = 0x13;
  7742  0033C4  0E13               	movlw	19
  7743  0033C6  6E63               	movwf	99,c	;volatile
  7744  0033C8                     
  7745                           ;mcc_generated_files/epwm2.c: 25:     CCPTMRS0bits.C2TSEL = 0b00;
  7746  0033C8  0EE7               	movlw	-25
  7747  0033CA  010F               	movlb	15	; () banked
  7748  0033CC  1749               	andwf	73,f,b	;volatile
  7749                           
  7750                           ;mcc_generated_files/epwm2.c: 26:     if (freq < 4)
  7751  0033CE  0E04               	movlw	4
  7752  0033D0  0100               	movlb	0	; () banked
  7753  0033D2  61E1               	cpfslt	EPWM2_Initialize@freq& (0+255),b
  7754  0033D4  EFEE  F019         	goto	u7171
  7755  0033D8  EFF0  F019         	goto	u7170
  7756  0033DC                     u7171:
  7757  0033DC  EFF5  F019         	goto	l7830
  7758  0033E0                     u7170:
  7759  0033E0                     
  7760                           ; BSR set to: 0
  7761                           ;mcc_generated_files/epwm2.c: 27:         EPWM2_period(4);
  7762  0033E0  0E04               	movlw	4
  7763  0033E2  EC9C  F01B         	call	_EPWM2_period
  7764  0033E6  EFF8  F019         	goto	l7832
  7765  0033EA                     l7830:
  7766                           
  7767                           ; BSR set to: 0
  7768                           ;mcc_generated_files/epwm2.c: 29:         EPWM2_period(freq);
  7769  0033EA  51E1               	movf	EPWM2_Initialize@freq& (0+255),w,b
  7770  0033EC  EC9C  F01B         	call	_EPWM2_period
  7771  0033F0                     l7832:
  7772                           
  7773                           ;mcc_generated_files/epwm2.c: 30:     ECCP2ASbits.CCP2AS = 0;
  7774  0033F0  0E8F               	movlw	-113
  7775  0033F2  1664               	andwf	100,f,c	;volatile
  7776  0033F4                     
  7777                           ;mcc_generated_files/epwm2.c: 31:     ECCP2ASbits.PSS2AC = 0;
  7778  0033F4  0EF3               	movlw	-13
  7779  0033F6  1664               	andwf	100,f,c	;volatile
  7780  0033F8                     
  7781                           ;mcc_generated_files/epwm2.c: 33:     ECCP2ASbits.PSS2BD = 0;
  7782  0033F8  0EFC               	movlw	-4
  7783  0033FA  1664               	andwf	100,f,c	;volatile
  7784  0033FC                     
  7785                           ;mcc_generated_files/epwm2.c: 35:     PWM2CONbits.P2RSEN = 0;
  7786  0033FC  9E65               	bcf	101,7,c	;volatile
  7787  0033FE                     
  7788                           ;mcc_generated_files/epwm2.c: 39:     CCP2CONbits.P2M = 0b10;
  7789  0033FE  5066               	movf	102,w,c	;volatile
  7790  003400  0B3F               	andlw	-193
  7791  003402  0980               	iorlw	128
  7792  003404  6E66               	movwf	102,c	;volatile
  7793  003406                     
  7794                           ;mcc_generated_files/epwm2.c: 42:     CCP2CONbits.CCP2M = 0b1100;
  7795  003406  5066               	movf	102,w,c	;volatile
  7796  003408  0BF0               	andlw	-16
  7797  00340A  090C               	iorlw	12
  7798  00340C  6E66               	movwf	102,c	;volatile
  7799  00340E                     
  7800                           ;mcc_generated_files/epwm2.c: 46:     EPWM2_engine_config(0x00, 50);
  7801  00340E  0E32               	movlw	50
  7802  003410  0100               	movlb	0	; () banked
  7803  003412  6FD7               	movwf	EPWM2_engine_config@duty& (0+255),b
  7804  003414  0E00               	movlw	0
  7805  003416  EC5E  F011         	call	_EPWM2_engine_config
  7806                           
  7807                           ;mcc_generated_files/epwm2.c: 48:     PWM2CONbits.P2DC = 0x50;
  7808  00341A  5065               	movf	101,w,c	;volatile
  7809  00341C  0B80               	andlw	-128
  7810  00341E  0950               	iorlw	80
  7811  003420  6E65               	movwf	101,c	;volatile
  7812                           
  7813                           ;mcc_generated_files/epwm2.c: 52:     T2CONbits.T2CKPS = 0b11;
  7814  003422  0E03               	movlw	3
  7815  003424  12BA               	iorwf	186,f,c	;volatile
  7816  003426                     
  7817                           ;mcc_generated_files/epwm2.c: 55:     TMR2_StopTimer();
  7818  003426  EC00  F01F         	call	_TMR2_StopTimer	;wreg free
  7819  00342A                     
  7820                           ;mcc_generated_files/epwm2.c: 56:     TMR2_WriteTimer(0);
  7821  00342A  0E00               	movlw	0
  7822  00342C  ECD9  F01E         	call	_TMR2_WriteTimer
  7823  003430                     
  7824                           ;mcc_generated_files/epwm2.c: 57:     TRISC &= 0xFC;
  7825  003430  0EFC               	movlw	252
  7826  003432  1694               	andwf	148,f,c	;volatile
  7827  003434                     
  7828                           ;mcc_generated_files/epwm2.c: 58:     LATAbits.LATA5 = 0;
  7829  003434  9A89               	bcf	137,5,c	;volatile
  7830  003436                     
  7831                           ;mcc_generated_files/epwm2.c: 59:     TRISAbits.TRISA5 = 0;
  7832  003436  9A92               	bcf	146,5,c	;volatile
  7833  003438                     
  7834                           ;mcc_generated_files/epwm2.c: 60:     EPWM2_outputs_off();
  7835  003438  EC02  F01F         	call	_EPWM2_outputs_off	;wreg free
  7836  00343C                     
  7837                           ;mcc_generated_files/epwm2.c: 61:     STATUS_Eng_A.status = 0;
  7838  00343C  0E00               	movlw	0
  7839  00343E  6E40               	movwf	_STATUS_Eng_A^0,c
  7840  003440                     
  7841                           ;mcc_generated_files/epwm2.c: 62:     STATUS_Eng_A.turn = 0x00;
  7842  003440  0E00               	movlw	0
  7843  003442  6E41               	movwf	(_STATUS_Eng_A+1)^0,c
  7844  003444  0012               	return		;funcret
  7845  003446                     __end_of_EPWM2_Initialize:
  7846                           	opt callstack 0
  7847                           
  7848 ;; *************** function _TMR2_WriteTimer *****************
  7849 ;; Defined at:
  7850 ;;		line 20 in file "mcc_generated_files/tmr2.c"
  7851 ;; Parameters:    Size  Location     Type
  7852 ;;  timerVal        1    wreg     unsigned char 
  7853 ;; Auto vars:     Size  Location     Type
  7854 ;;  timerVal        1   19[COMRAM] unsigned char 
  7855 ;; Return value:  Size  Location     Type
  7856 ;;                  1    wreg      void 
  7857 ;; Registers used:
  7858 ;;		wreg
  7859 ;; Tracked objects:
  7860 ;;		On entry : 0/0
  7861 ;;		On exit  : 0/0
  7862 ;;		Unchanged: 0/0
  7863 ;; Data sizes:     COMRAM   BANK0   BANK1   BANK2   BANK3   BANK4   BANK5   BANK6   BANK7   BANK8   BANK9  BANK10  BANK1
      +1  BANK12  BANK13  BANK14  BANK15
  7864 ;;      Params:         0       0       0       0       0       0       0       0       0       0       0       0       
      +0       0       0       0       0
  7865 ;;      Locals:         1       0       0       0       0       0       0       0       0       0       0       0       
      +0       0       0       0       0
  7866 ;;      Temps:          0       0       0       0       0       0       0       0       0       0       0       0       
      +0       0       0       0       0
  7867 ;;      Totals:         1       0       0       0       0       0       0       0       0       0       0       0       
      +0       0       0       0       0
  7868 ;;Total ram usage:        1 bytes
  7869 ;; Hardware stack levels used:    1
  7870 ;; Hardware stack levels required when called:    8
  7871 ;; This function calls:
  7872 ;;		Nothing
  7873 ;; This function is called by:
  7874 ;;		_EPWM2_Initialize
  7875 ;;		_EPWM2_engine_running
  7876 ;; This function uses a non-reentrant model
  7877 ;;
  7878                           
  7879                           	psect	text60
  7880  003DB2                     __ptext60:
  7881                           	opt callstack 0
  7882  003DB2                     _TMR2_WriteTimer:
  7883                           	opt callstack 20
  7884                           
  7885                           ;incstack = 0
  7886                           ;TMR2_WriteTimer@timerVal stored from wreg
  7887  003DB2  6E14               	movwf	TMR2_WriteTimer@timerVal^0,c
  7888  003DB4                     
  7889                           ;mcc_generated_files/tmr2.c: 21:     TMR2 = timerVal;
  7890  003DB4  C014  FFBC         	movff	TMR2_WriteTimer@timerVal,4028	;volatile
  7891  003DB8  0012               	return		;funcret
  7892  003DBA                     __end_of_TMR2_WriteTimer:
  7893                           	opt callstack 0
  7894                           
  7895 ;; *************** function _TMR2_StopTimer *****************
  7896 ;; Defined at:
  7897 ;;		line 15 in file "mcc_generated_files/tmr2.c"
  7898 ;; Parameters:    Size  Location     Type
  7899 ;;		None
  7900 ;; Auto vars:     Size  Location     Type
  7901 ;;		None
  7902 ;; Return value:  Size  Location     Type
  7903 ;;                  1    wreg      void 
  7904 ;; Registers used:
  7905 ;;		None
  7906 ;; Tracked objects:
  7907 ;;		On entry : 0/0
  7908 ;;		On exit  : 0/0
  7909 ;;		Unchanged: 0/0
  7910 ;; Data sizes:     COMRAM   BANK0   BANK1   BANK2   BANK3   BANK4   BANK5   BANK6   BANK7   BANK8   BANK9  BANK10  BANK1
      +1  BANK12  BANK13  BANK14  BANK15
  7911 ;;      Params:         0       0       0       0       0       0       0       0       0       0       0       0       
      +0       0       0       0       0
  7912 ;;      Locals:         0       0       0       0       0       0       0       0       0       0       0       0       
      +0       0       0       0       0
  7913 ;;      Temps:          0       0       0       0       0       0       0       0       0       0       0       0       
      +0       0       0       0       0
  7914 ;;      Totals:         0       0       0       0       0       0       0       0       0       0       0       0       
      +0       0       0       0       0
  7915 ;;Total ram usage:        0 bytes
  7916 ;; Hardware stack levels used:    1
  7917 ;; Hardware stack levels required when called:    8
  7918 ;; This function calls:
  7919 ;;		Nothing
  7920 ;; This function is called by:
  7921 ;;		_EPWM2_Initialize
  7922 ;;		_EPWM2_engine_off
  7923 ;; This function uses a non-reentrant model
  7924 ;;
  7925                           
  7926                           	psect	text61
  7927  003E00                     __ptext61:
  7928                           	opt callstack 0
  7929  003E00                     _TMR2_StopTimer:
  7930                           	opt callstack 18
  7931  003E00                     
  7932                           ;mcc_generated_files/tmr2.c: 16:     T2CONbits.TMR2ON = 0;
  7933  003E00  94BA               	bcf	186,2,c	;volatile
  7934  003E02  0012               	return		;funcret
  7935  003E04                     __end_of_TMR2_StopTimer:
  7936                           	opt callstack 0
  7937                           
  7938 ;; *************** function _EPWM2_period *****************
  7939 ;; Defined at:
  7940 ;;		line 66 in file "mcc_generated_files/epwm2.c"
  7941 ;; Parameters:    Size  Location     Type
  7942 ;;  freq            1    wreg     unsigned char 
  7943 ;; Auto vars:     Size  Location     Type
  7944 ;;  freq            1   15[BANK0 ] unsigned char 
  7945 ;; Return value:  Size  Location     Type
  7946 ;;                  1    wreg      void 
  7947 ;; Registers used:
  7948 ;;		wreg, status,2, status,0, prodl, prodh, cstack
  7949 ;; Tracked objects:
  7950 ;;		On entry : 0/0
  7951 ;;		On exit  : 0/0
  7952 ;;		Unchanged: 0/0
  7953 ;; Data sizes:     COMRAM   BANK0   BANK1   BANK2   BANK3   BANK4   BANK5   BANK6   BANK7   BANK8   BANK9  BANK10  BANK1
      +1  BANK12  BANK13  BANK14  BANK15
  7954 ;;      Params:         0       0       0       0       0       0       0       0       0       0       0       0       
      +0       0       0       0       0
  7955 ;;      Locals:         0       1       0       0       0       0       0       0       0       0       0       0       
      +0       0       0       0       0
  7956 ;;      Temps:          0       2       0       0       0       0       0       0       0       0       0       0       
      +0       0       0       0       0
  7957 ;;      Totals:         0       3       0       0       0       0       0       0       0       0       0       0       
      +0       0       0       0       0
  7958 ;;Total ram usage:        3 bytes
  7959 ;; Hardware stack levels used:    1
  7960 ;; Hardware stack levels required when called:   10
  7961 ;; This function calls:
  7962 ;;		_EPWM2_duty_const
  7963 ;;		_TMR2_LoadPeriodRegister
  7964 ;;		___aldiv
  7965 ;; This function is called by:
  7966 ;;		_EPWM2_Initialize
  7967 ;; This function uses a non-reentrant model
  7968 ;;
  7969                           
  7970                           	psect	text62
  7971  003738                     __ptext62:
  7972                           	opt callstack 0
  7973  003738                     _EPWM2_period:
  7974                           	opt callstack 18
  7975                           
  7976                           ;incstack = 0
  7977                           ;EPWM2_period@freq stored from wreg
  7978  003738  0100               	movlb	0	; () banked
  7979  00373A  6FD3               	movwf	EPWM2_period@freq& (0+255),b
  7980  00373C                     
  7981                           ;mcc_generated_files/epwm2.c: 67:     static uint8_t freq_lure = 0;;mcc_generated_files/
      +                          epwm2.c: 68:     if (freq_lure != freq) {
  7982  00373C  0100               	movlb	0	; () banked
  7983  00373E  51D3               	movf	EPWM2_period@freq& (0+255),w,b
  7984  003740  19C0               	xorwf	EPWM2_period@freq_lure& (0+255),w,b
  7985  003742  B4D8               	btfsc	status,2,c
  7986  003744  EFA6  F01B         	goto	u7031
  7987  003748  EFA8  F01B         	goto	u7030
  7988  00374C                     u7031:
  7989  00374C  EFD7  F01B         	goto	l278
  7990  003750                     u7030:
  7991  003750                     
  7992                           ; BSR set to: 0
  7993                           ;mcc_generated_files/epwm2.c: 69:         if (freq <= 4)
  7994  003750  0E05               	movlw	5
  7995  003752  61D3               	cpfslt	EPWM2_period@freq& (0+255),b
  7996  003754  EFAE  F01B         	goto	u7041
  7997  003758  EFB0  F01B         	goto	u7040
  7998  00375C                     u7041:
  7999  00375C  EFB5  F01B         	goto	l7710
  8000  003760                     u7040:
  8001  003760                     
  8002                           ; BSR set to: 0
  8003                           ;mcc_generated_files/epwm2.c: 70:             TMR2_LoadPeriodRegister(((64000000 / 1000)
      +                           / (4 * 4 * 16)) - 1);
  8004  003760  0EF9               	movlw	249
  8005  003762  ECDD  F01E         	call	_TMR2_LoadPeriodRegister
  8006  003766  EFD1  F01B         	goto	l7712
  8007  00376A                     l7710:
  8008                           
  8009                           ; BSR set to: 0
  8010                           ;mcc_generated_files/epwm2.c: 72:             TMR2_LoadPeriodRegister(((64000000 / 1000)
      +                           / (freq * 4 * 16)) - 1);
  8011  00376A  0E00               	movlw	0
  8012  00376C  6E20               	movwf	___aldiv@dividend^0,c
  8013  00376E  0EFA               	movlw	250
  8014  003770  6E21               	movwf	(___aldiv@dividend+1)^0,c
  8015  003772  0E00               	movlw	0
  8016  003774  6E22               	movwf	(___aldiv@dividend+2)^0,c
  8017  003776  0E00               	movlw	0
  8018  003778  6E23               	movwf	(___aldiv@dividend+3)^0,c
  8019  00377A  51D3               	movf	EPWM2_period@freq& (0+255),w,b
  8020  00377C  0D40               	mullw	64
  8021  00377E  CFF3 F0D1          	movff	prodl,??_EPWM2_period
  8022  003782  CFF4 F0D2          	movff	prodh,??_EPWM2_period+1
  8023  003786  C0D1  F024         	movff	??_EPWM2_period,___aldiv@divisor
  8024  00378A  C0D2  F025         	movff	??_EPWM2_period+1,___aldiv@divisor+1
  8025  00378E  0E00               	movlw	0
  8026  003790  BE25               	btfsc	(___aldiv@divisor+1)^0,7,c
  8027  003792  0EFF               	movlw	-1
  8028  003794  6E26               	movwf	(___aldiv@divisor+2)^0,c
  8029  003796  6E27               	movwf	(___aldiv@divisor+3)^0,c
  8030  003798  EC35  F013         	call	___aldiv	;wreg free
  8031  00379C  0420               	decf	?___aldiv^0,w,c
  8032  00379E  ECDD  F01E         	call	_TMR2_LoadPeriodRegister
  8033  0037A2                     l7712:
  8034                           
  8035                           ;mcc_generated_files/epwm2.c: 73:         freq_lure = freq;
  8036  0037A2  C0D3  F0C0         	movff	EPWM2_period@freq,EPWM2_period@freq_lure
  8037                           
  8038                           ;mcc_generated_files/epwm2.c: 74:         EPWM2_duty_const(freq);
  8039  0037A6  0100               	movlb	0	; () banked
  8040  0037A8  51D3               	movf	EPWM2_period@freq& (0+255),w,b
  8041  0037AA  EC65  F01A         	call	_EPWM2_duty_const
  8042  0037AE                     l278:
  8043  0037AE  0012               	return		;funcret
  8044  0037B0                     __end_of_EPWM2_period:
  8045                           	opt callstack 0
  8046                           
  8047 ;; *************** function ___aldiv *****************
  8048 ;; Defined at:
  8049 ;;		line 7 in file "C:\Program Files (x86)\Microchip\xc8\v2.10\pic\sources\c99\common\aldiv.c"
  8050 ;; Parameters:    Size  Location     Type
  8051 ;;  dividend        4   31[COMRAM] long 
  8052 ;;  divisor         4   35[COMRAM] long 
  8053 ;; Auto vars:     Size  Location     Type
  8054 ;;  quotient        4   41[COMRAM] long 
  8055 ;;  sign            1   40[COMRAM] unsigned char 
  8056 ;;  counter         1   39[COMRAM] unsigned char 
  8057 ;; Return value:  Size  Location     Type
  8058 ;;                  4   31[COMRAM] long 
  8059 ;; Registers used:
  8060 ;;		wreg, status,2, status,0
  8061 ;; Tracked objects:
  8062 ;;		On entry : 0/0
  8063 ;;		On exit  : 0/0
  8064 ;;		Unchanged: 0/0
  8065 ;; Data sizes:     COMRAM   BANK0   BANK1   BANK2   BANK3   BANK4   BANK5   BANK6   BANK7   BANK8   BANK9  BANK10  BANK1
      +1  BANK12  BANK13  BANK14  BANK15
  8066 ;;      Params:         8       0       0       0       0       0       0       0       0       0       0       0       
      +0       0       0       0       0
  8067 ;;      Locals:         6       0       0       0       0       0       0       0       0       0       0       0       
      +0       0       0       0       0
  8068 ;;      Temps:          0       0       0       0       0       0       0       0       0       0       0       0       
      +0       0       0       0       0
  8069 ;;      Totals:        14       0       0       0       0       0       0       0       0       0       0       0       
      +0       0       0       0       0
  8070 ;;Total ram usage:       14 bytes
  8071 ;; Hardware stack levels used:    1
  8072 ;; Hardware stack levels required when called:    8
  8073 ;; This function calls:
  8074 ;;		Nothing
  8075 ;; This function is called by:
  8076 ;;		_EPWM3_period
  8077 ;;		_EPWM2_period
  8078 ;;		_TMR0_WriteTimer
  8079 ;; This function uses a non-reentrant model
  8080 ;;
  8081                           
  8082                           	psect	text63
  8083  00266A                     __ptext63:
  8084                           	opt callstack 0
  8085  00266A                     ___aldiv:
  8086                           	opt callstack 17
  8087  00266A  0E00               	movlw	0
  8088  00266C  6E29               	movwf	___aldiv@sign^0,c
  8089  00266E  BE27               	btfsc	(___aldiv@divisor+3)^0,7,c
  8090  002670  EF3E  F013         	goto	u5620
  8091  002674  EF3C  F013         	goto	u5621
  8092  002678                     u5621:
  8093  002678  EF48  F013         	goto	l6728
  8094  00267C                     u5620:
  8095  00267C  1E27               	comf	(___aldiv@divisor+3)^0,f,c
  8096  00267E  1E26               	comf	(___aldiv@divisor+2)^0,f,c
  8097  002680  1E25               	comf	(___aldiv@divisor+1)^0,f,c
  8098  002682  6C24               	negf	___aldiv@divisor^0,c
  8099  002684  0E00               	movlw	0
  8100  002686  2225               	addwfc	(___aldiv@divisor+1)^0,f,c
  8101  002688  2226               	addwfc	(___aldiv@divisor+2)^0,f,c
  8102  00268A  2227               	addwfc	(___aldiv@divisor+3)^0,f,c
  8103  00268C  0E01               	movlw	1
  8104  00268E  6E29               	movwf	___aldiv@sign^0,c
  8105  002690                     l6728:
  8106  002690  BE23               	btfsc	(___aldiv@dividend+3)^0,7,c
  8107  002692  EF4F  F013         	goto	u5630
  8108  002696  EF4D  F013         	goto	u5631
  8109  00269A                     u5631:
  8110  00269A  EF59  F013         	goto	l6734
  8111  00269E                     u5630:
  8112  00269E  1E23               	comf	(___aldiv@dividend+3)^0,f,c
  8113  0026A0  1E22               	comf	(___aldiv@dividend+2)^0,f,c
  8114  0026A2  1E21               	comf	(___aldiv@dividend+1)^0,f,c
  8115  0026A4  6C20               	negf	___aldiv@dividend^0,c
  8116  0026A6  0E00               	movlw	0
  8117  0026A8  2221               	addwfc	(___aldiv@dividend+1)^0,f,c
  8118  0026AA  2222               	addwfc	(___aldiv@dividend+2)^0,f,c
  8119  0026AC  2223               	addwfc	(___aldiv@dividend+3)^0,f,c
  8120  0026AE  0E01               	movlw	1
  8121  0026B0  1A29               	xorwf	___aldiv@sign^0,f,c
  8122  0026B2                     l6734:
  8123  0026B2  0E00               	movlw	0
  8124  0026B4  6E2A               	movwf	___aldiv@quotient^0,c
  8125  0026B6  0E00               	movlw	0
  8126  0026B8  6E2B               	movwf	(___aldiv@quotient+1)^0,c
  8127  0026BA  0E00               	movlw	0
  8128  0026BC  6E2C               	movwf	(___aldiv@quotient+2)^0,c
  8129  0026BE  0E00               	movlw	0
  8130  0026C0  6E2D               	movwf	(___aldiv@quotient+3)^0,c
  8131  0026C2  5024               	movf	___aldiv@divisor^0,w,c
  8132  0026C4  1025               	iorwf	(___aldiv@divisor+1)^0,w,c
  8133  0026C6  1026               	iorwf	(___aldiv@divisor+2)^0,w,c
  8134  0026C8  1027               	iorwf	(___aldiv@divisor+3)^0,w,c
  8135  0026CA  B4D8               	btfsc	status,2,c
  8136  0026CC  EF6A  F013         	goto	u5641
  8137  0026D0  EF6C  F013         	goto	u5640
  8138  0026D4                     u5641:
  8139  0026D4  EFA2  F013         	goto	l6756
  8140  0026D8                     u5640:
  8141  0026D8  0E01               	movlw	1
  8142  0026DA  6E28               	movwf	___aldiv@counter^0,c
  8143  0026DC  EF76  F013         	goto	l6742
  8144  0026E0                     l6740:
  8145  0026E0  90D8               	bcf	status,0,c
  8146  0026E2  3624               	rlcf	___aldiv@divisor^0,f,c
  8147  0026E4  3625               	rlcf	(___aldiv@divisor+1)^0,f,c
  8148  0026E6  3626               	rlcf	(___aldiv@divisor+2)^0,f,c
  8149  0026E8  3627               	rlcf	(___aldiv@divisor+3)^0,f,c
  8150  0026EA  2A28               	incf	___aldiv@counter^0,f,c
  8151  0026EC                     l6742:
  8152  0026EC  AE27               	btfss	(___aldiv@divisor+3)^0,7,c
  8153  0026EE  EF7B  F013         	goto	u5651
  8154  0026F2  EF7D  F013         	goto	u5650
  8155  0026F6                     u5651:
  8156  0026F6  EF70  F013         	goto	l6740
  8157  0026FA                     u5650:
  8158  0026FA                     l6744:
  8159  0026FA  90D8               	bcf	status,0,c
  8160  0026FC  362A               	rlcf	___aldiv@quotient^0,f,c
  8161  0026FE  362B               	rlcf	(___aldiv@quotient+1)^0,f,c
  8162  002700  362C               	rlcf	(___aldiv@quotient+2)^0,f,c
  8163  002702  362D               	rlcf	(___aldiv@quotient+3)^0,f,c
  8164  002704  5024               	movf	___aldiv@divisor^0,w,c
  8165  002706  5C20               	subwf	___aldiv@dividend^0,w,c
  8166  002708  5025               	movf	(___aldiv@divisor+1)^0,w,c
  8167  00270A  5821               	subwfb	(___aldiv@dividend+1)^0,w,c
  8168  00270C  5026               	movf	(___aldiv@divisor+2)^0,w,c
  8169  00270E  5822               	subwfb	(___aldiv@dividend+2)^0,w,c
  8170  002710  5027               	movf	(___aldiv@divisor+3)^0,w,c
  8171  002712  5823               	subwfb	(___aldiv@dividend+3)^0,w,c
  8172  002714  A0D8               	btfss	status,0,c
  8173  002716  EF8F  F013         	goto	u5661
  8174  00271A  EF91  F013         	goto	u5660
  8175  00271E                     u5661:
  8176  00271E  EF9A  F013         	goto	l6752
  8177  002722                     u5660:
  8178  002722  5024               	movf	___aldiv@divisor^0,w,c
  8179  002724  5E20               	subwf	___aldiv@dividend^0,f,c
  8180  002726  5025               	movf	(___aldiv@divisor+1)^0,w,c
  8181  002728  5A21               	subwfb	(___aldiv@dividend+1)^0,f,c
  8182  00272A  5026               	movf	(___aldiv@divisor+2)^0,w,c
  8183  00272C  5A22               	subwfb	(___aldiv@dividend+2)^0,f,c
  8184  00272E  5027               	movf	(___aldiv@divisor+3)^0,w,c
  8185  002730  5A23               	subwfb	(___aldiv@dividend+3)^0,f,c
  8186  002732  802A               	bsf	___aldiv@quotient^0,0,c
  8187  002734                     l6752:
  8188  002734  90D8               	bcf	status,0,c
  8189  002736  3227               	rrcf	(___aldiv@divisor+3)^0,f,c
  8190  002738  3226               	rrcf	(___aldiv@divisor+2)^0,f,c
  8191  00273A  3225               	rrcf	(___aldiv@divisor+1)^0,f,c
  8192  00273C  3224               	rrcf	___aldiv@divisor^0,f,c
  8193  00273E  2E28               	decfsz	___aldiv@counter^0,f,c
  8194  002740  EF7D  F013         	goto	l6744
  8195  002744                     l6756:
  8196  002744  5029               	movf	___aldiv@sign^0,w,c
  8197  002746  B4D8               	btfsc	status,2,c
  8198  002748  EFA8  F013         	goto	u5671
  8199  00274C  EFAA  F013         	goto	u5670
  8200  002750                     u5671:
  8201  002750  EFB2  F013         	goto	l6760
  8202  002754                     u5670:
  8203  002754  1E2D               	comf	(___aldiv@quotient+3)^0,f,c
  8204  002756  1E2C               	comf	(___aldiv@quotient+2)^0,f,c
  8205  002758  1E2B               	comf	(___aldiv@quotient+1)^0,f,c
  8206  00275A  6C2A               	negf	___aldiv@quotient^0,c
  8207  00275C  0E00               	movlw	0
  8208  00275E  222B               	addwfc	(___aldiv@quotient+1)^0,f,c
  8209  002760  222C               	addwfc	(___aldiv@quotient+2)^0,f,c
  8210  002762  222D               	addwfc	(___aldiv@quotient+3)^0,f,c
  8211  002764                     l6760:
  8212  002764  C02A  F020         	movff	___aldiv@quotient,?___aldiv
  8213  002768  C02B  F021         	movff	___aldiv@quotient+1,?___aldiv+1
  8214  00276C  C02C  F022         	movff	___aldiv@quotient+2,?___aldiv+2
  8215  002770  C02D  F023         	movff	___aldiv@quotient+3,?___aldiv+3
  8216  002774  0012               	return		;funcret
  8217  002776                     __end_of___aldiv:
  8218                           	opt callstack 0
  8219                           
  8220 ;; *************** function _TMR2_LoadPeriodRegister *****************
  8221 ;; Defined at:
  8222 ;;		line 25 in file "mcc_generated_files/tmr2.c"
  8223 ;; Parameters:    Size  Location     Type
  8224 ;;  periodVal       1    wreg     unsigned char 
  8225 ;; Auto vars:     Size  Location     Type
  8226 ;;  periodVal       1   19[COMRAM] unsigned char 
  8227 ;; Return value:  Size  Location     Type
  8228 ;;                  1    wreg      void 
  8229 ;; Registers used:
  8230 ;;		wreg
  8231 ;; Tracked objects:
  8232 ;;		On entry : 0/0
  8233 ;;		On exit  : 0/0
  8234 ;;		Unchanged: 0/0
  8235 ;; Data sizes:     COMRAM   BANK0   BANK1   BANK2   BANK3   BANK4   BANK5   BANK6   BANK7   BANK8   BANK9  BANK10  BANK1
      +1  BANK12  BANK13  BANK14  BANK15
  8236 ;;      Params:         0       0       0       0       0       0       0       0       0       0       0       0       
      +0       0       0       0       0
  8237 ;;      Locals:         1       0       0       0       0       0       0       0       0       0       0       0       
      +0       0       0       0       0
  8238 ;;      Temps:          0       0       0       0       0       0       0       0       0       0       0       0       
      +0       0       0       0       0
  8239 ;;      Totals:         1       0       0       0       0       0       0       0       0       0       0       0       
      +0       0       0       0       0
  8240 ;;Total ram usage:        1 bytes
  8241 ;; Hardware stack levels used:    1
  8242 ;; Hardware stack levels required when called:    8
  8243 ;; This function calls:
  8244 ;;		Nothing
  8245 ;; This function is called by:
  8246 ;;		_EPWM2_period
  8247 ;; This function uses a non-reentrant model
  8248 ;;
  8249                           
  8250                           	psect	text64
  8251  003DBA                     __ptext64:
  8252                           	opt callstack 0
  8253  003DBA                     _TMR2_LoadPeriodRegister:
  8254                           	opt callstack 19
  8255                           
  8256                           ;incstack = 0
  8257                           ;TMR2_LoadPeriodRegister@periodVal stored from wreg
  8258  003DBA  6E14               	movwf	TMR2_LoadPeriodRegister@periodVal^0,c
  8259  003DBC                     
  8260                           ;mcc_generated_files/tmr2.c: 26:     PR2 = periodVal;
  8261  003DBC  C014  FFBB         	movff	TMR2_LoadPeriodRegister@periodVal,4027	;volatile
  8262  003DC0  0012               	return		;funcret
  8263  003DC2                     __end_of_TMR2_LoadPeriodRegister:
  8264                           	opt callstack 0
  8265                           
  8266 ;; *************** function _EPWM2_outputs_off *****************
  8267 ;; Defined at:
  8268 ;;		line 101 in file "mcc_generated_files/epwm2.c"
  8269 ;; Parameters:    Size  Location     Type
  8270 ;;		None
  8271 ;; Auto vars:     Size  Location     Type
  8272 ;;		None
  8273 ;; Return value:  Size  Location     Type
  8274 ;;                  1    wreg      void 
  8275 ;; Registers used:
  8276 ;;		None
  8277 ;; Tracked objects:
  8278 ;;		On entry : 0/0
  8279 ;;		On exit  : 0/0
  8280 ;;		Unchanged: 0/0
  8281 ;; Data sizes:     COMRAM   BANK0   BANK1   BANK2   BANK3   BANK4   BANK5   BANK6   BANK7   BANK8   BANK9  BANK10  BANK1
      +1  BANK12  BANK13  BANK14  BANK15
  8282 ;;      Params:         0       0       0       0       0       0       0       0       0       0       0       0       
      +0       0       0       0       0
  8283 ;;      Locals:         0       0       0       0       0       0       0       0       0       0       0       0       
      +0       0       0       0       0
  8284 ;;      Temps:          0       0       0       0       0       0       0       0       0       0       0       0       
      +0       0       0       0       0
  8285 ;;      Totals:         0       0       0       0       0       0       0       0       0       0       0       0       
      +0       0       0       0       0
  8286 ;;Total ram usage:        0 bytes
  8287 ;; Hardware stack levels used:    1
  8288 ;; Hardware stack levels required when called:    8
  8289 ;; This function calls:
  8290 ;;		Nothing
  8291 ;; This function is called by:
  8292 ;;		_EPWM2_Initialize
  8293 ;;		_EPWM2_engine_off
  8294 ;; This function uses a non-reentrant model
  8295 ;;
  8296                           
  8297                           	psect	text65
  8298  003E04                     __ptext65:
  8299                           	opt callstack 0
  8300  003E04                     _EPWM2_outputs_off:
  8301                           	opt callstack 18
  8302  003E04                     
  8303                           ;mcc_generated_files/epwm2.c: 103:     ECCP2ASbits.CCP2ASE = 1;
  8304  003E04  8E64               	bsf	100,7,c	;volatile
  8305  003E06  0012               	return		;funcret
  8306  003E08                     __end_of_EPWM2_outputs_off:
  8307                           	opt callstack 0
  8308                           
  8309 ;; *************** function _EPWM2_engine_config *****************
  8310 ;; Defined at:
  8311 ;;		line 86 in file "mcc_generated_files/epwm2.c"
  8312 ;; Parameters:    Size  Location     Type
  8313 ;;  turn            1    wreg     unsigned char 
  8314 ;;  duty            1   19[BANK0 ] unsigned char 
  8315 ;; Auto vars:     Size  Location     Type
  8316 ;;  turn            1   26[BANK0 ] unsigned char 
  8317 ;;  interval        4   22[BANK0 ] float 
  8318 ;;  pulse_width_    2   27[BANK0 ] unsigned short 
  8319 ;; Return value:  Size  Location     Type
  8320 ;;                  1    wreg      void 
  8321 ;; Registers used:
  8322 ;;		wreg, status,2, status,0, prodl, prodh, cstack
  8323 ;; Tracked objects:
  8324 ;;		On entry : 0/0
  8325 ;;		On exit  : 0/0
  8326 ;;		Unchanged: 0/0
  8327 ;; Data sizes:     COMRAM   BANK0   BANK1   BANK2   BANK3   BANK4   BANK5   BANK6   BANK7   BANK8   BANK9  BANK10  BANK1
      +1  BANK12  BANK13  BANK14  BANK15
  8328 ;;      Params:         0       1       0       0       0       0       0       0       0       0       0       0       
      +0       0       0       0       0
  8329 ;;      Locals:         0       7       0       0       0       0       0       0       0       0       0       0       
      +0       0       0       0       0
  8330 ;;      Temps:          0       2       0       0       0       0       0       0       0       0       0       0       
      +0       0       0       0       0
  8331 ;;      Totals:         0      10       0       0       0       0       0       0       0       0       0       0       
      +0       0       0       0       0
  8332 ;;Total ram usage:       10 bytes
  8333 ;; Hardware stack levels used:    1
  8334 ;; Hardware stack levels required when called:   10
  8335 ;; This function calls:
  8336 ;;		_EPWM2_duty_const
  8337 ;;		___flmul
  8338 ;;		___fltol
  8339 ;;		___xxtofl
  8340 ;; This function is called by:
  8341 ;;		_EPWM2_Initialize
  8342 ;;		_EPWM2_engine_SoftStop
  8343 ;;		_EPWM2_engine_SoftStart
  8344 ;; This function uses a non-reentrant model
  8345 ;;
  8346                           
  8347                           	psect	text66
  8348  0022BC                     __ptext66:
  8349                           	opt callstack 0
  8350  0022BC                     _EPWM2_engine_config:
  8351                           	opt callstack 17
  8352                           
  8353                           ;incstack = 0
  8354                           ;EPWM2_engine_config@turn stored from wreg
  8355  0022BC  0100               	movlb	0	; () banked
  8356  0022BE  6FDE               	movwf	EPWM2_engine_config@turn& (0+255),b
  8357  0022C0                     
  8358                           ;mcc_generated_files/epwm2.c: 87:     float interval = EPWM2_duty_const(0);
  8359  0022C0  0E00               	movlw	0
  8360  0022C2  EC65  F01A         	call	_EPWM2_duty_const
  8361  0022C6  C034  F0DA         	movff	?_EPWM2_duty_const,EPWM2_engine_config@interval
  8362  0022CA  C035  F0DB         	movff	?_EPWM2_duty_const+1,EPWM2_engine_config@interval+1
  8363  0022CE  C036  F0DC         	movff	?_EPWM2_duty_const+2,EPWM2_engine_config@interval+2
  8364  0022D2  C037  F0DD         	movff	?_EPWM2_duty_const+3,EPWM2_engine_config@interval+3
  8365  0022D6                     
  8366                           ;mcc_generated_files/epwm2.c: 88:     uint16_t pulse_width_bit;;mcc_generated_files/epwm
      +                          2.c: 89:     if (turn == 0x01 || turn == 0x00) {
  8367  0022D6  0100               	movlb	0	; () banked
  8368  0022D8  05DE               	decf	EPWM2_engine_config@turn& (0+255),w,b
  8369  0022DA  B4D8               	btfsc	status,2,c
  8370  0022DC  EF72  F011         	goto	u6911
  8371  0022E0  EF74  F011         	goto	u6910
  8372  0022E4                     u6911:
  8373  0022E4  EF7C  F011         	goto	l7582
  8374  0022E8                     u6910:
  8375  0022E8                     
  8376                           ; BSR set to: 0
  8377  0022E8  51DE               	movf	EPWM2_engine_config@turn& (0+255),w,b
  8378  0022EA  A4D8               	btfss	status,2,c
  8379  0022EC  EF7A  F011         	goto	u6921
  8380  0022F0  EF7C  F011         	goto	u6920
  8381  0022F4                     u6921:
  8382  0022F4  EFBB  F011         	goto	l7588
  8383  0022F8                     u6920:
  8384  0022F8                     l7582:
  8385                           
  8386                           ; BSR set to: 0
  8387                           ;mcc_generated_files/epwm2.c: 90:         pulse_width_bit = duty * interval;
  8388  0022F8  C0DA  F02C         	movff	EPWM2_engine_config@interval,___flmul@a
  8389  0022FC  C0DB  F02D         	movff	EPWM2_engine_config@interval+1,___flmul@a+1
  8390  002300  C0DC  F02E         	movff	EPWM2_engine_config@interval+2,___flmul@a+2
  8391  002304  C0DD  F02F         	movff	EPWM2_engine_config@interval+3,___flmul@a+3
  8392  002308  51D7               	movf	EPWM2_engine_config@duty& (0+255),w,b
  8393  00230A  6E1A               	movwf	___xxtofl@val^0,c
  8394  00230C  6A1B               	clrf	(___xxtofl@val+1)^0,c
  8395  00230E  6A1C               	clrf	(___xxtofl@val+2)^0,c
  8396  002310  6A1D               	clrf	(___xxtofl@val+3)^0,c
  8397  002312  0E01               	movlw	1
  8398  002314  EC54  F00E         	call	___xxtofl
  8399  002318  C01A  F028         	movff	?___xxtofl,___flmul@b
  8400  00231C  C01B  F029         	movff	?___xxtofl+1,___flmul@b+1
  8401  002320  C01C  F02A         	movff	?___xxtofl+2,___flmul@b+2
  8402  002324  C01D  F02B         	movff	?___xxtofl+3,___flmul@b+3
  8403  002328  EC1E  F008         	call	___flmul	;wreg free
  8404  00232C  C028  F034         	movff	?___flmul,___fltol@f1
  8405  002330  C029  F035         	movff	?___flmul+1,___fltol@f1+1
  8406  002334  C02A  F036         	movff	?___flmul+2,___fltol@f1+2
  8407  002338  C02B  F037         	movff	?___flmul+3,___fltol@f1+3
  8408  00233C  ECBB  F013         	call	___fltol	;wreg free
  8409  002340  C034  F0DF         	movff	?___fltol,EPWM2_engine_config@pulse_width_bit
  8410  002344  C035  F0E0         	movff	?___fltol+1,EPWM2_engine_config@pulse_width_bit+1
  8411  002348                     
  8412                           ;mcc_generated_files/epwm2.c: 91:         CCPR2L = pulse_width_bit >> 2;
  8413  002348  C0DF  F0D8         	movff	EPWM2_engine_config@pulse_width_bit,??_EPWM2_engine_config
  8414  00234C  C0E0  F0D9         	movff	EPWM2_engine_config@pulse_width_bit+1,??_EPWM2_engine_config+1
  8415  002350  0100               	movlb	0	; () banked
  8416  002352  90D8               	bcf	status,0,c
  8417  002354  33D9               	rrcf	(??_EPWM2_engine_config+1)& (0+255),f,b
  8418  002356  33D8               	rrcf	??_EPWM2_engine_config& (0+255),f,b
  8419  002358  90D8               	bcf	status,0,c
  8420  00235A  33D9               	rrcf	(??_EPWM2_engine_config+1)& (0+255),f,b
  8421  00235C  33D8               	rrcf	??_EPWM2_engine_config& (0+255),f,b
  8422  00235E  51D8               	movf	??_EPWM2_engine_config& (0+255),w,b
  8423  002360  6E67               	movwf	103,c	;volatile
  8424  002362                     
  8425                           ; BSR set to: 0
  8426                           ;mcc_generated_files/epwm2.c: 92:         CCP2CONbits.DC2B = pulse_width_bit;
  8427  002362  C0DF  F0D8         	movff	EPWM2_engine_config@pulse_width_bit,??_EPWM2_engine_config
  8428  002366  3BD8               	swapf	??_EPWM2_engine_config& (0+255),f,b
  8429  002368  5066               	movf	102,w,c	;volatile
  8430  00236A  19D8               	xorwf	??_EPWM2_engine_config& (0+255),w,b
  8431  00236C  0BCF               	andlw	-49
  8432  00236E  19D8               	xorwf	??_EPWM2_engine_config& (0+255),w,b
  8433  002370  6E66               	movwf	102,c	;volatile
  8434                           
  8435                           ;mcc_generated_files/epwm2.c: 93:     } else if (turn == 0x02) {
  8436  002372  EF0D  F012         	goto	l292
  8437  002376                     l7588:
  8438                           
  8439                           ; BSR set to: 0
  8440  002376  0E02               	movlw	2
  8441  002378  19DE               	xorwf	EPWM2_engine_config@turn& (0+255),w,b
  8442  00237A  A4D8               	btfss	status,2,c
  8443  00237C  EFC2  F011         	goto	u6931
  8444  002380  EFC4  F011         	goto	u6930
  8445  002384                     u6931:
  8446  002384  EF0D  F012         	goto	l292
  8447  002388                     u6930:
  8448  002388                     
  8449                           ; BSR set to: 0
  8450                           ;mcc_generated_files/epwm2.c: 94:         pulse_width_bit = (100 - duty) * interval;
  8451  002388  C0DA  F02C         	movff	EPWM2_engine_config@interval,___flmul@a
  8452  00238C  C0DB  F02D         	movff	EPWM2_engine_config@interval+1,___flmul@a+1
  8453  002390  C0DC  F02E         	movff	EPWM2_engine_config@interval+2,___flmul@a+2
  8454  002394  C0DD  F02F         	movff	EPWM2_engine_config@interval+3,___flmul@a+3
  8455  002398  0E64               	movlw	100
  8456  00239A  6FD8               	movwf	??_EPWM2_engine_config& (0+255),b
  8457  00239C  0E00               	movlw	0
  8458  00239E  6FD9               	movwf	(??_EPWM2_engine_config+1)& (0+255),b
  8459  0023A0  51D7               	movf	EPWM2_engine_config@duty& (0+255),w,b
  8460  0023A2  5FD8               	subwf	??_EPWM2_engine_config& (0+255),f,b
  8461  0023A4  0E00               	movlw	0
  8462  0023A6  5BD9               	subwfb	(??_EPWM2_engine_config+1)& (0+255),f,b
  8463  0023A8  C0D8  F01A         	movff	??_EPWM2_engine_config,___xxtofl@val
  8464  0023AC  C0D9  F01B         	movff	??_EPWM2_engine_config+1,___xxtofl@val+1
  8465  0023B0  0E00               	movlw	0
  8466  0023B2  BE1B               	btfsc	(___xxtofl@val+1)^0,7,c
  8467  0023B4  0EFF               	movlw	-1
  8468  0023B6  6E1C               	movwf	(___xxtofl@val+2)^0,c
  8469  0023B8  6E1D               	movwf	(___xxtofl@val+3)^0,c
  8470  0023BA  0E01               	movlw	1
  8471  0023BC  EC54  F00E         	call	___xxtofl
  8472  0023C0  C01A  F028         	movff	?___xxtofl,___flmul@b
  8473  0023C4  C01B  F029         	movff	?___xxtofl+1,___flmul@b+1
  8474  0023C8  C01C  F02A         	movff	?___xxtofl+2,___flmul@b+2
  8475  0023CC  C01D  F02B         	movff	?___xxtofl+3,___flmul@b+3
  8476  0023D0  EC1E  F008         	call	___flmul	;wreg free
  8477  0023D4  C028  F034         	movff	?___flmul,___fltol@f1
  8478  0023D8  C029  F035         	movff	?___flmul+1,___fltol@f1+1
  8479  0023DC  C02A  F036         	movff	?___flmul+2,___fltol@f1+2
  8480  0023E0  C02B  F037         	movff	?___flmul+3,___fltol@f1+3
  8481  0023E4  ECBB  F013         	call	___fltol	;wreg free
  8482  0023E8  C034  F0DF         	movff	?___fltol,EPWM2_engine_config@pulse_width_bit
  8483  0023EC  C035  F0E0         	movff	?___fltol+1,EPWM2_engine_config@pulse_width_bit+1
  8484  0023F0                     
  8485                           ;mcc_generated_files/epwm2.c: 95:         CCPR2L = pulse_width_bit >> 2;
  8486  0023F0  C0DF  F0D8         	movff	EPWM2_engine_config@pulse_width_bit,??_EPWM2_engine_config
  8487  0023F4  C0E0  F0D9         	movff	EPWM2_engine_config@pulse_width_bit+1,??_EPWM2_engine_config+1
  8488  0023F8  0100               	movlb	0	; () banked
  8489  0023FA  90D8               	bcf	status,0,c
  8490  0023FC  33D9               	rrcf	(??_EPWM2_engine_config+1)& (0+255),f,b
  8491  0023FE  33D8               	rrcf	??_EPWM2_engine_config& (0+255),f,b
  8492  002400  90D8               	bcf	status,0,c
  8493  002402  33D9               	rrcf	(??_EPWM2_engine_config+1)& (0+255),f,b
  8494  002404  33D8               	rrcf	??_EPWM2_engine_config& (0+255),f,b
  8495  002406  51D8               	movf	??_EPWM2_engine_config& (0+255),w,b
  8496  002408  6E67               	movwf	103,c	;volatile
  8497  00240A                     
  8498                           ; BSR set to: 0
  8499                           ;mcc_generated_files/epwm2.c: 96:         CCP2CONbits.DC2B = pulse_width_bit;
  8500  00240A  C0DF  F0D8         	movff	EPWM2_engine_config@pulse_width_bit,??_EPWM2_engine_config
  8501  00240E  3BD8               	swapf	??_EPWM2_engine_config& (0+255),f,b
  8502  002410  5066               	movf	102,w,c	;volatile
  8503  002412  19D8               	xorwf	??_EPWM2_engine_config& (0+255),w,b
  8504  002414  0BCF               	andlw	-49
  8505  002416  19D8               	xorwf	??_EPWM2_engine_config& (0+255),w,b
  8506  002418  6E66               	movwf	102,c	;volatile
  8507  00241A                     l292:
  8508                           
  8509                           ; BSR set to: 0
  8510  00241A  0012               	return		;funcret
  8511  00241C                     __end_of_EPWM2_engine_config:
  8512                           	opt callstack 0
  8513                           
  8514 ;; *************** function ___fltol *****************
  8515 ;; Defined at:
  8516 ;;		line 43 in file "C:\Program Files (x86)\Microchip\xc8\v2.10\pic\sources\c99\common\fltol.c"
  8517 ;; Parameters:    Size  Location     Type
  8518 ;;  f1              4   51[COMRAM] void 
  8519 ;; Auto vars:     Size  Location     Type
  8520 ;;  exp1            1   18[BANK0 ] unsigned char 
  8521 ;;  sign1           1   17[BANK0 ] unsigned char 
  8522 ;; Return value:  Size  Location     Type
  8523 ;;                  4   51[COMRAM] long 
  8524 ;; Registers used:
  8525 ;;		wreg, status,2, status,0
  8526 ;; Tracked objects:
  8527 ;;		On entry : 0/0
  8528 ;;		On exit  : 0/0
  8529 ;;		Unchanged: 0/0
  8530 ;; Data sizes:     COMRAM   BANK0   BANK1   BANK2   BANK3   BANK4   BANK5   BANK6   BANK7   BANK8   BANK9  BANK10  BANK1
      +1  BANK12  BANK13  BANK14  BANK15
  8531 ;;      Params:         4       0       0       0       0       0       0       0       0       0       0       0       
      +0       0       0       0       0
  8532 ;;      Locals:         0       2       0       0       0       0       0       0       0       0       0       0       
      +0       0       0       0       0
  8533 ;;      Temps:          0       4       0       0       0       0       0       0       0       0       0       0       
      +0       0       0       0       0
  8534 ;;      Totals:         4       6       0       0       0       0       0       0       0       0       0       0       
      +0       0       0       0       0
  8535 ;;Total ram usage:       10 bytes
  8536 ;; Hardware stack levels used:    1
  8537 ;; Hardware stack levels required when called:    8
  8538 ;; This function calls:
  8539 ;;		Nothing
  8540 ;; This function is called by:
  8541 ;;		_EPWM3_duty_const
  8542 ;;		_EPWM3_engine_config
  8543 ;;		_EPWM2_engine_config
  8544 ;;		_BH1750_Data_Read
  8545 ;; This function uses a non-reentrant model
  8546 ;;
  8547                           
  8548                           	psect	text67
  8549  002776                     __ptext67:
  8550                           	opt callstack 0
  8551  002776                     ___fltol:
  8552                           	opt callstack 18
  8553  002776  3436               	rlcf	(___fltol@f1+2)^0,w,c
  8554  002778  3437               	rlcf	(___fltol@f1+3)^0,w,c
  8555  00277A  0100               	movlb	0	; () banked
  8556  00277C  6FD6               	movwf	___fltol@exp1& (0+255),b
  8557  00277E  51D6               	movf	___fltol@exp1& (0+255),w,b
  8558  002780  A4D8               	btfss	status,2,c
  8559  002782  EFC5  F013         	goto	u6831
  8560  002786  EFC7  F013         	goto	u6830
  8561  00278A                     u6831:
  8562  00278A  EFD1  F013         	goto	l7528
  8563  00278E                     u6830:
  8564  00278E                     l7524:
  8565                           
  8566                           ; BSR set to: 0
  8567  00278E  0E00               	movlw	0
  8568  002790  6E34               	movwf	?___fltol^0,c
  8569  002792  0E00               	movlw	0
  8570  002794  6E35               	movwf	(?___fltol+1)^0,c
  8571  002796  0E00               	movlw	0
  8572  002798  6E36               	movwf	(?___fltol+2)^0,c
  8573  00279A  0E00               	movlw	0
  8574  00279C  6E37               	movwf	(?___fltol+3)^0,c
  8575  00279E  EF3E  F014         	goto	l1558
  8576  0027A2                     l7528:
  8577                           
  8578                           ; BSR set to: 0
  8579  0027A2  C034  F0D1         	movff	___fltol@f1,??___fltol
  8580  0027A6  C035  F0D2         	movff	___fltol@f1+1,??___fltol+1
  8581  0027AA  C036  F0D3         	movff	___fltol@f1+2,??___fltol+2
  8582  0027AE  C037  F0D4         	movff	___fltol@f1+3,??___fltol+3
  8583  0027B2  0E20               	movlw	32
  8584  0027B4  EFE1  F013         	goto	u6840
  8585  0027B8                     u6845:
  8586  0027B8  90D8               	bcf	status,0,c
  8587  0027BA  33D4               	rrcf	(??___fltol+3)& (0+255),f,b
  8588  0027BC  33D3               	rrcf	(??___fltol+2)& (0+255),f,b
  8589  0027BE  33D2               	rrcf	(??___fltol+1)& (0+255),f,b
  8590  0027C0  33D1               	rrcf	??___fltol& (0+255),f,b
  8591  0027C2                     u6840:
  8592  0027C2  2EE8               	decfsz	wreg,f,c
  8593  0027C4  EFDC  F013         	goto	u6845
  8594  0027C8  51D1               	movf	??___fltol& (0+255),w,b
  8595  0027CA  6FD5               	movwf	___fltol@sign1& (0+255),b
  8596  0027CC                     
  8597                           ; BSR set to: 0
  8598  0027CC  8E36               	bsf	(___fltol@f1+2)^0,7,c
  8599  0027CE                     
  8600                           ; BSR set to: 0
  8601  0027CE  0EFF               	movlw	255
  8602  0027D0  1634               	andwf	___fltol@f1^0,f,c
  8603  0027D2  0EFF               	movlw	255
  8604  0027D4  1635               	andwf	(___fltol@f1+1)^0,f,c
  8605  0027D6  0EFF               	movlw	255
  8606  0027D8  1636               	andwf	(___fltol@f1+2)^0,f,c
  8607  0027DA  0E00               	movlw	0
  8608  0027DC  1637               	andwf	(___fltol@f1+3)^0,f,c
  8609  0027DE                     
  8610                           ; BSR set to: 0
  8611  0027DE  0E96               	movlw	150
  8612  0027E0  5FD6               	subwf	___fltol@exp1& (0+255),f,b
  8613  0027E2                     
  8614                           ; BSR set to: 0
  8615  0027E2  BFD6               	btfsc	___fltol@exp1& (0+255),7,b
  8616  0027E4  EFF8  F013         	goto	u6850
  8617  0027E8  EFF6  F013         	goto	u6851
  8618  0027EC                     u6851:
  8619  0027EC  EF0E  F014         	goto	l7548
  8620  0027F0                     u6850:
  8621  0027F0                     
  8622                           ; BSR set to: 0
  8623  0027F0  51D6               	movf	___fltol@exp1& (0+255),w,b
  8624  0027F2  0A80               	xorlw	128
  8625  0027F4  0F97               	addlw	151
  8626  0027F6  B0D8               	btfsc	status,0,c
  8627  0027F8  EF00  F014         	goto	u6861
  8628  0027FC  EF02  F014         	goto	u6860
  8629  002800                     u6861:
  8630  002800  EF04  F014         	goto	l7544
  8631  002804                     u6860:
  8632  002804  EFC7  F013         	goto	l7524
  8633  002808                     l7544:
  8634                           
  8635                           ; BSR set to: 0
  8636  002808  90D8               	bcf	status,0,c
  8637  00280A  3237               	rrcf	(___fltol@f1+3)^0,f,c
  8638  00280C  3236               	rrcf	(___fltol@f1+2)^0,f,c
  8639  00280E  3235               	rrcf	(___fltol@f1+1)^0,f,c
  8640  002810  3234               	rrcf	___fltol@f1^0,f,c
  8641  002812                     
  8642                           ; BSR set to: 0
  8643  002812  3FD6               	incfsz	___fltol@exp1& (0+255),f,b
  8644  002814  EF04  F014         	goto	l7544
  8645  002818  EF26  F014         	goto	l7558
  8646  00281C                     l7548:
  8647                           
  8648                           ; BSR set to: 0
  8649  00281C  0E1F               	movlw	31
  8650  00281E  65D6               	cpfsgt	___fltol@exp1& (0+255),b
  8651  002820  EF14  F014         	goto	u6871
  8652  002824  EF16  F014         	goto	u6870
  8653  002828                     u6871:
  8654  002828  EF1E  F014         	goto	l7556
  8655  00282C                     u6870:
  8656  00282C  EFC7  F013         	goto	l7524
  8657  002830                     l7554:
  8658                           
  8659                           ; BSR set to: 0
  8660  002830  90D8               	bcf	status,0,c
  8661  002832  3634               	rlcf	___fltol@f1^0,f,c
  8662  002834  3635               	rlcf	(___fltol@f1+1)^0,f,c
  8663  002836  3636               	rlcf	(___fltol@f1+2)^0,f,c
  8664  002838  3637               	rlcf	(___fltol@f1+3)^0,f,c
  8665  00283A  07D6               	decf	___fltol@exp1& (0+255),f,b
  8666  00283C                     l7556:
  8667                           
  8668                           ; BSR set to: 0
  8669  00283C  51D6               	movf	___fltol@exp1& (0+255),w,b
  8670  00283E  A4D8               	btfss	status,2,c
  8671  002840  EF24  F014         	goto	u6881
  8672  002844  EF26  F014         	goto	u6880
  8673  002848                     u6881:
  8674  002848  EF18  F014         	goto	l7554
  8675  00284C                     u6880:
  8676  00284C                     l7558:
  8677                           
  8678                           ; BSR set to: 0
  8679  00284C  51D5               	movf	___fltol@sign1& (0+255),w,b
  8680  00284E  B4D8               	btfsc	status,2,c
  8681  002850  EF2C  F014         	goto	u6891
  8682  002854  EF2E  F014         	goto	u6890
  8683  002858                     u6891:
  8684  002858  EF36  F014         	goto	l7562
  8685  00285C                     u6890:
  8686  00285C                     
  8687                           ; BSR set to: 0
  8688  00285C  1E37               	comf	(___fltol@f1+3)^0,f,c
  8689  00285E  1E36               	comf	(___fltol@f1+2)^0,f,c
  8690  002860  1E35               	comf	(___fltol@f1+1)^0,f,c
  8691  002862  6C34               	negf	___fltol@f1^0,c
  8692  002864  0E00               	movlw	0
  8693  002866  2235               	addwfc	(___fltol@f1+1)^0,f,c
  8694  002868  2236               	addwfc	(___fltol@f1+2)^0,f,c
  8695  00286A  2237               	addwfc	(___fltol@f1+3)^0,f,c
  8696  00286C                     l7562:
  8697                           
  8698                           ; BSR set to: 0
  8699  00286C  C034  F034         	movff	___fltol@f1,?___fltol
  8700  002870  C035  F035         	movff	___fltol@f1+1,?___fltol+1
  8701  002874  C036  F036         	movff	___fltol@f1+2,?___fltol+2
  8702  002878  C037  F037         	movff	___fltol@f1+3,?___fltol+3
  8703  00287C                     l1558:
  8704                           
  8705                           ; BSR set to: 0
  8706  00287C  0012               	return		;funcret
  8707  00287E                     __end_of___fltol:
  8708                           	opt callstack 0
  8709                           
  8710 ;; *************** function ___flmul *****************
  8711 ;; Defined at:
  8712 ;;		line 8 in file "C:\Program Files (x86)\Microchip\xc8\v2.10\pic\sources\c99\common\sprcmul.c"
  8713 ;; Parameters:    Size  Location     Type
  8714 ;;  b               4   39[COMRAM] long 
  8715 ;;  a               4   43[COMRAM] long 
  8716 ;; Auto vars:     Size  Location     Type
  8717 ;;  prod            4    7[BANK0 ] struct .
  8718 ;;  grs             4    2[BANK0 ] unsigned long 
  8719 ;;  temp            2   11[BANK0 ] struct .
  8720 ;;  bexp            1    6[BANK0 ] unsigned char 
  8721 ;;  aexp            1    1[BANK0 ] unsigned char 
  8722 ;;  sign            1    0[BANK0 ] unsigned char 
  8723 ;; Return value:  Size  Location     Type
  8724 ;;                  4   39[COMRAM] unsigned char 
  8725 ;; Registers used:
  8726 ;;		wreg, status,2, status,0, prodl, prodh
  8727 ;; Tracked objects:
  8728 ;;		On entry : 0/0
  8729 ;;		On exit  : 0/0
  8730 ;;		Unchanged: 0/0
  8731 ;; Data sizes:     COMRAM   BANK0   BANK1   BANK2   BANK3   BANK4   BANK5   BANK6   BANK7   BANK8   BANK9  BANK10  BANK1
      +1  BANK12  BANK13  BANK14  BANK15
  8732 ;;      Params:         8       0       0       0       0       0       0       0       0       0       0       0       
      +0       0       0       0       0
  8733 ;;      Locals:         0      13       0       0       0       0       0       0       0       0       0       0       
      +0       0       0       0       0
  8734 ;;      Temps:          4       0       0       0       0       0       0       0       0       0       0       0       
      +0       0       0       0       0
  8735 ;;      Totals:        12      13       0       0       0       0       0       0       0       0       0       0       
      +0       0       0       0       0
  8736 ;;Total ram usage:       25 bytes
  8737 ;; Hardware stack levels used:    1
  8738 ;; Hardware stack levels required when called:    8
  8739 ;; This function calls:
  8740 ;;		Nothing
  8741 ;; This function is called by:
  8742 ;;		_EPWM3_engine_config
  8743 ;;		_EPWM2_engine_config
  8744 ;; This function uses a non-reentrant model
  8745 ;;
  8746                           
  8747                           	psect	text68
  8748  00103C                     __ptext68:
  8749                           	opt callstack 0
  8750  00103C                     ___flmul:
  8751                           	opt callstack 18
  8752  00103C  502B               	movf	(___flmul@b+3)^0,w,c
  8753  00103E  0B80               	andlw	128
  8754  001040  0100               	movlb	0	; () banked
  8755  001042  6FC4               	movwf	___flmul@sign& (0+255),b
  8756  001044  502B               	movf	(___flmul@b+3)^0,w,c
  8757  001046  242B               	addwf	(___flmul@b+3)^0,w,c
  8758  001048  6FCA               	movwf	___flmul@bexp& (0+255),b
  8759  00104A                     
  8760                           ; BSR set to: 0
  8761  00104A  AE2A               	btfss	(___flmul@b+2)^0,7,c
  8762  00104C  EF2A  F008         	goto	u6641
  8763  001050  EF2C  F008         	goto	u6640
  8764  001054                     u6641:
  8765  001054  EF2D  F008         	goto	l7398
  8766  001058                     u6640:
  8767  001058                     
  8768                           ; BSR set to: 0
  8769  001058  81CA               	bsf	___flmul@bexp& (0+255),0,b
  8770  00105A                     l7398:
  8771                           
  8772                           ; BSR set to: 0
  8773  00105A  51CA               	movf	___flmul@bexp& (0+255),w,b
  8774  00105C  B4D8               	btfsc	status,2,c
  8775  00105E  EF33  F008         	goto	u6651
  8776  001062  EF35  F008         	goto	u6650
  8777  001066                     u6651:
  8778  001066  EF48  F008         	goto	l7406
  8779  00106A                     u6650:
  8780  00106A                     
  8781                           ; BSR set to: 0
  8782  00106A  29CA               	incf	___flmul@bexp& (0+255),w,b
  8783  00106C  A4D8               	btfss	status,2,c
  8784  00106E  EF3B  F008         	goto	u6661
  8785  001072  EF3D  F008         	goto	u6660
  8786  001076                     u6661:
  8787  001076  EF45  F008         	goto	l7404
  8788  00107A                     u6660:
  8789  00107A                     
  8790                           ; BSR set to: 0
  8791  00107A  0E00               	movlw	0
  8792  00107C  6E28               	movwf	___flmul@b^0,c
  8793  00107E  0E00               	movlw	0
  8794  001080  6E29               	movwf	(___flmul@b+1)^0,c
  8795  001082  0E00               	movlw	0
  8796  001084  6E2A               	movwf	(___flmul@b+2)^0,c
  8797  001086  0E00               	movlw	0
  8798  001088  6E2B               	movwf	(___flmul@b+3)^0,c
  8799  00108A                     l7404:
  8800                           
  8801                           ; BSR set to: 0
  8802  00108A  8E2A               	bsf	(___flmul@b+2)^0,7,c
  8803  00108C  EF50  F008         	goto	l7408
  8804  001090                     l7406:
  8805                           
  8806                           ; BSR set to: 0
  8807  001090  0E00               	movlw	0
  8808  001092  6E28               	movwf	___flmul@b^0,c
  8809  001094  0E00               	movlw	0
  8810  001096  6E29               	movwf	(___flmul@b+1)^0,c
  8811  001098  0E00               	movlw	0
  8812  00109A  6E2A               	movwf	(___flmul@b+2)^0,c
  8813  00109C  0E00               	movlw	0
  8814  00109E  6E2B               	movwf	(___flmul@b+3)^0,c
  8815  0010A0                     l7408:
  8816                           
  8817                           ; BSR set to: 0
  8818  0010A0  502F               	movf	(___flmul@a+3)^0,w,c
  8819  0010A2  0B80               	andlw	128
  8820  0010A4  1BC4               	xorwf	___flmul@sign& (0+255),f,b
  8821  0010A6                     
  8822                           ; BSR set to: 0
  8823  0010A6  502F               	movf	(___flmul@a+3)^0,w,c
  8824  0010A8  242F               	addwf	(___flmul@a+3)^0,w,c
  8825  0010AA  6FC5               	movwf	___flmul@aexp& (0+255),b
  8826  0010AC                     
  8827                           ; BSR set to: 0
  8828  0010AC  AE2E               	btfss	(___flmul@a+2)^0,7,c
  8829  0010AE  EF5B  F008         	goto	u6671
  8830  0010B2  EF5D  F008         	goto	u6670
  8831  0010B6                     u6671:
  8832  0010B6  EF5E  F008         	goto	l7416
  8833  0010BA                     u6670:
  8834  0010BA                     
  8835                           ; BSR set to: 0
  8836  0010BA  81C5               	bsf	___flmul@aexp& (0+255),0,b
  8837  0010BC                     l7416:
  8838                           
  8839                           ; BSR set to: 0
  8840  0010BC  51C5               	movf	___flmul@aexp& (0+255),w,b
  8841  0010BE  B4D8               	btfsc	status,2,c
  8842  0010C0  EF64  F008         	goto	u6681
  8843  0010C4  EF66  F008         	goto	u6680
  8844  0010C8                     u6681:
  8845  0010C8  EF79  F008         	goto	l7424
  8846  0010CC                     u6680:
  8847  0010CC                     
  8848                           ; BSR set to: 0
  8849  0010CC  29C5               	incf	___flmul@aexp& (0+255),w,b
  8850  0010CE  A4D8               	btfss	status,2,c
  8851  0010D0  EF6C  F008         	goto	u6691
  8852  0010D4  EF6E  F008         	goto	u6690
  8853  0010D8                     u6691:
  8854  0010D8  EF76  F008         	goto	l7422
  8855  0010DC                     u6690:
  8856  0010DC                     
  8857                           ; BSR set to: 0
  8858  0010DC  0E00               	movlw	0
  8859  0010DE  6E2C               	movwf	___flmul@a^0,c
  8860  0010E0  0E00               	movlw	0
  8861  0010E2  6E2D               	movwf	(___flmul@a+1)^0,c
  8862  0010E4  0E00               	movlw	0
  8863  0010E6  6E2E               	movwf	(___flmul@a+2)^0,c
  8864  0010E8  0E00               	movlw	0
  8865  0010EA  6E2F               	movwf	(___flmul@a+3)^0,c
  8866  0010EC                     l7422:
  8867                           
  8868                           ; BSR set to: 0
  8869  0010EC  8E2E               	bsf	(___flmul@a+2)^0,7,c
  8870  0010EE  EF81  F008         	goto	l1875
  8871  0010F2                     l7424:
  8872                           
  8873                           ; BSR set to: 0
  8874  0010F2  0E00               	movlw	0
  8875  0010F4  6E2C               	movwf	___flmul@a^0,c
  8876  0010F6  0E00               	movlw	0
  8877  0010F8  6E2D               	movwf	(___flmul@a+1)^0,c
  8878  0010FA  0E00               	movlw	0
  8879  0010FC  6E2E               	movwf	(___flmul@a+2)^0,c
  8880  0010FE  0E00               	movlw	0
  8881  001100  6E2F               	movwf	(___flmul@a+3)^0,c
  8882  001102                     l1875:
  8883                           
  8884                           ; BSR set to: 0
  8885  001102  51C5               	movf	___flmul@aexp& (0+255),w,b
  8886  001104  B4D8               	btfsc	status,2,c
  8887  001106  EF87  F008         	goto	u6701
  8888  00110A  EF89  F008         	goto	u6700
  8889  00110E                     u6701:
  8890  00110E  EF91  F008         	goto	l7428
  8891  001112                     u6700:
  8892  001112                     
  8893                           ; BSR set to: 0
  8894  001112  51CA               	movf	___flmul@bexp& (0+255),w,b
  8895  001114  A4D8               	btfss	status,2,c
  8896  001116  EF8F  F008         	goto	u6711
  8897  00111A  EF91  F008         	goto	u6710
  8898  00111E                     u6711:
  8899  00111E  EF9B  F008         	goto	l7432
  8900  001122                     u6710:
  8901  001122                     l7428:
  8902                           
  8903                           ; BSR set to: 0
  8904  001122  0E00               	movlw	0
  8905  001124  6E28               	movwf	?___flmul^0,c
  8906  001126  0E00               	movlw	0
  8907  001128  6E29               	movwf	(?___flmul+1)^0,c
  8908  00112A  0E00               	movlw	0
  8909  00112C  6E2A               	movwf	(?___flmul+2)^0,c
  8910  00112E  0E00               	movlw	0
  8911  001130  6E2B               	movwf	(?___flmul+3)^0,c
  8912  001132  EF33  F00A         	goto	l1879
  8913  001136                     l7432:
  8914                           
  8915                           ; BSR set to: 0
  8916  001136  502E               	movf	(___flmul@a+2)^0,w,c
  8917  001138  0228               	mulwf	___flmul@b^0,c
  8918  00113A  CFF3 F0CF          	movff	prodl,___flmul@temp
  8919  00113E  CFF4 F0D0          	movff	prodh,___flmul@temp+1
  8920  001142                     
  8921                           ; BSR set to: 0
  8922  001142  51CF               	movf	___flmul@temp& (0+255),w,b
  8923  001144  6FC6               	movwf	___flmul@grs& (0+255),b
  8924  001146  6BC7               	clrf	(___flmul@grs+1)& (0+255),b
  8925  001148  6BC8               	clrf	(___flmul@grs+2)& (0+255),b
  8926  00114A  6BC9               	clrf	(___flmul@grs+3)& (0+255),b
  8927  00114C                     
  8928                           ; BSR set to: 0
  8929  00114C  51D0               	movf	(___flmul@temp+1)& (0+255),w,b
  8930  00114E  6FCB               	movwf	___flmul@prod& (0+255),b
  8931  001150  6BCC               	clrf	(___flmul@prod+1)& (0+255),b
  8932  001152  6BCD               	clrf	(___flmul@prod+2)& (0+255),b
  8933  001154  6BCE               	clrf	(___flmul@prod+3)& (0+255),b
  8934  001156  502D               	movf	(___flmul@a+1)^0,w,c
  8935  001158  0229               	mulwf	(___flmul@b+1)^0,c
  8936  00115A  CFF3 F0CF          	movff	prodl,___flmul@temp
  8937  00115E  CFF4 F0D0          	movff	prodh,___flmul@temp+1
  8938  001162                     
  8939                           ; BSR set to: 0
  8940  001162  51CF               	movf	___flmul@temp& (0+255),w,b
  8941  001164  27C6               	addwf	___flmul@grs& (0+255),f,b
  8942  001166  0E00               	movlw	0
  8943  001168  23C7               	addwfc	(___flmul@grs+1)& (0+255),f,b
  8944  00116A  23C8               	addwfc	(___flmul@grs+2)& (0+255),f,b
  8945  00116C  23C9               	addwfc	(___flmul@grs+3)& (0+255),f,b
  8946  00116E                     
  8947                           ; BSR set to: 0
  8948  00116E  51D0               	movf	(___flmul@temp+1)& (0+255),w,b
  8949  001170  27CB               	addwf	___flmul@prod& (0+255),f,b
  8950  001172  0E00               	movlw	0
  8951  001174  23CC               	addwfc	(___flmul@prod+1)& (0+255),f,b
  8952  001176  23CD               	addwfc	(___flmul@prod+2)& (0+255),f,b
  8953  001178  23CE               	addwfc	(___flmul@prod+3)& (0+255),f,b
  8954  00117A  502C               	movf	___flmul@a^0,w,c
  8955  00117C  022A               	mulwf	(___flmul@b+2)^0,c
  8956  00117E  CFF3 F0CF          	movff	prodl,___flmul@temp
  8957  001182  CFF4 F0D0          	movff	prodh,___flmul@temp+1
  8958  001186                     
  8959                           ; BSR set to: 0
  8960  001186  51CF               	movf	___flmul@temp& (0+255),w,b
  8961  001188  27C6               	addwf	___flmul@grs& (0+255),f,b
  8962  00118A  0E00               	movlw	0
  8963  00118C  23C7               	addwfc	(___flmul@grs+1)& (0+255),f,b
  8964  00118E  23C8               	addwfc	(___flmul@grs+2)& (0+255),f,b
  8965  001190  23C9               	addwfc	(___flmul@grs+3)& (0+255),f,b
  8966  001192                     
  8967                           ; BSR set to: 0
  8968  001192  51D0               	movf	(___flmul@temp+1)& (0+255),w,b
  8969  001194  27CB               	addwf	___flmul@prod& (0+255),f,b
  8970  001196  0E00               	movlw	0
  8971  001198  23CC               	addwfc	(___flmul@prod+1)& (0+255),f,b
  8972  00119A  23CD               	addwfc	(___flmul@prod+2)& (0+255),f,b
  8973  00119C  23CE               	addwfc	(___flmul@prod+3)& (0+255),f,b
  8974  00119E                     
  8975                           ; BSR set to: 0
  8976  00119E  C0C8  F0C9         	movff	___flmul@grs+2,___flmul@grs+3
  8977  0011A2  C0C7  F0C8         	movff	___flmul@grs+1,___flmul@grs+2
  8978  0011A6  C0C6  F0C7         	movff	___flmul@grs,___flmul@grs+1
  8979  0011AA  6BC6               	clrf	___flmul@grs& (0+255),b
  8980  0011AC                     
  8981                           ; BSR set to: 0
  8982  0011AC  502C               	movf	___flmul@a^0,w,c
  8983  0011AE  0229               	mulwf	(___flmul@b+1)^0,c
  8984  0011B0  CFF3 F0CF          	movff	prodl,___flmul@temp
  8985  0011B4  CFF4 F0D0          	movff	prodh,___flmul@temp+1
  8986  0011B8                     
  8987                           ; BSR set to: 0
  8988  0011B8  51CF               	movf	___flmul@temp& (0+255),w,b
  8989  0011BA  27C6               	addwf	___flmul@grs& (0+255),f,b
  8990  0011BC  51D0               	movf	(___flmul@temp+1)& (0+255),w,b
  8991  0011BE  23C7               	addwfc	(___flmul@grs+1)& (0+255),f,b
  8992  0011C0  0E00               	movlw	0
  8993  0011C2  23C8               	addwfc	(___flmul@grs+2)& (0+255),f,b
  8994  0011C4  0E00               	movlw	0
  8995  0011C6  23C9               	addwfc	(___flmul@grs+3)& (0+255),f,b
  8996  0011C8                     
  8997                           ; BSR set to: 0
  8998  0011C8  502D               	movf	(___flmul@a+1)^0,w,c
  8999  0011CA  0228               	mulwf	___flmul@b^0,c
  9000  0011CC  CFF3 F0CF          	movff	prodl,___flmul@temp
  9001  0011D0  CFF4 F0D0          	movff	prodh,___flmul@temp+1
  9002  0011D4                     
  9003                           ; BSR set to: 0
  9004  0011D4  51CF               	movf	___flmul@temp& (0+255),w,b
  9005  0011D6  27C6               	addwf	___flmul@grs& (0+255),f,b
  9006  0011D8  51D0               	movf	(___flmul@temp+1)& (0+255),w,b
  9007  0011DA  23C7               	addwfc	(___flmul@grs+1)& (0+255),f,b
  9008  0011DC  0E00               	movlw	0
  9009  0011DE  23C8               	addwfc	(___flmul@grs+2)& (0+255),f,b
  9010  0011E0  0E00               	movlw	0
  9011  0011E2  23C9               	addwfc	(___flmul@grs+3)& (0+255),f,b
  9012  0011E4                     
  9013                           ; BSR set to: 0
  9014  0011E4  C0C8  F0C9         	movff	___flmul@grs+2,___flmul@grs+3
  9015  0011E8  C0C7  F0C8         	movff	___flmul@grs+1,___flmul@grs+2
  9016  0011EC  C0C6  F0C7         	movff	___flmul@grs,___flmul@grs+1
  9017  0011F0  6BC6               	clrf	___flmul@grs& (0+255),b
  9018  0011F2  502C               	movf	___flmul@a^0,w,c
  9019  0011F4  0228               	mulwf	___flmul@b^0,c
  9020  0011F6  CFF3 F0CF          	movff	prodl,___flmul@temp
  9021  0011FA  CFF4 F0D0          	movff	prodh,___flmul@temp+1
  9022  0011FE                     
  9023                           ; BSR set to: 0
  9024  0011FE  51CF               	movf	___flmul@temp& (0+255),w,b
  9025  001200  27C6               	addwf	___flmul@grs& (0+255),f,b
  9026  001202  51D0               	movf	(___flmul@temp+1)& (0+255),w,b
  9027  001204  23C7               	addwfc	(___flmul@grs+1)& (0+255),f,b
  9028  001206  0E00               	movlw	0
  9029  001208  23C8               	addwfc	(___flmul@grs+2)& (0+255),f,b
  9030  00120A  0E00               	movlw	0
  9031  00120C  23C9               	addwfc	(___flmul@grs+3)& (0+255),f,b
  9032  00120E                     
  9033                           ; BSR set to: 0
  9034  00120E  502E               	movf	(___flmul@a+2)^0,w,c
  9035  001210  0229               	mulwf	(___flmul@b+1)^0,c
  9036  001212  CFF3 F0CF          	movff	prodl,___flmul@temp
  9037  001216  CFF4 F0D0          	movff	prodh,___flmul@temp+1
  9038  00121A  51CF               	movf	___flmul@temp& (0+255),w,b
  9039  00121C  27CB               	addwf	___flmul@prod& (0+255),f,b
  9040  00121E  51D0               	movf	(___flmul@temp+1)& (0+255),w,b
  9041  001220  23CC               	addwfc	(___flmul@prod+1)& (0+255),f,b
  9042  001222  0E00               	movlw	0
  9043  001224  23CD               	addwfc	(___flmul@prod+2)& (0+255),f,b
  9044  001226  0E00               	movlw	0
  9045  001228  23CE               	addwfc	(___flmul@prod+3)& (0+255),f,b
  9046  00122A                     
  9047                           ; BSR set to: 0
  9048  00122A  502D               	movf	(___flmul@a+1)^0,w,c
  9049  00122C  022A               	mulwf	(___flmul@b+2)^0,c
  9050  00122E  CFF3 F0CF          	movff	prodl,___flmul@temp
  9051  001232  CFF4 F0D0          	movff	prodh,___flmul@temp+1
  9052  001236                     
  9053                           ; BSR set to: 0
  9054  001236  51CF               	movf	___flmul@temp& (0+255),w,b
  9055  001238  27CB               	addwf	___flmul@prod& (0+255),f,b
  9056  00123A  51D0               	movf	(___flmul@temp+1)& (0+255),w,b
  9057  00123C  23CC               	addwfc	(___flmul@prod+1)& (0+255),f,b
  9058  00123E  0E00               	movlw	0
  9059  001240  23CD               	addwfc	(___flmul@prod+2)& (0+255),f,b
  9060  001242  0E00               	movlw	0
  9061  001244  23CE               	addwfc	(___flmul@prod+3)& (0+255),f,b
  9062  001246  502E               	movf	(___flmul@a+2)^0,w,c
  9063  001248  022A               	mulwf	(___flmul@b+2)^0,c
  9064  00124A  CFF3 F0CF          	movff	prodl,___flmul@temp
  9065  00124E  CFF4 F0D0          	movff	prodh,___flmul@temp+1
  9066  001252                     
  9067                           ; BSR set to: 0
  9068  001252  51CF               	movf	___flmul@temp& (0+255),w,b
  9069  001254  6E30               	movwf	??___flmul^0,c
  9070  001256  51D0               	movf	(___flmul@temp+1)& (0+255),w,b
  9071  001258  6E31               	movwf	(??___flmul+1)^0,c
  9072  00125A  6A32               	clrf	(??___flmul+2)^0,c
  9073  00125C  6A33               	clrf	(??___flmul+3)^0,c
  9074  00125E  C032  F033         	movff	??___flmul+2,??___flmul+3
  9075  001262  C031  F032         	movff	??___flmul+1,??___flmul+2
  9076  001266  C030  F031         	movff	??___flmul,??___flmul+1
  9077  00126A  6A30               	clrf	??___flmul^0,c
  9078  00126C  5030               	movf	??___flmul^0,w,c
  9079  00126E  27CB               	addwf	___flmul@prod& (0+255),f,b
  9080  001270  5031               	movf	(??___flmul+1)^0,w,c
  9081  001272  23CC               	addwfc	(___flmul@prod+1)& (0+255),f,b
  9082  001274  5032               	movf	(??___flmul+2)^0,w,c
  9083  001276  23CD               	addwfc	(___flmul@prod+2)& (0+255),f,b
  9084  001278  5033               	movf	(??___flmul+3)^0,w,c
  9085  00127A  23CE               	addwfc	(___flmul@prod+3)& (0+255),f,b
  9086  00127C                     
  9087                           ; BSR set to: 0
  9088  00127C  C0C6  F030         	movff	___flmul@grs,??___flmul
  9089  001280  C0C7  F031         	movff	___flmul@grs+1,??___flmul+1
  9090  001284  C0C8  F032         	movff	___flmul@grs+2,??___flmul+2
  9091  001288  C0C9  F033         	movff	___flmul@grs+3,??___flmul+3
  9092  00128C  0E19               	movlw	25
  9093  00128E  EF4E  F009         	goto	u6720
  9094  001292                     u6725:
  9095  001292  90D8               	bcf	status,0,c
  9096  001294  3233               	rrcf	(??___flmul+3)^0,f,c
  9097  001296  3232               	rrcf	(??___flmul+2)^0,f,c
  9098  001298  3231               	rrcf	(??___flmul+1)^0,f,c
  9099  00129A  3230               	rrcf	??___flmul^0,f,c
  9100  00129C                     u6720:
  9101  00129C  2EE8               	decfsz	wreg,f,c
  9102  00129E  EF49  F009         	goto	u6725
  9103  0012A2  5030               	movf	??___flmul^0,w,c
  9104  0012A4  27CB               	addwf	___flmul@prod& (0+255),f,b
  9105  0012A6  5031               	movf	(??___flmul+1)^0,w,c
  9106  0012A8  23CC               	addwfc	(___flmul@prod+1)& (0+255),f,b
  9107  0012AA  5032               	movf	(??___flmul+2)^0,w,c
  9108  0012AC  23CD               	addwfc	(___flmul@prod+2)& (0+255),f,b
  9109  0012AE  5033               	movf	(??___flmul+3)^0,w,c
  9110  0012B0  23CE               	addwfc	(___flmul@prod+3)& (0+255),f,b
  9111  0012B2                     
  9112                           ; BSR set to: 0
  9113  0012B2  C0C8  F0C9         	movff	___flmul@grs+2,___flmul@grs+3
  9114  0012B6  C0C7  F0C8         	movff	___flmul@grs+1,___flmul@grs+2
  9115  0012BA  C0C6  F0C7         	movff	___flmul@grs,___flmul@grs+1
  9116  0012BE  6BC6               	clrf	___flmul@grs& (0+255),b
  9117  0012C0                     
  9118                           ; BSR set to: 0
  9119  0012C0  51C5               	movf	___flmul@aexp& (0+255),w,b
  9120  0012C2  C0CA  F030         	movff	___flmul@bexp,??___flmul
  9121  0012C6  6A31               	clrf	(??___flmul+1)^0,c
  9122  0012C8  2630               	addwf	??___flmul^0,f,c
  9123  0012CA  0E00               	movlw	0
  9124  0012CC  2231               	addwfc	(??___flmul+1)^0,f,c
  9125  0012CE  0E82               	movlw	130
  9126  0012D0  2430               	addwf	??___flmul^0,w,c
  9127  0012D2  6FCF               	movwf	___flmul@temp& (0+255),b
  9128  0012D4  0EFF               	movlw	255
  9129  0012D6  2031               	addwfc	(??___flmul+1)^0,w,c
  9130  0012D8  6FD0               	movwf	(___flmul@temp+1)& (0+255),b
  9131  0012DA  EF84  F009         	goto	l7480
  9132  0012DE                     l7474:
  9133                           
  9134                           ; BSR set to: 0
  9135  0012DE  90D8               	bcf	status,0,c
  9136  0012E0  37CB               	rlcf	___flmul@prod& (0+255),f,b
  9137  0012E2  37CC               	rlcf	(___flmul@prod+1)& (0+255),f,b
  9138  0012E4  37CD               	rlcf	(___flmul@prod+2)& (0+255),f,b
  9139  0012E6  37CE               	rlcf	(___flmul@prod+3)& (0+255),f,b
  9140  0012E8                     
  9141                           ; BSR set to: 0
  9142  0012E8  AFC9               	btfss	(___flmul@grs+3)& (0+255),7,b
  9143  0012EA  EF79  F009         	goto	u6731
  9144  0012EE  EF7B  F009         	goto	u6730
  9145  0012F2                     u6731:
  9146  0012F2  EF7C  F009         	goto	l1882
  9147  0012F6                     u6730:
  9148  0012F6                     
  9149                           ; BSR set to: 0
  9150  0012F6  81CB               	bsf	___flmul@prod& (0+255),0,b
  9151  0012F8                     l1882:
  9152                           
  9153                           ; BSR set to: 0
  9154  0012F8  90D8               	bcf	status,0,c
  9155  0012FA  37C6               	rlcf	___flmul@grs& (0+255),f,b
  9156  0012FC  37C7               	rlcf	(___flmul@grs+1)& (0+255),f,b
  9157  0012FE  37C8               	rlcf	(___flmul@grs+2)& (0+255),f,b
  9158  001300  37C9               	rlcf	(___flmul@grs+3)& (0+255),f,b
  9159  001302  07CF               	decf	___flmul@temp& (0+255),f,b
  9160  001304  A0D8               	btfss	status,0,c
  9161  001306  07D0               	decf	(___flmul@temp+1)& (0+255),f,b
  9162  001308                     l7480:
  9163                           
  9164                           ; BSR set to: 0
  9165  001308  AFCD               	btfss	(___flmul@prod+2)& (0+255),7,b
  9166  00130A  EF89  F009         	goto	u6741
  9167  00130E  EF8B  F009         	goto	u6740
  9168  001312                     u6741:
  9169  001312  EF6F  F009         	goto	l7474
  9170  001316                     u6740:
  9171  001316                     
  9172                           ; BSR set to: 0
  9173  001316  0E00               	movlw	0
  9174  001318  6FC5               	movwf	___flmul@aexp& (0+255),b
  9175  00131A                     
  9176                           ; BSR set to: 0
  9177  00131A  AFC9               	btfss	(___flmul@grs+3)& (0+255),7,b
  9178  00131C  EF92  F009         	goto	u6751
  9179  001320  EF94  F009         	goto	u6750
  9180  001324                     u6751:
  9181  001324  EFB8  F009         	goto	l1884
  9182  001328                     u6750:
  9183  001328                     
  9184                           ; BSR set to: 0
  9185  001328  0EFF               	movlw	255
  9186  00132A  15C6               	andwf	___flmul@grs& (0+255),w,b
  9187  00132C  6E30               	movwf	??___flmul^0,c
  9188  00132E  0EFF               	movlw	255
  9189  001330  15C7               	andwf	(___flmul@grs+1)& (0+255),w,b
  9190  001332  6E31               	movwf	(??___flmul+1)^0,c
  9191  001334  0EFF               	movlw	255
  9192  001336  15C8               	andwf	(___flmul@grs+2)& (0+255),w,b
  9193  001338  6E32               	movwf	(??___flmul+2)^0,c
  9194  00133A  0E7F               	movlw	127
  9195  00133C  15C9               	andwf	(___flmul@grs+3)& (0+255),w,b
  9196  00133E  6E33               	movwf	(??___flmul+3)^0,c
  9197  001340  5030               	movf	??___flmul^0,w,c
  9198  001342  1031               	iorwf	(??___flmul+1)^0,w,c
  9199  001344  1032               	iorwf	(??___flmul+2)^0,w,c
  9200  001346  1033               	iorwf	(??___flmul+3)^0,w,c
  9201  001348  B4D8               	btfsc	status,2,c
  9202  00134A  EFA9  F009         	goto	u6761
  9203  00134E  EFAB  F009         	goto	u6760
  9204  001352                     u6761:
  9205  001352  EFAF  F009         	goto	l1885
  9206  001356                     u6760:
  9207  001356                     l7488:
  9208                           
  9209                           ; BSR set to: 0
  9210  001356  0E01               	movlw	1
  9211  001358  6FC5               	movwf	___flmul@aexp& (0+255),b
  9212  00135A  EFB8  F009         	goto	l1884
  9213  00135E                     l1885:
  9214                           
  9215                           ; BSR set to: 0
  9216  00135E  A1CB               	btfss	___flmul@prod& (0+255),0,b
  9217  001360  EFB4  F009         	goto	u6771
  9218  001364  EFB6  F009         	goto	u6770
  9219  001368                     u6771:
  9220  001368  EFB8  F009         	goto	l1884
  9221  00136C                     u6770:
  9222  00136C  EFAB  F009         	goto	l7488
  9223  001370                     l1884:
  9224                           
  9225                           ; BSR set to: 0
  9226  001370  51C5               	movf	___flmul@aexp& (0+255),w,b
  9227  001372  B4D8               	btfsc	status,2,c
  9228  001374  EFBE  F009         	goto	u6781
  9229  001378  EFC0  F009         	goto	u6780
  9230  00137C                     u6781:
  9231  00137C  EFE4  F009         	goto	l7500
  9232  001380                     u6780:
  9233  001380                     
  9234                           ; BSR set to: 0
  9235  001380  0E01               	movlw	1
  9236  001382  27CB               	addwf	___flmul@prod& (0+255),f,b
  9237  001384  0E00               	movlw	0
  9238  001386  23CC               	addwfc	(___flmul@prod+1)& (0+255),f,b
  9239  001388  23CD               	addwfc	(___flmul@prod+2)& (0+255),f,b
  9240  00138A  23CE               	addwfc	(___flmul@prod+3)& (0+255),f,b
  9241  00138C                     
  9242                           ; BSR set to: 0
  9243  00138C  A1CE               	btfss	(___flmul@prod+3)& (0+255),0,b
  9244  00138E  EFCB  F009         	goto	u6791
  9245  001392  EFCD  F009         	goto	u6790
  9246  001396                     u6791:
  9247  001396  EFE4  F009         	goto	l7500
  9248  00139A                     u6790:
  9249  00139A                     
  9250                           ; BSR set to: 0
  9251  00139A  C0CB  F030         	movff	___flmul@prod,??___flmul
  9252  00139E  C0CC  F031         	movff	___flmul@prod+1,??___flmul+1
  9253  0013A2  C0CD  F032         	movff	___flmul@prod+2,??___flmul+2
  9254  0013A6  C0CE  F033         	movff	___flmul@prod+3,??___flmul+3
  9255  0013AA  3433               	rlcf	(??___flmul+3)^0,w,c
  9256  0013AC  3233               	rrcf	(??___flmul+3)^0,f,c
  9257  0013AE  3232               	rrcf	(??___flmul+2)^0,f,c
  9258  0013B0  3231               	rrcf	(??___flmul+1)^0,f,c
  9259  0013B2  3230               	rrcf	??___flmul^0,f,c
  9260  0013B4  C030  F0CB         	movff	??___flmul,___flmul@prod
  9261  0013B8  C031  F0CC         	movff	??___flmul+1,___flmul@prod+1
  9262  0013BC  C032  F0CD         	movff	??___flmul+2,___flmul@prod+2
  9263  0013C0  C033  F0CE         	movff	??___flmul+3,___flmul@prod+3
  9264  0013C4                     
  9265                           ; BSR set to: 0
  9266  0013C4  4BCF               	infsnz	___flmul@temp& (0+255),f,b
  9267  0013C6  2BD0               	incf	(___flmul@temp+1)& (0+255),f,b
  9268  0013C8                     l7500:
  9269                           
  9270                           ; BSR set to: 0
  9271  0013C8  BFD0               	btfsc	(___flmul@temp+1)& (0+255),7,b
  9272  0013CA  EFEF  F009         	goto	u6801
  9273  0013CE  51D0               	movf	(___flmul@temp+1)& (0+255),w,b
  9274  0013D0  E108               	bnz	u6800
  9275  0013D2  29CF               	incf	___flmul@temp& (0+255),w,b
  9276  0013D4  A0D8               	btfss	status,0,c
  9277  0013D6  EFEF  F009         	goto	u6801
  9278  0013DA  EFF1  F009         	goto	u6800
  9279  0013DE                     u6801:
  9280  0013DE  EFFB  F009         	goto	l7504
  9281  0013E2                     u6800:
  9282  0013E2                     
  9283                           ; BSR set to: 0
  9284  0013E2  0E00               	movlw	0
  9285  0013E4  6FCB               	movwf	___flmul@prod& (0+255),b
  9286  0013E6  0E00               	movlw	0
  9287  0013E8  6FCC               	movwf	(___flmul@prod+1)& (0+255),b
  9288  0013EA  0E80               	movlw	128
  9289  0013EC  6FCD               	movwf	(___flmul@prod+2)& (0+255),b
  9290  0013EE  0E7F               	movlw	127
  9291  0013F0  6FCE               	movwf	(___flmul@prod+3)& (0+255),b
  9292  0013F2  EF29  F00A         	goto	l7516
  9293  0013F6                     l7504:
  9294                           
  9295                           ; BSR set to: 0
  9296  0013F6  BFD0               	btfsc	(___flmul@temp+1)& (0+255),7,b
  9297  0013F8  EF08  F00A         	goto	u6810
  9298  0013FC  51D0               	movf	(___flmul@temp+1)& (0+255),w,b
  9299  0013FE  E106               	bnz	u6811
  9300  001400  05CF               	decf	___flmul@temp& (0+255),w,b
  9301  001402  B0D8               	btfsc	status,0,c
  9302  001404  EF06  F00A         	goto	u6811
  9303  001408  EF08  F00A         	goto	u6810
  9304  00140C                     u6811:
  9305  00140C  EF14  F00A         	goto	l1892
  9306  001410                     u6810:
  9307  001410                     
  9308                           ; BSR set to: 0
  9309  001410  0E00               	movlw	0
  9310  001412  6FCB               	movwf	___flmul@prod& (0+255),b
  9311  001414  0E00               	movlw	0
  9312  001416  6FCC               	movwf	(___flmul@prod+1)& (0+255),b
  9313  001418  0E00               	movlw	0
  9314  00141A  6FCD               	movwf	(___flmul@prod+2)& (0+255),b
  9315  00141C  0E00               	movlw	0
  9316  00141E  6FCE               	movwf	(___flmul@prod+3)& (0+255),b
  9317  001420  0E00               	movlw	0
  9318  001422  6FC4               	movwf	___flmul@sign& (0+255),b
  9319  001424  EF29  F00A         	goto	l7516
  9320  001428                     l1892:
  9321                           
  9322                           ; BSR set to: 0
  9323  001428  C0CF  F0CA         	movff	___flmul@temp,___flmul@bexp
  9324  00142C                     
  9325                           ; BSR set to: 0
  9326  00142C  0EFF               	movlw	255
  9327  00142E  17CB               	andwf	___flmul@prod& (0+255),f,b
  9328  001430  0EFF               	movlw	255
  9329  001432  17CC               	andwf	(___flmul@prod+1)& (0+255),f,b
  9330  001434  0E7F               	movlw	127
  9331  001436  17CD               	andwf	(___flmul@prod+2)& (0+255),f,b
  9332  001438  0E00               	movlw	0
  9333  00143A  17CE               	andwf	(___flmul@prod+3)& (0+255),f,b
  9334  00143C                     
  9335                           ; BSR set to: 0
  9336  00143C  A1CA               	btfss	___flmul@bexp& (0+255),0,b
  9337  00143E  EF23  F00A         	goto	u6821
  9338  001442  EF25  F00A         	goto	u6820
  9339  001446                     u6821:
  9340  001446  EF26  F00A         	goto	l7514
  9341  00144A                     u6820:
  9342  00144A                     
  9343                           ; BSR set to: 0
  9344  00144A  8FCD               	bsf	(___flmul@prod+2)& (0+255),7,b
  9345  00144C                     l7514:
  9346                           
  9347                           ; BSR set to: 0
  9348  00144C  90D8               	bcf	status,0,c
  9349  00144E  31CA               	rrcf	___flmul@bexp& (0+255),w,b
  9350  001450  6FCE               	movwf	(___flmul@prod+3)& (0+255),b
  9351  001452                     l7516:
  9352                           
  9353                           ; BSR set to: 0
  9354  001452  51C4               	movf	___flmul@sign& (0+255),w,b
  9355  001454  13CE               	iorwf	(___flmul@prod+3)& (0+255),f,b
  9356  001456                     
  9357                           ; BSR set to: 0
  9358  001456  C0CB  F028         	movff	___flmul@prod,?___flmul
  9359  00145A  C0CC  F029         	movff	___flmul@prod+1,?___flmul+1
  9360  00145E  C0CD  F02A         	movff	___flmul@prod+2,?___flmul+2
  9361  001462  C0CE  F02B         	movff	___flmul@prod+3,?___flmul+3
  9362  001466                     l1879:
  9363                           
  9364                           ; BSR set to: 0
  9365  001466  0012               	return		;funcret
  9366  001468                     __end_of___flmul:
  9367                           	opt callstack 0
  9368                           
  9369 ;; *************** function _EPWM2_duty_const *****************
  9370 ;; Defined at:
  9371 ;;		line 79 in file "mcc_generated_files/epwm2.c"
  9372 ;; Parameters:    Size  Location     Type
  9373 ;;  freq            1    wreg     unsigned char 
  9374 ;; Auto vars:     Size  Location     Type
  9375 ;;  freq            1   55[COMRAM] unsigned char 
  9376 ;; Return value:  Size  Location     Type
  9377 ;;                  4   51[COMRAM] float 
  9378 ;; Registers used:
  9379 ;;		wreg, status,2, status,0, prodl, prodh, cstack
  9380 ;; Tracked objects:
  9381 ;;		On entry : 0/0
  9382 ;;		On exit  : 0/0
  9383 ;;		Unchanged: 0/0
  9384 ;; Data sizes:     COMRAM   BANK0   BANK1   BANK2   BANK3   BANK4   BANK5   BANK6   BANK7   BANK8   BANK9  BANK10  BANK1
      +1  BANK12  BANK13  BANK14  BANK15
  9385 ;;      Params:         4       0       0       0       0       0       0       0       0       0       0       0       
      +0       0       0       0       0
  9386 ;;      Locals:         1       0       0       0       0       0       0       0       0       0       0       0       
      +0       0       0       0       0
  9387 ;;      Temps:          0       0       0       0       0       0       0       0       0       0       0       0       
      +0       0       0       0       0
  9388 ;;      Totals:         5       0       0       0       0       0       0       0       0       0       0       0       
      +0       0       0       0       0
  9389 ;;Total ram usage:        5 bytes
  9390 ;; Hardware stack levels used:    1
  9391 ;; Hardware stack levels required when called:    9
  9392 ;; This function calls:
  9393 ;;		___fldiv
  9394 ;;		___wmul
  9395 ;;		___xxtofl
  9396 ;; This function is called by:
  9397 ;;		_EPWM2_period
  9398 ;;		_EPWM2_engine_config
  9399 ;; This function uses a non-reentrant model
  9400 ;;
  9401                           
  9402                           	psect	text69
  9403  0034CA                     __ptext69:
  9404                           	opt callstack 0
  9405  0034CA                     _EPWM2_duty_const:
  9406                           	opt callstack 17
  9407                           
  9408                           ; BSR set to: 0
  9409                           ;incstack = 0
  9410                           ;EPWM2_duty_const@freq stored from wreg
  9411  0034CA  6E38               	movwf	EPWM2_duty_const@freq^0,c
  9412  0034CC                     
  9413                           ;mcc_generated_files/epwm2.c: 80:     static float interval = 0;;mcc_generated_files/epw
      +                          m2.c: 81:     if (freq != 0)
  9414  0034CC  5038               	movf	EPWM2_duty_const@freq^0,w,c
  9415  0034CE  B4D8               	btfsc	status,2,c
  9416  0034D0  EF6C  F01A         	goto	u6451
  9417  0034D4  EF6E  F01A         	goto	u6450
  9418  0034D8                     u6451:
  9419  0034D8  EF9D  F01A         	goto	l7254
  9420  0034DC                     u6450:
  9421  0034DC                     
  9422                           ;mcc_generated_files/epwm2.c: 82:         interval = (float) (64000000 / 1000) / (freq *
      +                           100 * 16);
  9423  0034DC  0E00               	movlw	0
  9424  0034DE  6E28               	movwf	___fldiv@b^0,c
  9425  0034E0  0E00               	movlw	0
  9426  0034E2  6E29               	movwf	(___fldiv@b+1)^0,c
  9427  0034E4  0E7A               	movlw	122
  9428  0034E6  6E2A               	movwf	(___fldiv@b+2)^0,c
  9429  0034E8  0E47               	movlw	71
  9430  0034EA  6E2B               	movwf	(___fldiv@b+3)^0,c
  9431  0034EC  C038  F014         	movff	EPWM2_duty_const@freq,___wmul@multiplier
  9432  0034F0  6A15               	clrf	(___wmul@multiplier+1)^0,c
  9433  0034F2  0E06               	movlw	6
  9434  0034F4  6E17               	movwf	(___wmul@multiplicand+1)^0,c
  9435  0034F6  0E40               	movlw	64
  9436  0034F8  6E16               	movwf	___wmul@multiplicand^0,c
  9437  0034FA  ECFA  F01D         	call	___wmul	;wreg free
  9438  0034FE  C014  F01A         	movff	?___wmul,___xxtofl@val
  9439  003502  C015  F01B         	movff	?___wmul+1,___xxtofl@val+1
  9440  003506  0E00               	movlw	0
  9441  003508  BE1B               	btfsc	(___xxtofl@val+1)^0,7,c
  9442  00350A  0EFF               	movlw	-1
  9443  00350C  6E1C               	movwf	(___xxtofl@val+2)^0,c
  9444  00350E  6E1D               	movwf	(___xxtofl@val+3)^0,c
  9445  003510  0E01               	movlw	1
  9446  003512  EC54  F00E         	call	___xxtofl
  9447  003516  C01A  F02C         	movff	?___xxtofl,___fldiv@a
  9448  00351A  C01B  F02D         	movff	?___xxtofl+1,___fldiv@a+1
  9449  00351E  C01C  F02E         	movff	?___xxtofl+2,___fldiv@a+2
  9450  003522  C01D  F02F         	movff	?___xxtofl+3,___fldiv@a+3
  9451  003526  EC34  F00A         	call	___fldiv	;wreg free
  9452  00352A  C028  F096         	movff	?___fldiv,EPWM2_duty_const@interval
  9453  00352E  C029  F097         	movff	?___fldiv+1,EPWM2_duty_const@interval+1
  9454  003532  C02A  F098         	movff	?___fldiv+2,EPWM2_duty_const@interval+2
  9455  003536  C02B  F099         	movff	?___fldiv+3,EPWM2_duty_const@interval+3
  9456  00353A                     l7254:
  9457                           
  9458                           ;mcc_generated_files/epwm2.c: 83:     return interval;
  9459  00353A  C096  F034         	movff	EPWM2_duty_const@interval,?_EPWM2_duty_const
  9460  00353E  C097  F035         	movff	EPWM2_duty_const@interval+1,?_EPWM2_duty_const+1
  9461  003542  C098  F036         	movff	EPWM2_duty_const@interval+2,?_EPWM2_duty_const+2
  9462  003546  C099  F037         	movff	EPWM2_duty_const@interval+3,?_EPWM2_duty_const+3
  9463  00354A  0012               	return		;funcret
  9464  00354C                     __end_of_EPWM2_duty_const:
  9465                           	opt callstack 0
  9466                           
  9467 ;; *************** function ___xxtofl *****************
  9468 ;; Defined at:
  9469 ;;		line 10 in file "C:\Program Files (x86)\Microchip\xc8\v2.10\pic\sources\c99\common\xxtofl.c"
  9470 ;; Parameters:    Size  Location     Type
  9471 ;;  sign            1    wreg     unsigned char 
  9472 ;;  val             4   25[COMRAM] long 
  9473 ;; Auto vars:     Size  Location     Type
  9474 ;;  sign            1   33[COMRAM] unsigned char 
  9475 ;;  arg             4   35[COMRAM] unsigned long 
  9476 ;;  exp             1   34[COMRAM] unsigned char 
  9477 ;; Return value:  Size  Location     Type
  9478 ;;                  4   25[COMRAM] unsigned char 
  9479 ;; Registers used:
  9480 ;;		wreg, status,2, status,0
  9481 ;; Tracked objects:
  9482 ;;		On entry : 0/0
  9483 ;;		On exit  : 0/0
  9484 ;;		Unchanged: 0/0
  9485 ;; Data sizes:     COMRAM   BANK0   BANK1   BANK2   BANK3   BANK4   BANK5   BANK6   BANK7   BANK8   BANK9  BANK10  BANK1
      +1  BANK12  BANK13  BANK14  BANK15
  9486 ;;      Params:         4       0       0       0       0       0       0       0       0       0       0       0       
      +0       0       0       0       0
  9487 ;;      Locals:         6       0       0       0       0       0       0       0       0       0       0       0       
      +0       0       0       0       0
  9488 ;;      Temps:          4       0       0       0       0       0       0       0       0       0       0       0       
      +0       0       0       0       0
  9489 ;;      Totals:        14       0       0       0       0       0       0       0       0       0       0       0       
      +0       0       0       0       0
  9490 ;;Total ram usage:       14 bytes
  9491 ;; Hardware stack levels used:    1
  9492 ;; Hardware stack levels required when called:    8
  9493 ;; This function calls:
  9494 ;;		Nothing
  9495 ;; This function is called by:
  9496 ;;		_EPWM3_duty_const
  9497 ;;		_EPWM3_engine_config
  9498 ;;		_EPWM2_duty_const
  9499 ;;		_EPWM2_engine_config
  9500 ;;		_BH1750_Data_Read
  9501 ;; This function uses a non-reentrant model
  9502 ;;
  9503                           
  9504                           	psect	text70
  9505  001CA8                     __ptext70:
  9506                           	opt callstack 0
  9507  001CA8                     ___xxtofl:
  9508                           	opt callstack 18
  9509                           
  9510                           ;incstack = 0
  9511                           ;___xxtofl@sign stored from wreg
  9512  001CA8  6E22               	movwf	___xxtofl@sign^0,c
  9513  001CAA  5022               	movf	___xxtofl@sign^0,w,c
  9514  001CAC  B4D8               	btfsc	status,2,c
  9515  001CAE  EF5B  F00E         	goto	u6351
  9516  001CB2  EF5D  F00E         	goto	u6350
  9517  001CB6                     u6351:
  9518  001CB6  EF7F  F00E         	goto	l1916
  9519  001CBA                     u6350:
  9520  001CBA  BE1D               	btfsc	(___xxtofl@val+3)^0,7,c
  9521  001CBC  EF64  F00E         	goto	u6360
  9522  001CC0  EF62  F00E         	goto	u6361
  9523  001CC4                     u6361:
  9524  001CC4  EF7F  F00E         	goto	l1916
  9525  001CC8                     u6360:
  9526  001CC8  C01A  F01E         	movff	___xxtofl@val,??___xxtofl
  9527  001CCC  C01B  F01F         	movff	___xxtofl@val+1,??___xxtofl+1
  9528  001CD0  C01C  F020         	movff	___xxtofl@val+2,??___xxtofl+2
  9529  001CD4  C01D  F021         	movff	___xxtofl@val+3,??___xxtofl+3
  9530  001CD8  1E1E               	comf	??___xxtofl^0,f,c
  9531  001CDA  1E1F               	comf	(??___xxtofl+1)^0,f,c
  9532  001CDC  1E20               	comf	(??___xxtofl+2)^0,f,c
  9533  001CDE  1E21               	comf	(??___xxtofl+3)^0,f,c
  9534  001CE0  2A1E               	incf	??___xxtofl^0,f,c
  9535  001CE2  0E00               	movlw	0
  9536  001CE4  221F               	addwfc	(??___xxtofl+1)^0,f,c
  9537  001CE6  2220               	addwfc	(??___xxtofl+2)^0,f,c
  9538  001CE8  2221               	addwfc	(??___xxtofl+3)^0,f,c
  9539  001CEA  C01E  F024         	movff	??___xxtofl,___xxtofl@arg
  9540  001CEE  C01F  F025         	movff	??___xxtofl+1,___xxtofl@arg+1
  9541  001CF2  C020  F026         	movff	??___xxtofl+2,___xxtofl@arg+2
  9542  001CF6  C021  F027         	movff	??___xxtofl+3,___xxtofl@arg+3
  9543  001CFA  EF87  F00E         	goto	l7206
  9544  001CFE                     l1916:
  9545  001CFE  C01A  F024         	movff	___xxtofl@val,___xxtofl@arg
  9546  001D02  C01B  F025         	movff	___xxtofl@val+1,___xxtofl@arg+1
  9547  001D06  C01C  F026         	movff	___xxtofl@val+2,___xxtofl@arg+2
  9548  001D0A  C01D  F027         	movff	___xxtofl@val+3,___xxtofl@arg+3
  9549  001D0E                     l7206:
  9550  001D0E  501A               	movf	___xxtofl@val^0,w,c
  9551  001D10  101B               	iorwf	(___xxtofl@val+1)^0,w,c
  9552  001D12  101C               	iorwf	(___xxtofl@val+2)^0,w,c
  9553  001D14  101D               	iorwf	(___xxtofl@val+3)^0,w,c
  9554  001D16  A4D8               	btfss	status,2,c
  9555  001D18  EF90  F00E         	goto	u6371
  9556  001D1C  EF92  F00E         	goto	u6370
  9557  001D20                     u6371:
  9558  001D20  EF9C  F00E         	goto	l7212
  9559  001D24                     u6370:
  9560  001D24  0E00               	movlw	0
  9561  001D26  6E1A               	movwf	?___xxtofl^0,c
  9562  001D28  0E00               	movlw	0
  9563  001D2A  6E1B               	movwf	(?___xxtofl+1)^0,c
  9564  001D2C  0E00               	movlw	0
  9565  001D2E  6E1C               	movwf	(?___xxtofl+2)^0,c
  9566  001D30  0E00               	movlw	0
  9567  001D32  6E1D               	movwf	(?___xxtofl+3)^0,c
  9568  001D34  EF2D  F00F         	goto	l1919
  9569  001D38                     l7212:
  9570  001D38  0E96               	movlw	150
  9571  001D3A  6E23               	movwf	___xxtofl@exp^0,c
  9572  001D3C  EFA6  F00E         	goto	l7216
  9573  001D40                     l7214:
  9574  001D40  2A23               	incf	___xxtofl@exp^0,f,c
  9575  001D42  90D8               	bcf	status,0,c
  9576  001D44  3227               	rrcf	(___xxtofl@arg+3)^0,f,c
  9577  001D46  3226               	rrcf	(___xxtofl@arg+2)^0,f,c
  9578  001D48  3225               	rrcf	(___xxtofl@arg+1)^0,f,c
  9579  001D4A  3224               	rrcf	___xxtofl@arg^0,f,c
  9580  001D4C                     l7216:
  9581  001D4C  0E00               	movlw	0
  9582  001D4E  1424               	andwf	___xxtofl@arg^0,w,c
  9583  001D50  6E1E               	movwf	??___xxtofl^0,c
  9584  001D52  0E00               	movlw	0
  9585  001D54  1425               	andwf	(___xxtofl@arg+1)^0,w,c
  9586  001D56  6E1F               	movwf	(??___xxtofl+1)^0,c
  9587  001D58  0E00               	movlw	0
  9588  001D5A  1426               	andwf	(___xxtofl@arg+2)^0,w,c
  9589  001D5C  6E20               	movwf	(??___xxtofl+2)^0,c
  9590  001D5E  0EFE               	movlw	254
  9591  001D60  1427               	andwf	(___xxtofl@arg+3)^0,w,c
  9592  001D62  6E21               	movwf	(??___xxtofl+3)^0,c
  9593  001D64  501E               	movf	??___xxtofl^0,w,c
  9594  001D66  101F               	iorwf	(??___xxtofl+1)^0,w,c
  9595  001D68  1020               	iorwf	(??___xxtofl+2)^0,w,c
  9596  001D6A  1021               	iorwf	(??___xxtofl+3)^0,w,c
  9597  001D6C  A4D8               	btfss	status,2,c
  9598  001D6E  EFBB  F00E         	goto	u6381
  9599  001D72  EFBD  F00E         	goto	u6380
  9600  001D76                     u6381:
  9601  001D76  EFA0  F00E         	goto	l7214
  9602  001D7A                     u6380:
  9603  001D7A  EFCB  F00E         	goto	l1923
  9604  001D7E                     l7218:
  9605  001D7E  2A23               	incf	___xxtofl@exp^0,f,c
  9606  001D80  0E01               	movlw	1
  9607  001D82  2624               	addwf	___xxtofl@arg^0,f,c
  9608  001D84  0E00               	movlw	0
  9609  001D86  2225               	addwfc	(___xxtofl@arg+1)^0,f,c
  9610  001D88  2226               	addwfc	(___xxtofl@arg+2)^0,f,c
  9611  001D8A  2227               	addwfc	(___xxtofl@arg+3)^0,f,c
  9612  001D8C  90D8               	bcf	status,0,c
  9613  001D8E  3227               	rrcf	(___xxtofl@arg+3)^0,f,c
  9614  001D90  3226               	rrcf	(___xxtofl@arg+2)^0,f,c
  9615  001D92  3225               	rrcf	(___xxtofl@arg+1)^0,f,c
  9616  001D94  3224               	rrcf	___xxtofl@arg^0,f,c
  9617  001D96                     l1923:
  9618  001D96  0E00               	movlw	0
  9619  001D98  1424               	andwf	___xxtofl@arg^0,w,c
  9620  001D9A  6E1E               	movwf	??___xxtofl^0,c
  9621  001D9C  0E00               	movlw	0
  9622  001D9E  1425               	andwf	(___xxtofl@arg+1)^0,w,c
  9623  001DA0  6E1F               	movwf	(??___xxtofl+1)^0,c
  9624  001DA2  0E00               	movlw	0
  9625  001DA4  1426               	andwf	(___xxtofl@arg+2)^0,w,c
  9626  001DA6  6E20               	movwf	(??___xxtofl+2)^0,c
  9627  001DA8  0EFF               	movlw	255
  9628  001DAA  1427               	andwf	(___xxtofl@arg+3)^0,w,c
  9629  001DAC  6E21               	movwf	(??___xxtofl+3)^0,c
  9630  001DAE  501E               	movf	??___xxtofl^0,w,c
  9631  001DB0  101F               	iorwf	(??___xxtofl+1)^0,w,c
  9632  001DB2  1020               	iorwf	(??___xxtofl+2)^0,w,c
  9633  001DB4  1021               	iorwf	(??___xxtofl+3)^0,w,c
  9634  001DB6  A4D8               	btfss	status,2,c
  9635  001DB8  EFE0  F00E         	goto	u6391
  9636  001DBC  EFE2  F00E         	goto	u6390
  9637  001DC0                     u6391:
  9638  001DC0  EFBF  F00E         	goto	l7218
  9639  001DC4                     u6390:
  9640  001DC4  EFEA  F00E         	goto	l7226
  9641  001DC8                     l7224:
  9642  001DC8  0623               	decf	___xxtofl@exp^0,f,c
  9643  001DCA  90D8               	bcf	status,0,c
  9644  001DCC  3624               	rlcf	___xxtofl@arg^0,f,c
  9645  001DCE  3625               	rlcf	(___xxtofl@arg+1)^0,f,c
  9646  001DD0  3626               	rlcf	(___xxtofl@arg+2)^0,f,c
  9647  001DD2  3627               	rlcf	(___xxtofl@arg+3)^0,f,c
  9648  001DD4                     l7226:
  9649  001DD4  BE26               	btfsc	(___xxtofl@arg+2)^0,7,c
  9650  001DD6  EFEF  F00E         	goto	u6401
  9651  001DDA  EFF1  F00E         	goto	u6400
  9652  001DDE                     u6401:
  9653  001DDE  EFF9  F00E         	goto	l1930
  9654  001DE2                     u6400:
  9655  001DE2  0E02               	movlw	2
  9656  001DE4  6023               	cpfslt	___xxtofl@exp^0,c
  9657  001DE6  EFF7  F00E         	goto	u6411
  9658  001DEA  EFF9  F00E         	goto	u6410
  9659  001DEE                     u6411:
  9660  001DEE  EFE4  F00E         	goto	l7224
  9661  001DF2                     u6410:
  9662  001DF2                     l1930:
  9663  001DF2  B023               	btfsc	___xxtofl@exp^0,0,c
  9664  001DF4  EFFE  F00E         	goto	u6421
  9665  001DF8  EF00  F00F         	goto	u6420
  9666  001DFC                     u6421:
  9667  001DFC  EF01  F00F         	goto	l7232
  9668  001E00                     u6420:
  9669  001E00  9E26               	bcf	(___xxtofl@arg+2)^0,7,c
  9670  001E02                     l7232:
  9671  001E02  90D8               	bcf	status,0,c
  9672  001E04  3223               	rrcf	___xxtofl@exp^0,f,c
  9673  001E06  C023  F01E         	movff	___xxtofl@exp,??___xxtofl
  9674  001E0A  6A1F               	clrf	(??___xxtofl+1)^0,c
  9675  001E0C  6A20               	clrf	(??___xxtofl+2)^0,c
  9676  001E0E  6A21               	clrf	(??___xxtofl+3)^0,c
  9677  001E10  C01E  F021         	movff	??___xxtofl,??___xxtofl+3
  9678  001E14  6A20               	clrf	(??___xxtofl+2)^0,c
  9679  001E16  6A1F               	clrf	(??___xxtofl+1)^0,c
  9680  001E18  6A1E               	clrf	??___xxtofl^0,c
  9681  001E1A  501E               	movf	??___xxtofl^0,w,c
  9682  001E1C  1224               	iorwf	___xxtofl@arg^0,f,c
  9683  001E1E  501F               	movf	(??___xxtofl+1)^0,w,c
  9684  001E20  1225               	iorwf	(___xxtofl@arg+1)^0,f,c
  9685  001E22  5020               	movf	(??___xxtofl+2)^0,w,c
  9686  001E24  1226               	iorwf	(___xxtofl@arg+2)^0,f,c
  9687  001E26  5021               	movf	(??___xxtofl+3)^0,w,c
  9688  001E28  1227               	iorwf	(___xxtofl@arg+3)^0,f,c
  9689  001E2A  5022               	movf	___xxtofl@sign^0,w,c
  9690  001E2C  B4D8               	btfsc	status,2,c
  9691  001E2E  EF1B  F00F         	goto	u6431
  9692  001E32  EF1D  F00F         	goto	u6430
  9693  001E36                     u6431:
  9694  001E36  EF25  F00F         	goto	l7242
  9695  001E3A                     u6430:
  9696  001E3A  BE1D               	btfsc	(___xxtofl@val+3)^0,7,c
  9697  001E3C  EF24  F00F         	goto	u6440
  9698  001E40  EF22  F00F         	goto	u6441
  9699  001E44                     u6441:
  9700  001E44  EF25  F00F         	goto	l7242
  9701  001E48                     u6440:
  9702  001E48  8E27               	bsf	(___xxtofl@arg+3)^0,7,c
  9703  001E4A                     l7242:
  9704  001E4A  C024  F01A         	movff	___xxtofl@arg,?___xxtofl
  9705  001E4E  C025  F01B         	movff	___xxtofl@arg+1,?___xxtofl+1
  9706  001E52  C026  F01C         	movff	___xxtofl@arg+2,?___xxtofl+2
  9707  001E56  C027  F01D         	movff	___xxtofl@arg+3,?___xxtofl+3
  9708  001E5A                     l1919:
  9709  001E5A  0012               	return		;funcret
  9710  001E5C                     __end_of___xxtofl:
  9711                           	opt callstack 0
  9712                           
  9713 ;; *************** function ___wmul *****************
  9714 ;; Defined at:
  9715 ;;		line 15 in file "C:\Program Files (x86)\Microchip\xc8\v2.10\pic\sources\c99\common\Umul16.c"
  9716 ;; Parameters:    Size  Location     Type
  9717 ;;  multiplier      2   19[COMRAM] unsigned int 
  9718 ;;  multiplicand    2   21[COMRAM] unsigned int 
  9719 ;; Auto vars:     Size  Location     Type
  9720 ;;  product         2   23[COMRAM] unsigned int 
  9721 ;; Return value:  Size  Location     Type
  9722 ;;                  2   19[COMRAM] unsigned int 
  9723 ;; Registers used:
  9724 ;;		wreg, status,2, status,0, prodl, prodh
  9725 ;; Tracked objects:
  9726 ;;		On entry : 0/0
  9727 ;;		On exit  : 0/0
  9728 ;;		Unchanged: 0/0
  9729 ;; Data sizes:     COMRAM   BANK0   BANK1   BANK2   BANK3   BANK4   BANK5   BANK6   BANK7   BANK8   BANK9  BANK10  BANK1
      +1  BANK12  BANK13  BANK14  BANK15
  9730 ;;      Params:         4       0       0       0       0       0       0       0       0       0       0       0       
      +0       0       0       0       0
  9731 ;;      Locals:         2       0       0       0       0       0       0       0       0       0       0       0       
      +0       0       0       0       0
  9732 ;;      Temps:          0       0       0       0       0       0       0       0       0       0       0       0       
      +0       0       0       0       0
  9733 ;;      Totals:         6       0       0       0       0       0       0       0       0       0       0       0       
      +0       0       0       0       0
  9734 ;;Total ram usage:        6 bytes
  9735 ;; Hardware stack levels used:    1
  9736 ;; Hardware stack levels required when called:    8
  9737 ;; This function calls:
  9738 ;;		Nothing
  9739 ;; This function is called by:
  9740 ;;		_EPWM3_duty_const
  9741 ;;		_EPWM2_duty_const
  9742 ;; This function uses a non-reentrant model
  9743 ;;
  9744                           
  9745                           	psect	text71
  9746  003BF4                     __ptext71:
  9747                           	opt callstack 0
  9748  003BF4                     ___wmul:
  9749                           	opt callstack 17
  9750  003BF4  5014               	movf	___wmul@multiplier^0,w,c
  9751  003BF6  0216               	mulwf	___wmul@multiplicand^0,c
  9752  003BF8  CFF3 F018          	movff	prodl,___wmul@product
  9753  003BFC  CFF4 F019          	movff	prodh,___wmul@product+1
  9754  003C00  5014               	movf	___wmul@multiplier^0,w,c
  9755  003C02  0217               	mulwf	(___wmul@multiplicand+1)^0,c
  9756  003C04  50F3               	movf	243,w,c
  9757  003C06  2619               	addwf	(___wmul@product+1)^0,f,c
  9758  003C08  5015               	movf	(___wmul@multiplier+1)^0,w,c
  9759  003C0A  0216               	mulwf	___wmul@multiplicand^0,c
  9760  003C0C  50F3               	movf	243,w,c
  9761  003C0E  2619               	addwf	(___wmul@product+1)^0,f,c
  9762  003C10  C018  F014         	movff	___wmul@product,?___wmul
  9763  003C14  C019  F015         	movff	___wmul@product+1,?___wmul+1
  9764  003C18  0012               	return		;funcret
  9765  003C1A                     __end_of___wmul:
  9766                           	opt callstack 0
  9767                           
  9768 ;; *************** function ___fldiv *****************
  9769 ;; Defined at:
  9770 ;;		line 11 in file "C:\Program Files (x86)\Microchip\xc8\v2.10\pic\sources\c99\common\sprcdiv.c"
  9771 ;; Parameters:    Size  Location     Type
  9772 ;;  b               4   39[COMRAM] unsigned int 
  9773 ;;  a               4   43[COMRAM] unsigned int 
  9774 ;; Auto vars:     Size  Location     Type
  9775 ;;  grs             4    7[BANK0 ] unsigned long 
  9776 ;;  rem             4    0[BANK0 ] unsigned long 
  9777 ;;  new_exp         2    5[BANK0 ] short 
  9778 ;;  aexp            1   12[BANK0 ] unsigned char 
  9779 ;;  bexp            1   11[BANK0 ] unsigned char 
  9780 ;;  sign            1    4[BANK0 ] unsigned char 
  9781 ;; Return value:  Size  Location     Type
  9782 ;;                  4   39[COMRAM] unsigned char 
  9783 ;; Registers used:
  9784 ;;		wreg, status,2, status,0
  9785 ;; Tracked objects:
  9786 ;;		On entry : 0/0
  9787 ;;		On exit  : 0/0
  9788 ;;		Unchanged: 0/0
  9789 ;; Data sizes:     COMRAM   BANK0   BANK1   BANK2   BANK3   BANK4   BANK5   BANK6   BANK7   BANK8   BANK9  BANK10  BANK1
      +1  BANK12  BANK13  BANK14  BANK15
  9790 ;;      Params:         8       0       0       0       0       0       0       0       0       0       0       0       
      +0       0       0       0       0
  9791 ;;      Locals:         0      13       0       0       0       0       0       0       0       0       0       0       
      +0       0       0       0       0
  9792 ;;      Temps:          4       0       0       0       0       0       0       0       0       0       0       0       
      +0       0       0       0       0
  9793 ;;      Totals:        12      13       0       0       0       0       0       0       0       0       0       0       
      +0       0       0       0       0
  9794 ;;Total ram usage:       25 bytes
  9795 ;; Hardware stack levels used:    1
  9796 ;; Hardware stack levels required when called:    8
  9797 ;; This function calls:
  9798 ;;		Nothing
  9799 ;; This function is called by:
  9800 ;;		_EPWM3_duty_const
  9801 ;;		_EPWM2_duty_const
  9802 ;;		_BH1750_Data_Read
  9803 ;; This function uses a non-reentrant model
  9804 ;;
  9805                           
  9806                           	psect	text72
  9807  001468                     __ptext72:
  9808                           	opt callstack 0
  9809  001468                     ___fldiv:
  9810                           	opt callstack 17
  9811  001468  502B               	movf	(___fldiv@b+3)^0,w,c
  9812  00146A  0B80               	andlw	128
  9813  00146C  0100               	movlb	0	; () banked
  9814  00146E  6FC8               	movwf	___fldiv@sign& (0+255),b
  9815  001470  502B               	movf	(___fldiv@b+3)^0,w,c
  9816  001472  242B               	addwf	(___fldiv@b+3)^0,w,c
  9817  001474  6FCF               	movwf	___fldiv@bexp& (0+255),b
  9818  001476                     
  9819                           ; BSR set to: 0
  9820  001476  AE2A               	btfss	(___fldiv@b+2)^0,7,c
  9821  001478  EF40  F00A         	goto	u6121
  9822  00147C  EF42  F00A         	goto	u6120
  9823  001480                     u6121:
  9824  001480  EF43  F00A         	goto	l7068
  9825  001484                     u6120:
  9826  001484                     
  9827                           ; BSR set to: 0
  9828  001484  81CF               	bsf	___fldiv@bexp& (0+255),0,b
  9829  001486                     l7068:
  9830                           
  9831                           ; BSR set to: 0
  9832  001486  51CF               	movf	___fldiv@bexp& (0+255),w,b
  9833  001488  B4D8               	btfsc	status,2,c
  9834  00148A  EF49  F00A         	goto	u6131
  9835  00148E  EF4B  F00A         	goto	u6130
  9836  001492                     u6131:
  9837  001492  EF60  F00A         	goto	l7078
  9838  001496                     u6130:
  9839  001496                     
  9840                           ; BSR set to: 0
  9841  001496  29CF               	incf	___fldiv@bexp& (0+255),w,b
  9842  001498  A4D8               	btfss	status,2,c
  9843  00149A  EF51  F00A         	goto	u6141
  9844  00149E  EF53  F00A         	goto	u6140
  9845  0014A2                     u6141:
  9846  0014A2  EF5B  F00A         	goto	l7074
  9847  0014A6                     u6140:
  9848  0014A6                     
  9849                           ; BSR set to: 0
  9850  0014A6  0E00               	movlw	0
  9851  0014A8  6E28               	movwf	___fldiv@b^0,c
  9852  0014AA  0E00               	movlw	0
  9853  0014AC  6E29               	movwf	(___fldiv@b+1)^0,c
  9854  0014AE  0E00               	movlw	0
  9855  0014B0  6E2A               	movwf	(___fldiv@b+2)^0,c
  9856  0014B2  0E00               	movlw	0
  9857  0014B4  6E2B               	movwf	(___fldiv@b+3)^0,c
  9858  0014B6                     l7074:
  9859                           
  9860                           ; BSR set to: 0
  9861  0014B6  8E2A               	bsf	(___fldiv@b+2)^0,7,c
  9862  0014B8                     
  9863                           ; BSR set to: 0
  9864  0014B8  0E00               	movlw	0
  9865  0014BA  6E2B               	movwf	(___fldiv@b+3)^0,c
  9866  0014BC  EF68  F00A         	goto	l7080
  9867  0014C0                     l7078:
  9868                           
  9869                           ; BSR set to: 0
  9870  0014C0  0E00               	movlw	0
  9871  0014C2  6E28               	movwf	___fldiv@b^0,c
  9872  0014C4  0E00               	movlw	0
  9873  0014C6  6E29               	movwf	(___fldiv@b+1)^0,c
  9874  0014C8  0E00               	movlw	0
  9875  0014CA  6E2A               	movwf	(___fldiv@b+2)^0,c
  9876  0014CC  0E00               	movlw	0
  9877  0014CE  6E2B               	movwf	(___fldiv@b+3)^0,c
  9878  0014D0                     l7080:
  9879                           
  9880                           ; BSR set to: 0
  9881  0014D0  502F               	movf	(___fldiv@a+3)^0,w,c
  9882  0014D2  0B80               	andlw	128
  9883  0014D4  1BC8               	xorwf	___fldiv@sign& (0+255),f,b
  9884  0014D6                     
  9885                           ; BSR set to: 0
  9886  0014D6  502F               	movf	(___fldiv@a+3)^0,w,c
  9887  0014D8  242F               	addwf	(___fldiv@a+3)^0,w,c
  9888  0014DA  6FD0               	movwf	___fldiv@aexp& (0+255),b
  9889  0014DC                     
  9890                           ; BSR set to: 0
  9891  0014DC  AE2E               	btfss	(___fldiv@a+2)^0,7,c
  9892  0014DE  EF73  F00A         	goto	u6151
  9893  0014E2  EF75  F00A         	goto	u6150
  9894  0014E6                     u6151:
  9895  0014E6  EF76  F00A         	goto	l7088
  9896  0014EA                     u6150:
  9897  0014EA                     
  9898                           ; BSR set to: 0
  9899  0014EA  81D0               	bsf	___fldiv@aexp& (0+255),0,b
  9900  0014EC                     l7088:
  9901                           
  9902                           ; BSR set to: 0
  9903  0014EC  51D0               	movf	___fldiv@aexp& (0+255),w,b
  9904  0014EE  B4D8               	btfsc	status,2,c
  9905  0014F0  EF7C  F00A         	goto	u6161
  9906  0014F4  EF7E  F00A         	goto	u6160
  9907  0014F8                     u6161:
  9908  0014F8  EF93  F00A         	goto	l7098
  9909  0014FC                     u6160:
  9910  0014FC                     
  9911                           ; BSR set to: 0
  9912  0014FC  29D0               	incf	___fldiv@aexp& (0+255),w,b
  9913  0014FE  A4D8               	btfss	status,2,c
  9914  001500  EF84  F00A         	goto	u6171
  9915  001504  EF86  F00A         	goto	u6170
  9916  001508                     u6171:
  9917  001508  EF8E  F00A         	goto	l7094
  9918  00150C                     u6170:
  9919  00150C                     
  9920                           ; BSR set to: 0
  9921  00150C  0E00               	movlw	0
  9922  00150E  6E2C               	movwf	___fldiv@a^0,c
  9923  001510  0E00               	movlw	0
  9924  001512  6E2D               	movwf	(___fldiv@a+1)^0,c
  9925  001514  0E00               	movlw	0
  9926  001516  6E2E               	movwf	(___fldiv@a+2)^0,c
  9927  001518  0E00               	movlw	0
  9928  00151A  6E2F               	movwf	(___fldiv@a+3)^0,c
  9929  00151C                     l7094:
  9930                           
  9931                           ; BSR set to: 0
  9932  00151C  8E2E               	bsf	(___fldiv@a+2)^0,7,c
  9933  00151E                     
  9934                           ; BSR set to: 0
  9935  00151E  0E00               	movlw	0
  9936  001520  6E2F               	movwf	(___fldiv@a+3)^0,c
  9937  001522  EF9B  F00A         	goto	l7100
  9938  001526                     l7098:
  9939                           
  9940                           ; BSR set to: 0
  9941  001526  0E00               	movlw	0
  9942  001528  6E2C               	movwf	___fldiv@a^0,c
  9943  00152A  0E00               	movlw	0
  9944  00152C  6E2D               	movwf	(___fldiv@a+1)^0,c
  9945  00152E  0E00               	movlw	0
  9946  001530  6E2E               	movwf	(___fldiv@a+2)^0,c
  9947  001532  0E00               	movlw	0
  9948  001534  6E2F               	movwf	(___fldiv@a+3)^0,c
  9949  001536                     l7100:
  9950                           
  9951                           ; BSR set to: 0
  9952  001536  502C               	movf	___fldiv@a^0,w,c
  9953  001538  102D               	iorwf	(___fldiv@a+1)^0,w,c
  9954  00153A  102E               	iorwf	(___fldiv@a+2)^0,w,c
  9955  00153C  102F               	iorwf	(___fldiv@a+3)^0,w,c
  9956  00153E  A4D8               	btfss	status,2,c
  9957  001540  EFA4  F00A         	goto	u6181
  9958  001544  EFA6  F00A         	goto	u6180
  9959  001548                     u6181:
  9960  001548  EFBE  F00A         	goto	l7112
  9961  00154C                     u6180:
  9962  00154C                     
  9963                           ; BSR set to: 0
  9964  00154C  0E00               	movlw	0
  9965  00154E  6E28               	movwf	___fldiv@b^0,c
  9966  001550  0E00               	movlw	0
  9967  001552  6E29               	movwf	(___fldiv@b+1)^0,c
  9968  001554  0E00               	movlw	0
  9969  001556  6E2A               	movwf	(___fldiv@b+2)^0,c
  9970  001558  0E00               	movlw	0
  9971  00155A  6E2B               	movwf	(___fldiv@b+3)^0,c
  9972  00155C                     
  9973                           ; BSR set to: 0
  9974  00155C  0E80               	movlw	128
  9975  00155E  122A               	iorwf	(___fldiv@b+2)^0,f,c
  9976  001560  0E7F               	movlw	127
  9977  001562  122B               	iorwf	(___fldiv@b+3)^0,f,c
  9978  001564                     l7106:
  9979                           
  9980                           ; BSR set to: 0
  9981  001564  51C8               	movf	___fldiv@sign& (0+255),w,b
  9982  001566  122B               	iorwf	(___fldiv@b+3)^0,f,c
  9983  001568                     
  9984                           ; BSR set to: 0
  9985  001568  C028  F028         	movff	___fldiv@b,?___fldiv
  9986  00156C  C029  F029         	movff	___fldiv@b+1,?___fldiv+1
  9987  001570  C02A  F02A         	movff	___fldiv@b+2,?___fldiv+2
  9988  001574  C02B  F02B         	movff	___fldiv@b+3,?___fldiv+3
  9989  001578  EF01  F00C         	goto	l1843
  9990  00157C                     l7112:
  9991                           
  9992                           ; BSR set to: 0
  9993  00157C  51CF               	movf	___fldiv@bexp& (0+255),w,b
  9994  00157E  A4D8               	btfss	status,2,c
  9995  001580  EFC4  F00A         	goto	u6191
  9996  001584  EFC6  F00A         	goto	u6190
  9997  001588                     u6191:
  9998  001588  EFD0  F00A         	goto	l7120
  9999  00158C                     u6190:
 10000  00158C                     
 10001                           ; BSR set to: 0
 10002  00158C  0E00               	movlw	0
 10003  00158E  6E28               	movwf	?___fldiv^0,c
 10004  001590  0E00               	movlw	0
 10005  001592  6E29               	movwf	(?___fldiv+1)^0,c
 10006  001594  0E00               	movlw	0
 10007  001596  6E2A               	movwf	(?___fldiv+2)^0,c
 10008  001598  0E00               	movlw	0
 10009  00159A  6E2B               	movwf	(?___fldiv+3)^0,c
 10010  00159C  EF01  F00C         	goto	l1843
 10011  0015A0                     l7120:
 10012                           
 10013                           ; BSR set to: 0
 10014  0015A0  51D0               	movf	___fldiv@aexp& (0+255),w,b
 10015  0015A2  C0CF  F030         	movff	___fldiv@bexp,??___fldiv
 10016  0015A6  6A31               	clrf	(??___fldiv+1)^0,c
 10017  0015A8  5E30               	subwf	??___fldiv^0,f,c
 10018  0015AA  0E00               	movlw	0
 10019  0015AC  5A31               	subwfb	(??___fldiv+1)^0,f,c
 10020  0015AE  0E7F               	movlw	127
 10021  0015B0  2430               	addwf	??___fldiv^0,w,c
 10022  0015B2  6FC9               	movwf	___fldiv@new_exp& (0+255),b
 10023  0015B4  0E00               	movlw	0
 10024  0015B6  2031               	addwfc	(??___fldiv+1)^0,w,c
 10025  0015B8  6FCA               	movwf	(___fldiv@new_exp+1)& (0+255),b
 10026  0015BA                     
 10027                           ; BSR set to: 0
 10028  0015BA  C028  F0C4         	movff	___fldiv@b,___fldiv@rem
 10029  0015BE  C029  F0C5         	movff	___fldiv@b+1,___fldiv@rem+1
 10030  0015C2  C02A  F0C6         	movff	___fldiv@b+2,___fldiv@rem+2
 10031  0015C6  C02B  F0C7         	movff	___fldiv@b+3,___fldiv@rem+3
 10032  0015CA                     
 10033                           ; BSR set to: 0
 10034  0015CA  0E00               	movlw	0
 10035  0015CC  6E28               	movwf	___fldiv@b^0,c
 10036  0015CE  0E00               	movlw	0
 10037  0015D0  6E29               	movwf	(___fldiv@b+1)^0,c
 10038  0015D2  0E00               	movlw	0
 10039  0015D4  6E2A               	movwf	(___fldiv@b+2)^0,c
 10040  0015D6  0E00               	movlw	0
 10041  0015D8  6E2B               	movwf	(___fldiv@b+3)^0,c
 10042  0015DA                     
 10043                           ; BSR set to: 0
 10044  0015DA  0E00               	movlw	0
 10045  0015DC  6FCB               	movwf	___fldiv@grs& (0+255),b
 10046  0015DE  0E00               	movlw	0
 10047  0015E0  6FCC               	movwf	(___fldiv@grs+1)& (0+255),b
 10048  0015E2  0E00               	movlw	0
 10049  0015E4  6FCD               	movwf	(___fldiv@grs+2)& (0+255),b
 10050  0015E6  0E00               	movlw	0
 10051  0015E8  6FCE               	movwf	(___fldiv@grs+3)& (0+255),b
 10052  0015EA                     
 10053                           ; BSR set to: 0
 10054  0015EA  0E00               	movlw	0
 10055  0015EC  6FD0               	movwf	___fldiv@aexp& (0+255),b
 10056  0015EE  EF31  F00B         	goto	l1845
 10057  0015F2                     l7130:
 10058                           
 10059                           ; BSR set to: 0
 10060  0015F2  51D0               	movf	___fldiv@aexp& (0+255),w,b
 10061  0015F4  B4D8               	btfsc	status,2,c
 10062  0015F6  EFFF  F00A         	goto	u6201
 10063  0015FA  EF01  F00B         	goto	u6200
 10064  0015FE                     u6201:
 10065  0015FE  EF18  F00B         	goto	l7138
 10066  001602                     u6200:
 10067  001602                     
 10068                           ; BSR set to: 0
 10069  001602  90D8               	bcf	status,0,c
 10070  001604  37C4               	rlcf	___fldiv@rem& (0+255),f,b
 10071  001606  37C5               	rlcf	(___fldiv@rem+1)& (0+255),f,b
 10072  001608  37C6               	rlcf	(___fldiv@rem+2)& (0+255),f,b
 10073  00160A  37C7               	rlcf	(___fldiv@rem+3)& (0+255),f,b
 10074  00160C  90D8               	bcf	status,0,c
 10075  00160E  3628               	rlcf	___fldiv@b^0,f,c
 10076  001610  3629               	rlcf	(___fldiv@b+1)^0,f,c
 10077  001612  362A               	rlcf	(___fldiv@b+2)^0,f,c
 10078  001614  362B               	rlcf	(___fldiv@b+3)^0,f,c
 10079  001616                     
 10080                           ; BSR set to: 0
 10081  001616  AFCE               	btfss	(___fldiv@grs+3)& (0+255),7,b
 10082  001618  EF10  F00B         	goto	u6211
 10083  00161C  EF12  F00B         	goto	u6210
 10084  001620                     u6211:
 10085  001620  EF13  F00B         	goto	l1848
 10086  001624                     u6210:
 10087  001624                     
 10088                           ; BSR set to: 0
 10089  001624  8028               	bsf	___fldiv@b^0,0,c
 10090  001626                     l1848:
 10091                           
 10092                           ; BSR set to: 0
 10093  001626  90D8               	bcf	status,0,c
 10094  001628  37CB               	rlcf	___fldiv@grs& (0+255),f,b
 10095  00162A  37CC               	rlcf	(___fldiv@grs+1)& (0+255),f,b
 10096  00162C  37CD               	rlcf	(___fldiv@grs+2)& (0+255),f,b
 10097  00162E  37CE               	rlcf	(___fldiv@grs+3)& (0+255),f,b
 10098  001630                     l7138:
 10099                           
 10100                           ; BSR set to: 0
 10101  001630  502C               	movf	___fldiv@a^0,w,c
 10102  001632  5DC4               	subwf	___fldiv@rem& (0+255),w,b
 10103  001634  502D               	movf	(___fldiv@a+1)^0,w,c
 10104  001636  59C5               	subwfb	(___fldiv@rem+1)& (0+255),w,b
 10105  001638  502E               	movf	(___fldiv@a+2)^0,w,c
 10106  00163A  59C6               	subwfb	(___fldiv@rem+2)& (0+255),w,b
 10107  00163C  502F               	movf	(___fldiv@a+3)^0,w,c
 10108  00163E  59C7               	subwfb	(___fldiv@rem+3)& (0+255),w,b
 10109  001640  A0D8               	btfss	status,0,c
 10110  001642  EF25  F00B         	goto	u6221
 10111  001646  EF27  F00B         	goto	u6220
 10112  00164A                     u6221:
 10113  00164A  EF30  F00B         	goto	l7144
 10114  00164E                     u6220:
 10115  00164E                     
 10116                           ; BSR set to: 0
 10117  00164E  8DCE               	bsf	(___fldiv@grs+3)& (0+255),6,b
 10118  001650                     
 10119                           ; BSR set to: 0
 10120  001650  502C               	movf	___fldiv@a^0,w,c
 10121  001652  5FC4               	subwf	___fldiv@rem& (0+255),f,b
 10122  001654  502D               	movf	(___fldiv@a+1)^0,w,c
 10123  001656  5BC5               	subwfb	(___fldiv@rem+1)& (0+255),f,b
 10124  001658  502E               	movf	(___fldiv@a+2)^0,w,c
 10125  00165A  5BC6               	subwfb	(___fldiv@rem+2)& (0+255),f,b
 10126  00165C  502F               	movf	(___fldiv@a+3)^0,w,c
 10127  00165E  5BC7               	subwfb	(___fldiv@rem+3)& (0+255),f,b
 10128  001660                     l7144:
 10129                           
 10130                           ; BSR set to: 0
 10131  001660  2BD0               	incf	___fldiv@aexp& (0+255),f,b
 10132  001662                     l1845:
 10133                           
 10134                           ; BSR set to: 0
 10135  001662  0E19               	movlw	25
 10136  001664  65D0               	cpfsgt	___fldiv@aexp& (0+255),b
 10137  001666  EF37  F00B         	goto	u6231
 10138  00166A  EF39  F00B         	goto	u6230
 10139  00166E                     u6231:
 10140  00166E  EFF9  F00A         	goto	l7130
 10141  001672                     u6230:
 10142  001672                     
 10143                           ; BSR set to: 0
 10144  001672  51C4               	movf	___fldiv@rem& (0+255),w,b
 10145  001674  11C5               	iorwf	(___fldiv@rem+1)& (0+255),w,b
 10146  001676  11C6               	iorwf	(___fldiv@rem+2)& (0+255),w,b
 10147  001678  11C7               	iorwf	(___fldiv@rem+3)& (0+255),w,b
 10148  00167A  B4D8               	btfsc	status,2,c
 10149  00167C  EF42  F00B         	goto	u6241
 10150  001680  EF44  F00B         	goto	u6240
 10151  001684                     u6241:
 10152  001684  EF5C  F00B         	goto	l7156
 10153  001688                     u6240:
 10154  001688                     
 10155                           ; BSR set to: 0
 10156  001688  81CB               	bsf	___fldiv@grs& (0+255),0,b
 10157  00168A  EF5C  F00B         	goto	l7156
 10158  00168E                     l7150:
 10159                           
 10160                           ; BSR set to: 0
 10161  00168E  90D8               	bcf	status,0,c
 10162  001690  3628               	rlcf	___fldiv@b^0,f,c
 10163  001692  3629               	rlcf	(___fldiv@b+1)^0,f,c
 10164  001694  362A               	rlcf	(___fldiv@b+2)^0,f,c
 10165  001696  362B               	rlcf	(___fldiv@b+3)^0,f,c
 10166  001698                     
 10167                           ; BSR set to: 0
 10168  001698  AFCE               	btfss	(___fldiv@grs+3)& (0+255),7,b
 10169  00169A  EF51  F00B         	goto	u6251
 10170  00169E  EF53  F00B         	goto	u6250
 10171  0016A2                     u6251:
 10172  0016A2  EF54  F00B         	goto	l1854
 10173  0016A6                     u6250:
 10174  0016A6                     
 10175                           ; BSR set to: 0
 10176  0016A6  8028               	bsf	___fldiv@b^0,0,c
 10177  0016A8                     l1854:
 10178                           
 10179                           ; BSR set to: 0
 10180  0016A8  90D8               	bcf	status,0,c
 10181  0016AA  37CB               	rlcf	___fldiv@grs& (0+255),f,b
 10182  0016AC  37CC               	rlcf	(___fldiv@grs+1)& (0+255),f,b
 10183  0016AE  37CD               	rlcf	(___fldiv@grs+2)& (0+255),f,b
 10184  0016B0  37CE               	rlcf	(___fldiv@grs+3)& (0+255),f,b
 10185  0016B2  07C9               	decf	___fldiv@new_exp& (0+255),f,b
 10186  0016B4  A0D8               	btfss	status,0,c
 10187  0016B6  07CA               	decf	(___fldiv@new_exp+1)& (0+255),f,b
 10188  0016B8                     l7156:
 10189                           
 10190                           ; BSR set to: 0
 10191  0016B8  AE2A               	btfss	(___fldiv@b+2)^0,7,c
 10192  0016BA  EF61  F00B         	goto	u6261
 10193  0016BE  EF63  F00B         	goto	u6260
 10194  0016C2                     u6261:
 10195  0016C2  EF47  F00B         	goto	l7150
 10196  0016C6                     u6260:
 10197  0016C6                     
 10198                           ; BSR set to: 0
 10199  0016C6  0E00               	movlw	0
 10200  0016C8  6FD0               	movwf	___fldiv@aexp& (0+255),b
 10201  0016CA                     
 10202                           ; BSR set to: 0
 10203  0016CA  AFCE               	btfss	(___fldiv@grs+3)& (0+255),7,b
 10204  0016CC  EF6A  F00B         	goto	u6271
 10205  0016D0  EF6C  F00B         	goto	u6270
 10206  0016D4                     u6271:
 10207  0016D4  EF90  F00B         	goto	l1856
 10208  0016D8                     u6270:
 10209  0016D8                     
 10210                           ; BSR set to: 0
 10211  0016D8  0EFF               	movlw	255
 10212  0016DA  15CB               	andwf	___fldiv@grs& (0+255),w,b
 10213  0016DC  6E30               	movwf	??___fldiv^0,c
 10214  0016DE  0EFF               	movlw	255
 10215  0016E0  15CC               	andwf	(___fldiv@grs+1)& (0+255),w,b
 10216  0016E2  6E31               	movwf	(??___fldiv+1)^0,c
 10217  0016E4  0EFF               	movlw	255
 10218  0016E6  15CD               	andwf	(___fldiv@grs+2)& (0+255),w,b
 10219  0016E8  6E32               	movwf	(??___fldiv+2)^0,c
 10220  0016EA  0E7F               	movlw	127
 10221  0016EC  15CE               	andwf	(___fldiv@grs+3)& (0+255),w,b
 10222  0016EE  6E33               	movwf	(??___fldiv+3)^0,c
 10223  0016F0  5030               	movf	??___fldiv^0,w,c
 10224  0016F2  1031               	iorwf	(??___fldiv+1)^0,w,c
 10225  0016F4  1032               	iorwf	(??___fldiv+2)^0,w,c
 10226  0016F6  1033               	iorwf	(??___fldiv+3)^0,w,c
 10227  0016F8  B4D8               	btfsc	status,2,c
 10228  0016FA  EF81  F00B         	goto	u6281
 10229  0016FE  EF83  F00B         	goto	u6280
 10230  001702                     u6281:
 10231  001702  EF87  F00B         	goto	l1857
 10232  001706                     u6280:
 10233  001706                     l7164:
 10234                           
 10235                           ; BSR set to: 0
 10236  001706  0E01               	movlw	1
 10237  001708  6FD0               	movwf	___fldiv@aexp& (0+255),b
 10238  00170A  EF90  F00B         	goto	l1856
 10239  00170E                     l1857:
 10240                           
 10241                           ; BSR set to: 0
 10242  00170E  A028               	btfss	___fldiv@b^0,0,c
 10243  001710  EF8C  F00B         	goto	u6291
 10244  001714  EF8E  F00B         	goto	u6290
 10245  001718                     u6291:
 10246  001718  EF90  F00B         	goto	l1856
 10247  00171C                     u6290:
 10248  00171C  EF83  F00B         	goto	l7164
 10249  001720                     l1856:
 10250                           
 10251                           ; BSR set to: 0
 10252  001720  51D0               	movf	___fldiv@aexp& (0+255),w,b
 10253  001722  B4D8               	btfsc	status,2,c
 10254  001724  EF96  F00B         	goto	u6301
 10255  001728  EF98  F00B         	goto	u6300
 10256  00172C                     u6301:
 10257  00172C  EFBC  F00B         	goto	l7176
 10258  001730                     u6300:
 10259  001730                     
 10260                           ; BSR set to: 0
 10261  001730  0E01               	movlw	1
 10262  001732  2628               	addwf	___fldiv@b^0,f,c
 10263  001734  0E00               	movlw	0
 10264  001736  2229               	addwfc	(___fldiv@b+1)^0,f,c
 10265  001738  222A               	addwfc	(___fldiv@b+2)^0,f,c
 10266  00173A  222B               	addwfc	(___fldiv@b+3)^0,f,c
 10267  00173C                     
 10268                           ; BSR set to: 0
 10269  00173C  A02B               	btfss	(___fldiv@b+3)^0,0,c
 10270  00173E  EFA3  F00B         	goto	u6311
 10271  001742  EFA5  F00B         	goto	u6310
 10272  001746                     u6311:
 10273  001746  EFBC  F00B         	goto	l7176
 10274  00174A                     u6310:
 10275  00174A                     
 10276                           ; BSR set to: 0
 10277  00174A  C028  F030         	movff	___fldiv@b,??___fldiv
 10278  00174E  C029  F031         	movff	___fldiv@b+1,??___fldiv+1
 10279  001752  C02A  F032         	movff	___fldiv@b+2,??___fldiv+2
 10280  001756  C02B  F033         	movff	___fldiv@b+3,??___fldiv+3
 10281  00175A  3433               	rlcf	(??___fldiv+3)^0,w,c
 10282  00175C  3233               	rrcf	(??___fldiv+3)^0,f,c
 10283  00175E  3232               	rrcf	(??___fldiv+2)^0,f,c
 10284  001760  3231               	rrcf	(??___fldiv+1)^0,f,c
 10285  001762  3230               	rrcf	??___fldiv^0,f,c
 10286  001764  C030  F028         	movff	??___fldiv,___fldiv@b
 10287  001768  C031  F029         	movff	??___fldiv+1,___fldiv@b+1
 10288  00176C  C032  F02A         	movff	??___fldiv+2,___fldiv@b+2
 10289  001770  C033  F02B         	movff	??___fldiv+3,___fldiv@b+3
 10290  001774                     
 10291                           ; BSR set to: 0
 10292  001774  4BC9               	infsnz	___fldiv@new_exp& (0+255),f,b
 10293  001776  2BCA               	incf	(___fldiv@new_exp+1)& (0+255),f,b
 10294  001778                     l7176:
 10295                           
 10296                           ; BSR set to: 0
 10297  001778  BFCA               	btfsc	(___fldiv@new_exp+1)& (0+255),7,b
 10298  00177A  EFC7  F00B         	goto	u6321
 10299  00177E  51CA               	movf	(___fldiv@new_exp+1)& (0+255),w,b
 10300  001780  E108               	bnz	u6320
 10301  001782  29C9               	incf	___fldiv@new_exp& (0+255),w,b
 10302  001784  A0D8               	btfss	status,0,c
 10303  001786  EFC7  F00B         	goto	u6321
 10304  00178A  EFC9  F00B         	goto	u6320
 10305  00178E                     u6321:
 10306  00178E  EFD4  F00B         	goto	l7180
 10307  001792                     u6320:
 10308  001792                     
 10309                           ; BSR set to: 0
 10310  001792  0E00               	movlw	0
 10311  001794  6FCA               	movwf	(___fldiv@new_exp+1)& (0+255),b
 10312  001796  69C9               	setf	___fldiv@new_exp& (0+255),b
 10313  001798  0E00               	movlw	0
 10314  00179A  6E28               	movwf	___fldiv@b^0,c
 10315  00179C  0E00               	movlw	0
 10316  00179E  6E29               	movwf	(___fldiv@b+1)^0,c
 10317  0017A0  0E00               	movlw	0
 10318  0017A2  6E2A               	movwf	(___fldiv@b+2)^0,c
 10319  0017A4  0E00               	movlw	0
 10320  0017A6  6E2B               	movwf	(___fldiv@b+3)^0,c
 10321  0017A8                     l7180:
 10322                           
 10323                           ; BSR set to: 0
 10324  0017A8  BFCA               	btfsc	(___fldiv@new_exp+1)& (0+255),7,b
 10325  0017AA  EFE1  F00B         	goto	u6330
 10326  0017AE  51CA               	movf	(___fldiv@new_exp+1)& (0+255),w,b
 10327  0017B0  E106               	bnz	u6331
 10328  0017B2  05C9               	decf	___fldiv@new_exp& (0+255),w,b
 10329  0017B4  B0D8               	btfsc	status,0,c
 10330  0017B6  EFDF  F00B         	goto	u6331
 10331  0017BA  EFE1  F00B         	goto	u6330
 10332  0017BE                     u6331:
 10333  0017BE  EFEF  F00B         	goto	l7184
 10334  0017C2                     u6330:
 10335  0017C2                     
 10336                           ; BSR set to: 0
 10337  0017C2  0E00               	movlw	0
 10338  0017C4  6FCA               	movwf	(___fldiv@new_exp+1)& (0+255),b
 10339  0017C6  0E00               	movlw	0
 10340  0017C8  6FC9               	movwf	___fldiv@new_exp& (0+255),b
 10341  0017CA  0E00               	movlw	0
 10342  0017CC  6E28               	movwf	___fldiv@b^0,c
 10343  0017CE  0E00               	movlw	0
 10344  0017D0  6E29               	movwf	(___fldiv@b+1)^0,c
 10345  0017D2  0E00               	movlw	0
 10346  0017D4  6E2A               	movwf	(___fldiv@b+2)^0,c
 10347  0017D6  0E00               	movlw	0
 10348  0017D8  6E2B               	movwf	(___fldiv@b+3)^0,c
 10349  0017DA  0E00               	movlw	0
 10350  0017DC  6FC8               	movwf	___fldiv@sign& (0+255),b
 10351  0017DE                     l7184:
 10352                           
 10353                           ; BSR set to: 0
 10354  0017DE  C0C9  F0CF         	movff	___fldiv@new_exp,___fldiv@bexp
 10355  0017E2                     
 10356                           ; BSR set to: 0
 10357  0017E2  A1CF               	btfss	___fldiv@bexp& (0+255),0,b
 10358  0017E4  EFF6  F00B         	goto	u6341
 10359  0017E8  EFF8  F00B         	goto	u6340
 10360  0017EC                     u6341:
 10361  0017EC  EFFB  F00B         	goto	l7190
 10362  0017F0                     u6340:
 10363  0017F0                     
 10364                           ; BSR set to: 0
 10365  0017F0  8E2A               	bsf	(___fldiv@b+2)^0,7,c
 10366  0017F2  EFFC  F00B         	goto	l7192
 10367  0017F6                     l7190:
 10368                           
 10369                           ; BSR set to: 0
 10370  0017F6  9E2A               	bcf	(___fldiv@b+2)^0,7,c
 10371  0017F8                     l7192:
 10372                           
 10373                           ; BSR set to: 0
 10374  0017F8  90D8               	bcf	status,0,c
 10375  0017FA  31CF               	rrcf	___fldiv@bexp& (0+255),w,b
 10376  0017FC  6E2B               	movwf	(___fldiv@b+3)^0,c
 10377  0017FE  EFB2  F00A         	goto	l7106
 10378  001802                     l1843:
 10379                           
 10380                           ; BSR set to: 0
 10381  001802  0012               	return		;funcret
 10382  001804                     __end_of___fldiv:
 10383                           	opt callstack 0
 10384                           
 10385 ;; *************** function _ADC_Initialize *****************
 10386 ;; Defined at:
 10387 ;;		line 12 in file "mcc_generated_files/adc.c"
 10388 ;; Parameters:    Size  Location     Type
 10389 ;;		None
 10390 ;; Auto vars:     Size  Location     Type
 10391 ;;		None
 10392 ;; Return value:  Size  Location     Type
 10393 ;;                  1    wreg      void 
 10394 ;; Registers used:
 10395 ;;		wreg, status,2, status,0
 10396 ;; Tracked objects:
 10397 ;;		On entry : 0/0
 10398 ;;		On exit  : 0/0
 10399 ;;		Unchanged: 0/0
 10400 ;; Data sizes:     COMRAM   BANK0   BANK1   BANK2   BANK3   BANK4   BANK5   BANK6   BANK7   BANK8   BANK9  BANK10  BANK1
      +1  BANK12  BANK13  BANK14  BANK15
 10401 ;;      Params:         0       0       0       0       0       0       0       0       0       0       0       0       
      +0       0       0       0       0
 10402 ;;      Locals:         0       0       0       0       0       0       0       0       0       0       0       0       
      +0       0       0       0       0
 10403 ;;      Temps:          0       0       0       0       0       0       0       0       0       0       0       0       
      +0       0       0       0       0
 10404 ;;      Totals:         0       0       0       0       0       0       0       0       0       0       0       0       
      +0       0       0       0       0
 10405 ;;Total ram usage:        0 bytes
 10406 ;; Hardware stack levels used:    1
 10407 ;; Hardware stack levels required when called:    8
 10408 ;; This function calls:
 10409 ;;		Nothing
 10410 ;; This function is called by:
 10411 ;;		_SYSTEM_Initialize
 10412 ;; This function uses a non-reentrant model
 10413 ;;
 10414                           
 10415                           	psect	text73
 10416  003C3E                     __ptext73:
 10417                           	opt callstack 0
 10418  003C3E                     _ADC_Initialize:
 10419                           	opt callstack 21
 10420  003C3E                     
 10421                           ;mcc_generated_files/adc.c: 13:     TRISA |= 0x07;
 10422  003C3E  0E07               	movlw	7
 10423  003C40  1292               	iorwf	146,f,c	;volatile
 10424                           
 10425                           ;mcc_generated_files/adc.c: 14:     ANSELA |= 0x07;
 10426  003C42  0E07               	movlw	7
 10427  003C44  010F               	movlb	15	; () banked
 10428  003C46  1338               	iorwf	56,f,b	;volatile
 10429  003C48                     
 10430                           ; BSR set to: 15
 10431                           ;mcc_generated_files/adc.c: 15:     ADCON0 = 0x05;
 10432  003C48  0E05               	movlw	5
 10433  003C4A  6EC2               	movwf	194,c	;volatile
 10434  003C4C                     
 10435                           ; BSR set to: 15
 10436                           ;mcc_generated_files/adc.c: 16:     ADCON1 = 0x00;
 10437  003C4C  0E00               	movlw	0
 10438  003C4E  6EC1               	movwf	193,c	;volatile
 10439  003C50                     
 10440                           ; BSR set to: 15
 10441                           ;mcc_generated_files/adc.c: 17:     ADCON2 = 0x96;
 10442  003C50  0E96               	movlw	150
 10443  003C52  6EC0               	movwf	192,c	;volatile
 10444  003C54                     
 10445                           ; BSR set to: 15
 10446                           ;mcc_generated_files/adc.c: 18:     ADRESL = 0x00;
 10447  003C54  0E00               	movlw	0
 10448  003C56  6EC3               	movwf	195,c	;volatile
 10449  003C58                     
 10450                           ; BSR set to: 15
 10451                           ;mcc_generated_files/adc.c: 19:     ADRESH = 0x00;
 10452  003C58  0E00               	movlw	0
 10453  003C5A  6EC4               	movwf	196,c	;volatile
 10454  003C5C                     
 10455                           ; BSR set to: 15
 10456  003C5C  0012               	return		;funcret
 10457  003C5E                     __end_of_ADC_Initialize:
 10458                           	opt callstack 0
 10459                           
 10460 ;; *************** function _INTERRUPT_InterruptManagerLow *****************
 10461 ;; Defined at:
 10462 ;;		line 96 in file "mcc_generated_files/interrupt_manager.c"
 10463 ;; Parameters:    Size  Location     Type
 10464 ;;		None
 10465 ;; Auto vars:     Size  Location     Type
 10466 ;;		None
 10467 ;; Return value:  Size  Location     Type
 10468 ;;                  1    wreg      void 
 10469 ;; Registers used:
 10470 ;;		wreg, fsr2l, fsr2h, status,2, status,0, pclath, tosl, cstack
 10471 ;; Tracked objects:
 10472 ;;		On entry : 0/0
 10473 ;;		On exit  : 0/0
 10474 ;;		Unchanged: 0/0
 10475 ;; Data sizes:     COMRAM   BANK0   BANK1   BANK2   BANK3   BANK4   BANK5   BANK6   BANK7   BANK8   BANK9  BANK10  BANK1
      +1  BANK12  BANK13  BANK14  BANK15
 10476 ;;      Params:         0       0       0       0       0       0       0       0       0       0       0       0       
      +0       0       0       0       0
 10477 ;;      Locals:         0       0       0       0       0       0       0       0       0       0       0       0       
      +0       0       0       0       0
 10478 ;;      Temps:          7       0       0       0       0       0       0       0       0       0       0       0       
      +0       0       0       0       0
 10479 ;;      Totals:         7       0       0       0       0       0       0       0       0       0       0       0       
      +0       0       0       0       0
 10480 ;;Total ram usage:        7 bytes
 10481 ;; Hardware stack levels used:    1
 10482 ;; Hardware stack levels required when called:    7
 10483 ;; This function calls:
 10484 ;;		Absolute function
 10485 ;;		_EUSART1_Transmit_ISR
 10486 ;;		_INT2_ISR
 10487 ;;		_TMR1_ISR
 10488 ;;		_TMR3_ISR
 10489 ;; This function is called by:
 10490 ;;		Interrupt level 1
 10491 ;; This function uses a non-reentrant model
 10492 ;;
 10493                           
 10494                           	psect	intcodelo
 10495  000018                     __pintcodelo:
 10496                           	opt callstack 0
 10497  000018                     _INTERRUPT_InterruptManagerLow:
 10498                           	opt callstack 11
 10499                           
 10500                           ; BSR set to: 15
 10501                           ;incstack = 0
 10502  000018  804C               	bsf	int$flags,0,c	;set compiler interrupt flag (level 1)
 10503  00001A  CFD8 F00D          	movff	status,??_INTERRUPT_InterruptManagerLow
 10504  00001E  CFE8 F00E          	movff	wreg,??_INTERRUPT_InterruptManagerLow+1
 10505  000022  CFE0 F00F          	movff	bsr,??_INTERRUPT_InterruptManagerLow+2
 10506  000026  CFFA F010          	movff	pclath,??_INTERRUPT_InterruptManagerLow+3
 10507  00002A  CFFB F011          	movff	pclatu,??_INTERRUPT_InterruptManagerLow+4
 10508  00002E  CFD9 F012          	movff	fsr2l,??_INTERRUPT_InterruptManagerLow+5
 10509  000032  CFDA F013          	movff	fsr2h,??_INTERRUPT_InterruptManagerLow+6
 10510  000036                     
 10511                           ;mcc_generated_files/interrupt_manager.c: 97:     if (INTCON3bits.INT2IE == 1 && INTCON3
      +                          bits.INT2IF == 1) {
 10512  000036  A8F0               	btfss	240,4,c	;volatile
 10513  000038  EF20  F000         	goto	i1u513_21
 10514  00003C  EF22  F000         	goto	i1u513_20
 10515  000040                     i1u513_21:
 10516  000040  EF2D  F000         	goto	i1l662
 10517  000044                     i1u513_20:
 10518  000044  A2F0               	btfss	240,1,c	;volatile
 10519  000046  EF27  F000         	goto	i1u514_21
 10520  00004A  EF29  F000         	goto	i1u514_20
 10521  00004E                     i1u514_21:
 10522  00004E  EF2D  F000         	goto	i1l662
 10523  000052                     i1u514_20:
 10524  000052                     
 10525                           ;mcc_generated_files/interrupt_manager.c: 98:         INT2_ISR();
 10526  000052  EC2F  F01E         	call	_INT2_ISR	;wreg free
 10527                           
 10528                           ;mcc_generated_files/interrupt_manager.c: 99:     } else if (PIE1bits.TX1IE == 1 && PIR1
      +                          bits.TX1IF == 1) {
 10529  000056  EF6E  F000         	goto	i1l669
 10530  00005A                     i1l662:
 10531  00005A  A89D               	btfss	157,4,c	;volatile
 10532  00005C  EF32  F000         	goto	i1u515_21
 10533  000060  EF34  F000         	goto	i1u515_20
 10534  000064                     i1u515_21:
 10535  000064  EF4A  F000         	goto	i1l664
 10536  000068                     i1u515_20:
 10537  000068  A89E               	btfss	158,4,c	;volatile
 10538  00006A  EF39  F000         	goto	i1u516_21
 10539  00006E  EF3B  F000         	goto	i1u516_20
 10540  000072                     i1u516_21:
 10541  000072  EF4A  F000         	goto	i1l664
 10542  000076                     i1u516_20:
 10543  000076                     
 10544                           ;mcc_generated_files/interrupt_manager.c: 100:         EUSART1_TxDefaultInterruptHandler
      +                          ();
 10545  000076  D802               	call	i1u517_28
 10546  000078  EF48  F000         	goto	i1u517_29
 10547  00007C                     i1u517_28:
 10548  00007C  0005               	push	
 10549  00007E  6EFA               	movwf	pclath,c
 10550  000080  0100               	movlb	0	; () banked
 10551  000082  51B6               	movf	_EUSART1_TxDefaultInterruptHandler& (0+255),w,b
 10552  000084  6EFD               	movwf	tosl,c
 10553  000086  51B7               	movf	(_EUSART1_TxDefaultInterruptHandler+1)& (0+255),w,b
 10554  000088  6EFE               	movwf	tosh,c
 10555  00008A  6AFF               	clrf	tosu,c
 10556  00008C  50FA               	movf	pclath,w,c
 10557  00008E  0012               	return		;indir
 10558  000090                     i1u517_29:
 10559                           
 10560                           ;mcc_generated_files/interrupt_manager.c: 101:     } else if (PIE2bits.TMR3IE == 1 && PI
      +                          R2bits.TMR3IF == 1) {
 10561  000090  EF6E  F000         	goto	i1l669
 10562  000094                     i1l664:
 10563  000094  A2A0               	btfss	160,1,c	;volatile
 10564  000096  EF4F  F000         	goto	i1u518_21
 10565  00009A  EF51  F000         	goto	i1u518_20
 10566  00009E                     i1u518_21:
 10567  00009E  EF5C  F000         	goto	i1l666
 10568  0000A2                     i1u518_20:
 10569  0000A2  A2A1               	btfss	161,1,c	;volatile
 10570  0000A4  EF56  F000         	goto	i1u519_21
 10571  0000A8  EF58  F000         	goto	i1u519_20
 10572  0000AC                     i1u519_21:
 10573  0000AC  EF5C  F000         	goto	i1l666
 10574  0000B0                     i1u519_20:
 10575  0000B0                     
 10576                           ;mcc_generated_files/interrupt_manager.c: 102:         TMR3_ISR();
 10577  0000B0  ECE1  F01E         	call	_TMR3_ISR	;wreg free
 10578                           
 10579                           ;mcc_generated_files/interrupt_manager.c: 103:     } else if (PIE1bits.TMR1IE == 1 && PI
      +                          R1bits.TMR1IF == 1) {
 10580  0000B4  EF6E  F000         	goto	i1l669
 10581  0000B8                     i1l666:
 10582  0000B8  A09D               	btfss	157,0,c	;volatile
 10583  0000BA  EF61  F000         	goto	i1u520_21
 10584  0000BE  EF63  F000         	goto	i1u520_20
 10585  0000C2                     i1u520_21:
 10586  0000C2  EF6E  F000         	goto	i1l663
 10587  0000C6                     i1u520_20:
 10588  0000C6  A09E               	btfss	158,0,c	;volatile
 10589  0000C8  EF68  F000         	goto	i1u521_21
 10590  0000CC  EF6A  F000         	goto	i1u521_20
 10591  0000D0                     i1u521_21:
 10592  0000D0  EF6E  F000         	goto	i1l663
 10593  0000D4                     i1u521_20:
 10594  0000D4                     
 10595                           ;mcc_generated_files/interrupt_manager.c: 104:         TMR1_ISR();
 10596  0000D4  ECE5  F01E         	call	_TMR1_ISR	;wreg free
 10597  0000D8  EF6E  F000         	goto	i1l669
 10598  0000DC                     i1l663:
 10599  0000DC                     i1l669:
 10600  0000DC  C013  FFDA         	movff	??_INTERRUPT_InterruptManagerLow+6,fsr2h
 10601  0000E0  C012  FFD9         	movff	??_INTERRUPT_InterruptManagerLow+5,fsr2l
 10602  0000E4  C011  FFFB         	movff	??_INTERRUPT_InterruptManagerLow+4,pclatu
 10603  0000E8  C010  FFFA         	movff	??_INTERRUPT_InterruptManagerLow+3,pclath
 10604  0000EC  C00F  FFE0         	movff	??_INTERRUPT_InterruptManagerLow+2,bsr
 10605  0000F0  C00E  FFE8         	movff	??_INTERRUPT_InterruptManagerLow+1,wreg
 10606  0000F4  C00D  FFD8         	movff	??_INTERRUPT_InterruptManagerLow,status
 10607  0000F8  904C               	bcf	int$flags,0,c	;clear compiler interrupt flag (level 1)
 10608  0000FA  0010               	retfie	
 10609  0000FC                     __end_of_INTERRUPT_InterruptManagerLow:
 10610                           	opt callstack 0
 10611                           
 10612 ;; *************** function _TMR3_ISR *****************
 10613 ;; Defined at:
 10614 ;;		line 55 in file "mcc_generated_files/tmr3.c"
 10615 ;; Parameters:    Size  Location     Type
 10616 ;;		None
 10617 ;; Auto vars:     Size  Location     Type
 10618 ;;		None
 10619 ;; Return value:  Size  Location     Type
 10620 ;;                  1    wreg      void 
 10621 ;; Registers used:
 10622 ;;		wreg, status,2, cstack
 10623 ;; Tracked objects:
 10624 ;;		On entry : 0/0
 10625 ;;		On exit  : 0/0
 10626 ;;		Unchanged: 0/0
 10627 ;; Data sizes:     COMRAM   BANK0   BANK1   BANK2   BANK3   BANK4   BANK5   BANK6   BANK7   BANK8   BANK9  BANK10  BANK1
      +1  BANK12  BANK13  BANK14  BANK15
 10628 ;;      Params:         0       0       0       0       0       0       0       0       0       0       0       0       
      +0       0       0       0       0
 10629 ;;      Locals:         0       0       0       0       0       0       0       0       0       0       0       0       
      +0       0       0       0       0
 10630 ;;      Temps:          0       0       0       0       0       0       0       0       0       0       0       0       
      +0       0       0       0       0
 10631 ;;      Totals:         0       0       0       0       0       0       0       0       0       0       0       0       
      +0       0       0       0       0
 10632 ;;Total ram usage:        0 bytes
 10633 ;; Hardware stack levels used:    1
 10634 ;; Hardware stack levels required when called:    6
 10635 ;; This function calls:
 10636 ;;		_TMR3_Reload
 10637 ;; This function is called by:
 10638 ;;		_INTERRUPT_InterruptManagerLow
 10639 ;; This function uses a non-reentrant model
 10640 ;;
 10641                           
 10642                           	psect	text75
 10643  003DC2                     __ptext75:
 10644                           	opt callstack 0
 10645  003DC2                     _TMR3_ISR:
 10646                           	opt callstack 11
 10647  003DC2                     
 10648                           ;mcc_generated_files/tmr3.c: 56:     PIR2bits.TMR3IF = 0;
 10649  003DC2  92A1               	bcf	161,1,c	;volatile
 10650  003DC4                     
 10651                           ;mcc_generated_files/tmr3.c: 57:     TMR3_Reload();
 10652  003DC4  EC9F  F01E         	call	_TMR3_Reload	;wreg free
 10653  003DC8  0012               	return		;funcret
 10654  003DCA                     __end_of_TMR3_ISR:
 10655                           	opt callstack 0
 10656                           
 10657 ;; *************** function _TMR3_Reload *****************
 10658 ;; Defined at:
 10659 ;;		line 50 in file "mcc_generated_files/tmr3.c"
 10660 ;; Parameters:    Size  Location     Type
 10661 ;;		None
 10662 ;; Auto vars:     Size  Location     Type
 10663 ;;		None
 10664 ;; Return value:  Size  Location     Type
 10665 ;;                  1    wreg      void 
 10666 ;; Registers used:
 10667 ;;		wreg, status,2, cstack
 10668 ;; Tracked objects:
 10669 ;;		On entry : 0/0
 10670 ;;		On exit  : 0/0
 10671 ;;		Unchanged: 0/0
 10672 ;; Data sizes:     COMRAM   BANK0   BANK1   BANK2   BANK3   BANK4   BANK5   BANK6   BANK7   BANK8   BANK9  BANK10  BANK1
      +1  BANK12  BANK13  BANK14  BANK15
 10673 ;;      Params:         0       0       0       0       0       0       0       0       0       0       0       0       
      +0       0       0       0       0
 10674 ;;      Locals:         0       0       0       0       0       0       0       0       0       0       0       0       
      +0       0       0       0       0
 10675 ;;      Temps:          0       0       0       0       0       0       0       0       0       0       0       0       
      +0       0       0       0       0
 10676 ;;      Totals:         0       0       0       0       0       0       0       0       0       0       0       0       
      +0       0       0       0       0
 10677 ;;Total ram usage:        0 bytes
 10678 ;; Hardware stack levels used:    1
 10679 ;; Hardware stack levels required when called:    5
 10680 ;; This function calls:
 10681 ;;		_TMR3_WriteTimer
 10682 ;; This function is called by:
 10683 ;;		_TMR3_ISR
 10684 ;; This function uses a non-reentrant model
 10685 ;;
 10686                           
 10687                           	psect	text76
 10688  003D3E                     __ptext76:
 10689                           	opt callstack 0
 10690  003D3E                     _TMR3_Reload:
 10691                           	opt callstack 11
 10692  003D3E                     
 10693                           ;mcc_generated_files/tmr3.c: 51:     TMR3_WriteTimer(timer3ReloadVal);
 10694  003D3E  C0A8  F00B         	movff	_timer3ReloadVal,TMR3_WriteTimer@timerVal	;volatile
 10695  003D42  C0A9  F00C         	movff	_timer3ReloadVal+1,TMR3_WriteTimer@timerVal+1	;volatile
 10696  003D46  ECD2  F01D         	call	_TMR3_WriteTimer	;wreg free
 10697  003D4A  0012               	return		;funcret
 10698  003D4C                     __end_of_TMR3_Reload:
 10699                           	opt callstack 0
 10700                           
 10701 ;; *************** function _TMR3_WriteTimer *****************
 10702 ;; Defined at:
 10703 ;;		line 37 in file "mcc_generated_files/tmr3.c"
 10704 ;; Parameters:    Size  Location     Type
 10705 ;;  timerVal        2   10[COMRAM] unsigned short 
 10706 ;; Auto vars:     Size  Location     Type
 10707 ;;		None
 10708 ;; Return value:  Size  Location     Type
 10709 ;;                  1    wreg      void 
 10710 ;; Registers used:
 10711 ;;		wreg, status,2
 10712 ;; Tracked objects:
 10713 ;;		On entry : 0/0
 10714 ;;		On exit  : 0/0
 10715 ;;		Unchanged: 0/0
 10716 ;; Data sizes:     COMRAM   BANK0   BANK1   BANK2   BANK3   BANK4   BANK5   BANK6   BANK7   BANK8   BANK9  BANK10  BANK1
      +1  BANK12  BANK13  BANK14  BANK15
 10717 ;;      Params:         2       0       0       0       0       0       0       0       0       0       0       0       
      +0       0       0       0       0
 10718 ;;      Locals:         0       0       0       0       0       0       0       0       0       0       0       0       
      +0       0       0       0       0
 10719 ;;      Temps:          0       0       0       0       0       0       0       0       0       0       0       0       
      +0       0       0       0       0
 10720 ;;      Totals:         2       0       0       0       0       0       0       0       0       0       0       0       
      +0       0       0       0       0
 10721 ;;Total ram usage:        2 bytes
 10722 ;; Hardware stack levels used:    1
 10723 ;; Hardware stack levels required when called:    4
 10724 ;; This function calls:
 10725 ;;		Nothing
 10726 ;; This function is called by:
 10727 ;;		_TMR3_Reload
 10728 ;; This function uses a non-reentrant model
 10729 ;;
 10730                           
 10731                           	psect	text77
 10732  003BA4                     __ptext77:
 10733                           	opt callstack 0
 10734  003BA4                     _TMR3_WriteTimer:
 10735                           	opt callstack 11
 10736  003BA4                     
 10737                           ;mcc_generated_files/tmr3.c: 38:     if (T3CONbits.nT3SYNC == 1) {
 10738  003BA4  A4B1               	btfss	177,2,c	;volatile
 10739  003BA6  EFD7  F01D         	goto	i1u446_21
 10740  003BAA  EFD9  F01D         	goto	i1u446_20
 10741  003BAE                     i1u446_21:
 10742  003BAE  EFE1  F01D         	goto	i1l5550
 10743  003BB2                     i1u446_20:
 10744  003BB2                     
 10745                           ;mcc_generated_files/tmr3.c: 39:         T3CONbits.TMR3ON = 0;
 10746  003BB2  90B1               	bcf	177,0,c	;volatile
 10747  003BB4                     
 10748                           ;mcc_generated_files/tmr3.c: 40:         TMR3H = (timerVal >> 8);
 10749  003BB4  500C               	movf	(TMR3_WriteTimer@timerVal+1)^0,w,c
 10750  003BB6  6EB3               	movwf	179,c	;volatile
 10751  003BB8                     
 10752                           ;mcc_generated_files/tmr3.c: 41:         TMR3L = (uint8_t) timerVal;
 10753  003BB8  C00B  FFB2         	movff	TMR3_WriteTimer@timerVal,4018	;volatile
 10754  003BBC                     
 10755                           ;mcc_generated_files/tmr3.c: 42:         T3CONbits.TMR3ON = 1;
 10756  003BBC  80B1               	bsf	177,0,c	;volatile
 10757                           
 10758                           ;mcc_generated_files/tmr3.c: 43:     } else {
 10759  003BBE  EFE5  F01D         	goto	i1l820
 10760  003BC2                     i1l5550:
 10761                           
 10762                           ;mcc_generated_files/tmr3.c: 44:         TMR3H = (timerVal >> 8);
 10763  003BC2  500C               	movf	(TMR3_WriteTimer@timerVal+1)^0,w,c
 10764  003BC4  6EB3               	movwf	179,c	;volatile
 10765  003BC6                     
 10766                           ;mcc_generated_files/tmr3.c: 45:         TMR3L = (uint8_t) timerVal;
 10767  003BC6  C00B  FFB2         	movff	TMR3_WriteTimer@timerVal,4018	;volatile
 10768  003BCA                     i1l820:
 10769  003BCA  0012               	return		;funcret
 10770  003BCC                     __end_of_TMR3_WriteTimer:
 10771                           	opt callstack 0
 10772                           
 10773 ;; *************** function _TMR1_ISR *****************
 10774 ;; Defined at:
 10775 ;;		line 56 in file "mcc_generated_files/tmr1.c"
 10776 ;; Parameters:    Size  Location     Type
 10777 ;;		None
 10778 ;; Auto vars:     Size  Location     Type
 10779 ;;		None
 10780 ;; Return value:  Size  Location     Type
 10781 ;;                  1    wreg      void 
 10782 ;; Registers used:
 10783 ;;		wreg, status,2, cstack
 10784 ;; Tracked objects:
 10785 ;;		On entry : 0/0
 10786 ;;		On exit  : 0/0
 10787 ;;		Unchanged: 0/0
 10788 ;; Data sizes:     COMRAM   BANK0   BANK1   BANK2   BANK3   BANK4   BANK5   BANK6   BANK7   BANK8   BANK9  BANK10  BANK1
      +1  BANK12  BANK13  BANK14  BANK15
 10789 ;;      Params:         0       0       0       0       0       0       0       0       0       0       0       0       
      +0       0       0       0       0
 10790 ;;      Locals:         0       0       0       0       0       0       0       0       0       0       0       0       
      +0       0       0       0       0
 10791 ;;      Temps:          0       0       0       0       0       0       0       0       0       0       0       0       
      +0       0       0       0       0
 10792 ;;      Totals:         0       0       0       0       0       0       0       0       0       0       0       0       
      +0       0       0       0       0
 10793 ;;Total ram usage:        0 bytes
 10794 ;; Hardware stack levels used:    1
 10795 ;; Hardware stack levels required when called:    6
 10796 ;; This function calls:
 10797 ;;		_TMR1_Reload
 10798 ;; This function is called by:
 10799 ;;		_INTERRUPT_InterruptManagerLow
 10800 ;; This function uses a non-reentrant model
 10801 ;;
 10802                           
 10803                           	psect	text78
 10804  003DCA                     __ptext78:
 10805                           	opt callstack 0
 10806  003DCA                     _TMR1_ISR:
 10807                           	opt callstack 11
 10808  003DCA                     
 10809                           ;mcc_generated_files/tmr1.c: 57:     PIR1bits.TMR1IF = 0;
 10810  003DCA  909E               	bcf	158,0,c	;volatile
 10811  003DCC                     
 10812                           ;mcc_generated_files/tmr1.c: 58:     TMR1_Reload();
 10813  003DCC  ECA6  F01E         	call	_TMR1_Reload	;wreg free
 10814  003DD0  0012               	return		;funcret
 10815  003DD2                     __end_of_TMR1_ISR:
 10816                           	opt callstack 0
 10817                           
 10818 ;; *************** function _TMR1_Reload *****************
 10819 ;; Defined at:
 10820 ;;		line 51 in file "mcc_generated_files/tmr1.c"
 10821 ;; Parameters:    Size  Location     Type
 10822 ;;		None
 10823 ;; Auto vars:     Size  Location     Type
 10824 ;;		None
 10825 ;; Return value:  Size  Location     Type
 10826 ;;                  1    wreg      void 
 10827 ;; Registers used:
 10828 ;;		wreg, status,2, cstack
 10829 ;; Tracked objects:
 10830 ;;		On entry : 0/0
 10831 ;;		On exit  : 0/0
 10832 ;;		Unchanged: 0/0
 10833 ;; Data sizes:     COMRAM   BANK0   BANK1   BANK2   BANK3   BANK4   BANK5   BANK6   BANK7   BANK8   BANK9  BANK10  BANK1
      +1  BANK12  BANK13  BANK14  BANK15
 10834 ;;      Params:         0       0       0       0       0       0       0       0       0       0       0       0       
      +0       0       0       0       0
 10835 ;;      Locals:         0       0       0       0       0       0       0       0       0       0       0       0       
      +0       0       0       0       0
 10836 ;;      Temps:          0       0       0       0       0       0       0       0       0       0       0       0       
      +0       0       0       0       0
 10837 ;;      Totals:         0       0       0       0       0       0       0       0       0       0       0       0       
      +0       0       0       0       0
 10838 ;;Total ram usage:        0 bytes
 10839 ;; Hardware stack levels used:    1
 10840 ;; Hardware stack levels required when called:    5
 10841 ;; This function calls:
 10842 ;;		_TMR1_WriteTimer
 10843 ;; This function is called by:
 10844 ;;		_TMR1_ISR
 10845 ;; This function uses a non-reentrant model
 10846 ;;
 10847                           
 10848                           	psect	text79
 10849  003D4C                     __ptext79:
 10850                           	opt callstack 0
 10851  003D4C                     _TMR1_Reload:
 10852                           	opt callstack 11
 10853  003D4C                     
 10854                           ;mcc_generated_files/tmr1.c: 52:     TMR1_WriteTimer(timer1ReloadVal);
 10855  003D4C  C0AA  F00B         	movff	_timer1ReloadVal,TMR1_WriteTimer@timerVal	;volatile
 10856  003D50  C0AB  F00C         	movff	_timer1ReloadVal+1,TMR1_WriteTimer@timerVal+1	;volatile
 10857  003D54  ECE6  F01D         	call	_TMR1_WriteTimer	;wreg free
 10858  003D58  0012               	return		;funcret
 10859  003D5A                     __end_of_TMR1_Reload:
 10860                           	opt callstack 0
 10861                           
 10862 ;; *************** function _TMR1_WriteTimer *****************
 10863 ;; Defined at:
 10864 ;;		line 37 in file "mcc_generated_files/tmr1.c"
 10865 ;; Parameters:    Size  Location     Type
 10866 ;;  timerVal        2   10[COMRAM] unsigned short 
 10867 ;; Auto vars:     Size  Location     Type
 10868 ;;		None
 10869 ;; Return value:  Size  Location     Type
 10870 ;;                  1    wreg      void 
 10871 ;; Registers used:
 10872 ;;		wreg, status,2
 10873 ;; Tracked objects:
 10874 ;;		On entry : 0/0
 10875 ;;		On exit  : 0/0
 10876 ;;		Unchanged: 0/0
 10877 ;; Data sizes:     COMRAM   BANK0   BANK1   BANK2   BANK3   BANK4   BANK5   BANK6   BANK7   BANK8   BANK9  BANK10  BANK1
      +1  BANK12  BANK13  BANK14  BANK15
 10878 ;;      Params:         2       0       0       0       0       0       0       0       0       0       0       0       
      +0       0       0       0       0
 10879 ;;      Locals:         0       0       0       0       0       0       0       0       0       0       0       0       
      +0       0       0       0       0
 10880 ;;      Temps:          0       0       0       0       0       0       0       0       0       0       0       0       
      +0       0       0       0       0
 10881 ;;      Totals:         2       0       0       0       0       0       0       0       0       0       0       0       
      +0       0       0       0       0
 10882 ;;Total ram usage:        2 bytes
 10883 ;; Hardware stack levels used:    1
 10884 ;; Hardware stack levels required when called:    4
 10885 ;; This function calls:
 10886 ;;		Nothing
 10887 ;; This function is called by:
 10888 ;;		_TMR1_Reload
 10889 ;; This function uses a non-reentrant model
 10890 ;;
 10891                           
 10892                           	psect	text80
 10893  003BCC                     __ptext80:
 10894                           	opt callstack 0
 10895  003BCC                     _TMR1_WriteTimer:
 10896                           	opt callstack 11
 10897  003BCC                     
 10898                           ;mcc_generated_files/tmr1.c: 38:     if (T1CONbits.T1SYNC == 1){
 10899  003BCC  A4CD               	btfss	205,2,c	;volatile
 10900  003BCE  EFEB  F01D         	goto	i1u445_21
 10901  003BD2  EFED  F01D         	goto	i1u445_20
 10902  003BD6                     i1u445_21:
 10903  003BD6  EFF5  F01D         	goto	i1l5534
 10904  003BDA                     i1u445_20:
 10905  003BDA                     
 10906                           ;mcc_generated_files/tmr1.c: 39:         T1CONbits.TMR1ON = 0;
 10907  003BDA  90CD               	bcf	205,0,c	;volatile
 10908  003BDC                     
 10909                           ;mcc_generated_files/tmr1.c: 40:         TMR1H = (timerVal >> 8);
 10910  003BDC  500C               	movf	(TMR1_WriteTimer@timerVal+1)^0,w,c
 10911  003BDE  6ECF               	movwf	207,c	;volatile
 10912  003BE0                     
 10913                           ;mcc_generated_files/tmr1.c: 41:         TMR1L = (uint8_t) timerVal;
 10914  003BE0  C00B  FFCE         	movff	TMR1_WriteTimer@timerVal,4046	;volatile
 10915  003BE4                     
 10916                           ;mcc_generated_files/tmr1.c: 42:         T1CONbits.TMR1ON =1;
 10917  003BE4  80CD               	bsf	205,0,c	;volatile
 10918                           
 10919                           ;mcc_generated_files/tmr1.c: 43:     }
 10920  003BE6  EFF9  F01D         	goto	i1l743
 10921  003BEA                     i1l5534:
 10922                           
 10923                           ;mcc_generated_files/tmr1.c: 45:         TMR1H = (timerVal >> 8);
 10924  003BEA  500C               	movf	(TMR1_WriteTimer@timerVal+1)^0,w,c
 10925  003BEC  6ECF               	movwf	207,c	;volatile
 10926  003BEE                     
 10927                           ;mcc_generated_files/tmr1.c: 46:         TMR1L = (uint8_t) timerVal;
 10928  003BEE  C00B  FFCE         	movff	TMR1_WriteTimer@timerVal,4046	;volatile
 10929  003BF2                     i1l743:
 10930  003BF2  0012               	return		;funcret
 10931  003BF4                     __end_of_TMR1_WriteTimer:
 10932                           	opt callstack 0
 10933                           
 10934 ;; *************** function _INT2_ISR *****************
 10935 ;; Defined at:
 10936 ;;		line 73 in file "mcc_generated_files/interrupt_manager.c"
 10937 ;; Parameters:    Size  Location     Type
 10938 ;;		None
 10939 ;; Auto vars:     Size  Location     Type
 10940 ;;		None
 10941 ;; Return value:  Size  Location     Type
 10942 ;;                  1    wreg      void 
 10943 ;; Registers used:
 10944 ;;		wreg, status,2, status,0
 10945 ;; Tracked objects:
 10946 ;;		On entry : 0/0
 10947 ;;		On exit  : 0/0
 10948 ;;		Unchanged: 0/0
 10949 ;; Data sizes:     COMRAM   BANK0   BANK1   BANK2   BANK3   BANK4   BANK5   BANK6   BANK7   BANK8   BANK9  BANK10  BANK1
      +1  BANK12  BANK13  BANK14  BANK15
 10950 ;;      Params:         0       0       0       0       0       0       0       0       0       0       0       0       
      +0       0       0       0       0
 10951 ;;      Locals:         0       0       0       0       0       0       0       0       0       0       0       0       
      +0       0       0       0       0
 10952 ;;      Temps:          0       0       0       0       0       0       0       0       0       0       0       0       
      +0       0       0       0       0
 10953 ;;      Totals:         0       0       0       0       0       0       0       0       0       0       0       0       
      +0       0       0       0       0
 10954 ;;Total ram usage:        0 bytes
 10955 ;; Hardware stack levels used:    1
 10956 ;; Hardware stack levels required when called:    4
 10957 ;; This function calls:
 10958 ;;		Nothing
 10959 ;; This function is called by:
 10960 ;;		_INTERRUPT_InterruptManagerLow
 10961 ;; This function uses a non-reentrant model
 10962 ;;
 10963                           
 10964                           	psect	text81
 10965  003C5E                     __ptext81:
 10966                           	opt callstack 0
 10967  003C5E                     _INT2_ISR:
 10968                           	opt callstack 13
 10969  003C5E                     
 10970                           ;mcc_generated_files/interrupt_manager.c: 75:     if (MODE_BUTTON < 3)
 10971  003C5E  0E03               	movlw	3
 10972  003C60  0100               	movlb	0	; () banked
 10973  003C62  61C2               	cpfslt	_MODE_BUTTON& (0+255),b
 10974  003C64  EF36  F01E         	goto	i1u487_21
 10975  003C68  EF38  F01E         	goto	i1u487_20
 10976  003C6C                     i1u487_21:
 10977  003C6C  EF3B  F01E         	goto	i1l6118
 10978  003C70                     i1u487_20:
 10979  003C70                     
 10980                           ; BSR set to: 0
 10981                           ;mcc_generated_files/interrupt_manager.c: 76:         MODE_BUTTON++;
 10982  003C70  2BC2               	incf	_MODE_BUTTON& (0+255),f,b
 10983  003C72  EF3D  F01E         	goto	i1l6120
 10984  003C76                     i1l6118:
 10985                           
 10986                           ; BSR set to: 0
 10987                           ;mcc_generated_files/interrupt_manager.c: 78:         MODE_BUTTON = 1;
 10988  003C76  0E01               	movlw	1
 10989  003C78  6FC2               	movwf	_MODE_BUTTON& (0+255),b
 10990  003C7A                     i1l6120:
 10991                           
 10992                           ; BSR set to: 0
 10993                           ;mcc_generated_files/interrupt_manager.c: 81:     INTCON3bits.INT2IF = 0;
 10994  003C7A  92F0               	bcf	240,1,c	;volatile
 10995  003C7C                     
 10996                           ; BSR set to: 0
 10997  003C7C  0012               	return		;funcret
 10998  003C7E                     __end_of_INT2_ISR:
 10999                           	opt callstack 0
 11000                           
 11001 ;; *************** function _EUSART1_Transmit_ISR *****************
 11002 ;; Defined at:
 11003 ;;		line 177 in file "mcc_generated_files/eusart1.c"
 11004 ;; Parameters:    Size  Location     Type
 11005 ;;		None
 11006 ;; Auto vars:     Size  Location     Type
 11007 ;;		None
 11008 ;; Return value:  Size  Location     Type
 11009 ;;                  1    wreg      void 
 11010 ;; Registers used:
 11011 ;;		wreg, fsr2l, fsr2h, status,2, status,0
 11012 ;; Tracked objects:
 11013 ;;		On entry : 0/0
 11014 ;;		On exit  : 0/0
 11015 ;;		Unchanged: 0/0
 11016 ;; Data sizes:     COMRAM   BANK0   BANK1   BANK2   BANK3   BANK4   BANK5   BANK6   BANK7   BANK8   BANK9  BANK10  BANK1
      +1  BANK12  BANK13  BANK14  BANK15
 11017 ;;      Params:         0       0       0       0       0       0       0       0       0       0       0       0       
      +0       0       0       0       0
 11018 ;;      Locals:         0       0       0       0       0       0       0       0       0       0       0       0       
      +0       0       0       0       0
 11019 ;;      Temps:          0       0       0       0       0       0       0       0       0       0       0       0       
      +0       0       0       0       0
 11020 ;;      Totals:         0       0       0       0       0       0       0       0       0       0       0       0       
      +0       0       0       0       0
 11021 ;;Total ram usage:        0 bytes
 11022 ;; Hardware stack levels used:    1
 11023 ;; Hardware stack levels required when called:    4
 11024 ;; This function calls:
 11025 ;;		Nothing
 11026 ;; This function is called by:
 11027 ;;		_EUSART1_Initialize
 11028 ;;		_INTERRUPT_InterruptManagerLow
 11029 ;; This function uses a non-reentrant model
 11030 ;;
 11031                           
 11032                           	psect	text82
 11033  003A6E                     __ptext82:
 11034                           	opt callstack 0
 11035  003A6E                     _EUSART1_Transmit_ISR:
 11036                           	opt callstack 13
 11037  003A6E                     
 11038                           ;mcc_generated_files/eusart1.c: 178:     if (sizeof (eusart1TxBuffer) > eusart1TxBufferR
      +                          emaining) {
 11039  003A6E  0E18               	movlw	24
 11040  003A70  6044               	cpfslt	_eusart1TxBufferRemaining^0,c	;volatile
 11041  003A72  EF3D  F01D         	goto	i1u479_21
 11042  003A76  EF3F  F01D         	goto	i1u479_20
 11043  003A7A                     i1u479_21:
 11044  003A7A  EF55  F01D         	goto	i1l545
 11045  003A7E                     i1u479_20:
 11046  003A7E                     
 11047                           ;mcc_generated_files/eusart1.c: 183:         TXREG1 = eusart1TxBuffer[eusart1TxTail++];
 11048  003A7E  0E30               	movlw	low _eusart1TxBuffer
 11049  003A80  2445               	addwf	_eusart1TxTail^0,w,c	;volatile
 11050  003A82  6ED9               	movwf	fsr2l,c
 11051  003A84  6ADA               	clrf	fsr2h,c
 11052  003A86  0E01               	movlw	high _eusart1TxBuffer
 11053  003A88  22DA               	addwfc	fsr2h,f,c
 11054  003A8A  50DF               	movf	indf2,w,c
 11055  003A8C  6EAD               	movwf	173,c	;volatile
 11056  003A8E  2A45               	incf	_eusart1TxTail^0,f,c	;volatile
 11057  003A90                     
 11058                           ;mcc_generated_files/eusart1.c: 184:         if (sizeof (eusart1TxBuffer) <= eusart1TxTa
      +                          il)
 11059  003A90  0E17               	movlw	23
 11060  003A92  6445               	cpfsgt	_eusart1TxTail^0,c	;volatile
 11061  003A94  EF4E  F01D         	goto	i1u480_21
 11062  003A98  EF50  F01D         	goto	i1u480_20
 11063  003A9C                     i1u480_21:
 11064  003A9C  EF52  F01D         	goto	i1l6082
 11065  003AA0                     i1u480_20:
 11066  003AA0                     
 11067                           ;mcc_generated_files/eusart1.c: 185:             eusart1TxTail = 0;
 11068  003AA0  0E00               	movlw	0
 11069  003AA2  6E45               	movwf	_eusart1TxTail^0,c	;volatile
 11070  003AA4                     i1l6082:
 11071                           
 11072                           ;mcc_generated_files/eusart1.c: 186:         eusart1TxBufferRemaining++;
 11073  003AA4  2A44               	incf	_eusart1TxBufferRemaining^0,f,c	;volatile
 11074                           
 11075                           ;mcc_generated_files/eusart1.c: 187:     } else
 11076  003AA6  EF56  F01D         	goto	i1l548
 11077  003AAA                     i1l545:
 11078                           
 11079                           ;mcc_generated_files/eusart1.c: 188:         PIE1bits.TX1IE = 0;
 11080  003AAA  989D               	bcf	157,4,c	;volatile
 11081  003AAC                     i1l548:
 11082  003AAC  0012               	return		;funcret
 11083  003AAE                     __end_of_EUSART1_Transmit_ISR:
 11084                           	opt callstack 0
 11085                           
 11086 ;; *************** function _INTERRUPT_InterruptManagerHigh *****************
 11087 ;; Defined at:
 11088 ;;		line 85 in file "mcc_generated_files/interrupt_manager.c"
 11089 ;; Parameters:    Size  Location     Type
 11090 ;;		None
 11091 ;; Auto vars:     Size  Location     Type
 11092 ;;		None
 11093 ;; Return value:  Size  Location     Type
 11094 ;;                  1    wreg      void 
 11095 ;; Registers used:
 11096 ;;		wreg, fsr2l, fsr2h, status,2, status,0, pclath, tosl, prodl, prodh, cstack
 11097 ;; Tracked objects:
 11098 ;;		On entry : 0/0
 11099 ;;		On exit  : 0/0
 11100 ;;		Unchanged: 0/0
 11101 ;; Data sizes:     COMRAM   BANK0   BANK1   BANK2   BANK3   BANK4   BANK5   BANK6   BANK7   BANK8   BANK9  BANK10  BANK1
      +1  BANK12  BANK13  BANK14  BANK15
 11102 ;;      Params:         0       0       0       0       0       0       0       0       0       0       0       0       
      +0       0       0       0       0
 11103 ;;      Locals:         0       0       0       0       0       0       0       0       0       0       0       0       
      +0       0       0       0       0
 11104 ;;      Temps:          6       0       0       0       0       0       0       0       0       0       0       0       
      +0       0       0       0       0
 11105 ;;      Totals:         6       0       0       0       0       0       0       0       0       0       0       0       
      +0       0       0       0       0
 11106 ;;Total ram usage:        6 bytes
 11107 ;; Hardware stack levels used:    1
 11108 ;; Hardware stack levels required when called:    3
 11109 ;; This function calls:
 11110 ;;		Absolute function
 11111 ;;		_EUSART1_Receive_ISR
 11112 ;;		_INT0_ISR
 11113 ;;		_INT1_ISR
 11114 ;; This function is called by:
 11115 ;;		Interrupt level 2
 11116 ;; This function uses a non-reentrant model
 11117 ;;
 11118                           
 11119                           	psect	intcode
 11120  000008                     __pintcode:
 11121                           	opt callstack 0
 11122  000008                     _INTERRUPT_InterruptManagerHigh:
 11123                           	opt callstack 11
 11124                           
 11125                           ;incstack = 0
 11126  000008  824C               	bsf	int$flags,1,c	;set compiler interrupt flag (level 2)
 11127  00000A  EFBA  F016         	goto	int_func
 11128                           
 11129                           	psect	intcode_body
 11130  002D74                     __pintcode_body:
 11131                           	opt callstack 11
 11132  002D74                     int_func:
 11133                           	opt callstack 11
 11134  002D74  CFFA F005          	movff	pclath,??_INTERRUPT_InterruptManagerHigh
 11135  002D78  CFFB F006          	movff	pclatu,??_INTERRUPT_InterruptManagerHigh+1
 11136  002D7C  CFD9 F007          	movff	fsr2l,??_INTERRUPT_InterruptManagerHigh+2
 11137  002D80  CFDA F008          	movff	fsr2h,??_INTERRUPT_InterruptManagerHigh+3
 11138  002D84  CFF3 F009          	movff	prodl,??_INTERRUPT_InterruptManagerHigh+4
 11139  002D88  CFF4 F00A          	movff	prodh,??_INTERRUPT_InterruptManagerHigh+5
 11140  002D8C                     
 11141                           ;mcc_generated_files/interrupt_manager.c: 86:     if (INTCON3bits.INT1IE == 1 && INTCON3
      +                          bits.INT1IF == 1) {
 11142  002D8C  A6F0               	btfss	240,3,c	;volatile
 11143  002D8E  EFCB  F016         	goto	i2u506_41
 11144  002D92  EFCD  F016         	goto	i2u506_40
 11145  002D96                     i2u506_41:
 11146  002D96  EFD8  F016         	goto	i2l652
 11147  002D9A                     i2u506_40:
 11148  002D9A  A0F0               	btfss	240,0,c	;volatile
 11149  002D9C  EFD2  F016         	goto	i2u507_41
 11150  002DA0  EFD4  F016         	goto	i2u507_40
 11151  002DA4                     i2u507_41:
 11152  002DA4  EFD8  F016         	goto	i2l652
 11153  002DA8                     i2u507_40:
 11154  002DA8                     
 11155                           ;mcc_generated_files/interrupt_manager.c: 87:         INT1_ISR();
 11156  002DA8  ECE9  F01E         	call	_INT1_ISR	;wreg free
 11157                           
 11158                           ;mcc_generated_files/interrupt_manager.c: 88:     } else if (PIE1bits.RC1IE == 1 && PIR1
      +                          bits.RC1IF == 1) {
 11159  002DAC  EF07  F017         	goto	i2l657
 11160  002DB0                     i2l652:
 11161  002DB0  AA9D               	btfss	157,5,c	;volatile
 11162  002DB2  EFDD  F016         	goto	i2u508_41
 11163  002DB6  EFDF  F016         	goto	i2u508_40
 11164  002DBA                     i2u508_41:
 11165  002DBA  EFF5  F016         	goto	i2l654
 11166  002DBE                     i2u508_40:
 11167  002DBE  AA9E               	btfss	158,5,c	;volatile
 11168  002DC0  EFE4  F016         	goto	i2u509_41
 11169  002DC4  EFE6  F016         	goto	i2u509_40
 11170  002DC8                     i2u509_41:
 11171  002DC8  EFF5  F016         	goto	i2l654
 11172  002DCC                     i2u509_40:
 11173  002DCC                     
 11174                           ;mcc_generated_files/interrupt_manager.c: 89:         EUSART1_RxDefaultInterruptHandler(
      +                          );
 11175  002DCC  D802               	call	i2u510_48
 11176  002DCE  EFF3  F016         	goto	i2u510_49
 11177  002DD2                     i2u510_48:
 11178  002DD2  0005               	push	
 11179  002DD4  6EFA               	movwf	pclath,c
 11180  002DD6  0100               	movlb	0	; () banked
 11181  002DD8  51B4               	movf	_EUSART1_RxDefaultInterruptHandler& (0+255),w,b
 11182  002DDA  6EFD               	movwf	tosl,c
 11183  002DDC  51B5               	movf	(_EUSART1_RxDefaultInterruptHandler+1)& (0+255),w,b
 11184  002DDE  6EFE               	movwf	tosh,c
 11185  002DE0  6AFF               	clrf	tosu,c
 11186  002DE2  50FA               	movf	pclath,w,c
 11187  002DE4  0012               	return		;indir
 11188  002DE6                     i2u510_49:
 11189                           
 11190                           ;mcc_generated_files/interrupt_manager.c: 90:     } else if (INTCONbits.INT0IE == 1 && I
      +                          NTCONbits.INT0IF == 1) {
 11191  002DE6  EF07  F017         	goto	i2l657
 11192  002DEA                     i2l654:
 11193  002DEA  A8F2               	btfss	242,4,c	;volatile
 11194  002DEC  EFFA  F016         	goto	i2u511_41
 11195  002DF0  EFFC  F016         	goto	i2u511_40
 11196  002DF4                     i2u511_41:
 11197  002DF4  EF07  F017         	goto	i2l653
 11198  002DF8                     i2u511_40:
 11199  002DF8  A2F2               	btfss	242,1,c	;volatile
 11200  002DFA  EF01  F017         	goto	i2u512_41
 11201  002DFE  EF03  F017         	goto	i2u512_40
 11202  002E02                     i2u512_41:
 11203  002E02  EF07  F017         	goto	i2l653
 11204  002E06                     i2u512_40:
 11205  002E06                     
 11206                           ;mcc_generated_files/interrupt_manager.c: 91:         INT0_ISR();
 11207  002E06  EC04  F01F         	call	_INT0_ISR	;wreg free
 11208  002E0A  EF07  F017         	goto	i2l657
 11209  002E0E                     i2l653:
 11210  002E0E                     i2l657:
 11211  002E0E  C00A  FFF4         	movff	??_INTERRUPT_InterruptManagerHigh+5,prodh
 11212  002E12  C009  FFF3         	movff	??_INTERRUPT_InterruptManagerHigh+4,prodl
 11213  002E16  C008  FFDA         	movff	??_INTERRUPT_InterruptManagerHigh+3,fsr2h
 11214  002E1A  C007  FFD9         	movff	??_INTERRUPT_InterruptManagerHigh+2,fsr2l
 11215  002E1E  C006  FFFB         	movff	??_INTERRUPT_InterruptManagerHigh+1,pclatu
 11216  002E22  C005  FFFA         	movff	??_INTERRUPT_InterruptManagerHigh,pclath
 11217  002E26  924C               	bcf	int$flags,1,c	;clear compiler interrupt flag (level 2)
 11218  002E28  0011               	retfie		f
 11219  002E2A                     __end_of_INTERRUPT_InterruptManagerHigh:
 11220                           	opt callstack 0
 11221                           
 11222 ;; *************** function _INT1_ISR *****************
 11223 ;; Defined at:
 11224 ;;		line 66 in file "mcc_generated_files/interrupt_manager.c"
 11225 ;; Parameters:    Size  Location     Type
 11226 ;;		None
 11227 ;; Auto vars:     Size  Location     Type
 11228 ;;		None
 11229 ;; Return value:  Size  Location     Type
 11230 ;;                  1    wreg      void 
 11231 ;; Registers used:
 11232 ;;		wreg, status,2, status,0, prodl, prodh, cstack
 11233 ;; Tracked objects:
 11234 ;;		On entry : 0/0
 11235 ;;		On exit  : 0/0
 11236 ;;		Unchanged: 0/0
 11237 ;; Data sizes:     COMRAM   BANK0   BANK1   BANK2   BANK3   BANK4   BANK5   BANK6   BANK7   BANK8   BANK9  BANK10  BANK1
      +1  BANK12  BANK13  BANK14  BANK15
 11238 ;;      Params:         0       0       0       0       0       0       0       0       0       0       0       0       
      +0       0       0       0       0
 11239 ;;      Locals:         0       0       0       0       0       0       0       0       0       0       0       0       
      +0       0       0       0       0
 11240 ;;      Temps:          0       0       0       0       0       0       0       0       0       0       0       0       
      +0       0       0       0       0
 11241 ;;      Totals:         0       0       0       0       0       0       0       0       0       0       0       0       
      +0       0       0       0       0
 11242 ;;Total ram usage:        0 bytes
 11243 ;; Hardware stack levels used:    1
 11244 ;; Hardware stack levels required when called:    1
 11245 ;; This function calls:
 11246 ;;		_EPWM3_STOP
 11247 ;; This function is called by:
 11248 ;;		_INTERRUPT_InterruptManagerHigh
 11249 ;; This function uses a non-reentrant model
 11250 ;;
 11251                           
 11252                           	psect	text84
 11253  003DD2                     __ptext84:
 11254                           	opt callstack 0
 11255  003DD2                     _INT1_ISR:
 11256                           	opt callstack 12
 11257  003DD2                     
 11258                           ;mcc_generated_files/interrupt_manager.c: 68:     EPWM3_STOP();
 11259  003DD2  ECA6  F01C         	call	_EPWM3_STOP	;wreg free
 11260  003DD6                     
 11261                           ;mcc_generated_files/interrupt_manager.c: 69:     INTCON3bits.INT1IF = 0;
 11262  003DD6  90F0               	bcf	240,0,c	;volatile
 11263  003DD8  0012               	return		;funcret
 11264  003DDA                     __end_of_INT1_ISR:
 11265                           	opt callstack 0
 11266                           
 11267 ;; *************** function _EPWM3_STOP *****************
 11268 ;; Defined at:
 11269 ;;		line 201 in file "mcc_generated_files/epwm3.c"
 11270 ;; Parameters:    Size  Location     Type
 11271 ;;		None
 11272 ;; Auto vars:     Size  Location     Type
 11273 ;;  pulse_width_    2    2[COMRAM] unsigned short 
 11274 ;; Return value:  Size  Location     Type
 11275 ;;                  1    wreg      void 
 11276 ;; Registers used:
 11277 ;;		wreg, status,2, status,0, prodl, prodh
 11278 ;; Tracked objects:
 11279 ;;		On entry : 0/0
 11280 ;;		On exit  : 0/0
 11281 ;;		Unchanged: 0/0
 11282 ;; Data sizes:     COMRAM   BANK0   BANK1   BANK2   BANK3   BANK4   BANK5   BANK6   BANK7   BANK8   BANK9  BANK10  BANK1
      +1  BANK12  BANK13  BANK14  BANK15
 11283 ;;      Params:         0       0       0       0       0       0       0       0       0       0       0       0       
      +0       0       0       0       0
 11284 ;;      Locals:         2       0       0       0       0       0       0       0       0       0       0       0       
      +0       0       0       0       0
 11285 ;;      Temps:          2       0       0       0       0       0       0       0       0       0       0       0       
      +0       0       0       0       0
 11286 ;;      Totals:         4       0       0       0       0       0       0       0       0       0       0       0       
      +0       0       0       0       0
 11287 ;;Total ram usage:        4 bytes
 11288 ;; Hardware stack levels used:    1
 11289 ;; This function calls:
 11290 ;;		Nothing
 11291 ;; This function is called by:
 11292 ;;		_INT1_ISR
 11293 ;; This function uses a non-reentrant model
 11294 ;;
 11295                           
 11296                           	psect	text85
 11297  00394C                     __ptext85:
 11298                           	opt callstack 0
 11299  00394C                     _EPWM3_STOP:
 11300                           	opt callstack 12
 11301  00394C                     
 11302                           ;mcc_generated_files/epwm3.c: 206:     uint16_t pulse_width_bit;;mcc_generated_files/epw
      +                          m3.c: 207:     pulse_width_bit = 50 * interval_ISR;
 11303  00394C  0100               	movlb	0	; () banked
 11304  00394E  51C3               	movf	_interval_ISR& (0+255),w,b
 11305  003950  0D32               	mullw	50
 11306  003952  CFF3 F003          	movff	prodl,EPWM3_STOP@pulse_width_bit
 11307  003956  CFF4 F004          	movff	prodh,EPWM3_STOP@pulse_width_bit+1
 11308  00395A                     
 11309                           ; BSR set to: 0
 11310                           ;mcc_generated_files/epwm3.c: 210:     CCPR3L = pulse_width_bit >> 2;
 11311  00395A  C003  F001         	movff	EPWM3_STOP@pulse_width_bit,??_EPWM3_STOP
 11312  00395E  C004  F002         	movff	EPWM3_STOP@pulse_width_bit+1,??_EPWM3_STOP+1
 11313  003962  90D8               	bcf	status,0,c
 11314  003964  3202               	rrcf	(??_EPWM3_STOP+1)^0,f,c
 11315  003966  3201               	rrcf	??_EPWM3_STOP^0,f,c
 11316  003968  90D8               	bcf	status,0,c
 11317  00396A  3202               	rrcf	(??_EPWM3_STOP+1)^0,f,c
 11318  00396C  3201               	rrcf	??_EPWM3_STOP^0,f,c
 11319  00396E  5001               	movf	??_EPWM3_STOP^0,w,c
 11320  003970  010F               	movlb	15	; () banked
 11321  003972  6F5E               	movwf	94,b	;volatile
 11322  003974                     
 11323                           ; BSR set to: 15
 11324                           ;mcc_generated_files/epwm3.c: 211:     CCP3CONbits.DC3B = pulse_width_bit;
 11325  003974  C003  F001         	movff	EPWM3_STOP@pulse_width_bit,??_EPWM3_STOP
 11326  003978  3A01               	swapf	??_EPWM3_STOP^0,f,c
 11327  00397A  515D               	movf	93,w,b	;volatile
 11328  00397C  1801               	xorwf	??_EPWM3_STOP^0,w,c
 11329  00397E  0BCF               	andlw	-49
 11330  003980  1801               	xorwf	??_EPWM3_STOP^0,w,c
 11331  003982  6F5D               	movwf	93,b	;volatile
 11332  003984                     
 11333                           ; BSR set to: 15
 11334                           ;mcc_generated_files/epwm3.c: 212:     _delay((unsigned long)((10)*(64000000/4000.0)));
 11335  003984  0ED0               	movlw	208
 11336  003986  6E01               	movwf	??_EPWM3_STOP^0,c
 11337  003988  0ECA               	movlw	202
 11338  00398A                     i2u782_47:
 11339  00398A  2EE8               	decfsz	wreg,f,c
 11340  00398C  D7FE               	bra	i2u782_47
 11341  00398E  2E01               	decfsz	??_EPWM3_STOP^0,f,c
 11342  003990  D7FC               	bra	i2u782_47
 11343  003992                     
 11344                           ;mcc_generated_files/epwm3.c: 213:     LATCbits.LATC2 = 0;
 11345  003992  948B               	bcf	139,2,c	;volatile
 11346  003994                     
 11347                           ;mcc_generated_files/epwm3.c: 214:     ECCP3ASbits.CCP3ASE = 1;
 11348  003994  010F               	movlb	15	; () banked
 11349  003996  8F5B               	bsf	91,7,b	;volatile
 11350  003998                     
 11351                           ; BSR set to: 15
 11352                           ;mcc_generated_files/epwm3.c: 215:     T4CONbits.TMR4ON = 0;
 11353  003998  9551               	bcf	81,2,b	;volatile
 11354  00399A                     
 11355                           ; BSR set to: 15
 11356                           ;mcc_generated_files/epwm3.c: 216:     STATUS_Eng_V.status = 0;
 11357  00399A  0E00               	movlw	0
 11358  00399C  6E3E               	movwf	_STATUS_Eng_V^0,c
 11359  00399E                     
 11360                           ; BSR set to: 15
 11361                           ;mcc_generated_files/epwm3.c: 217:     STATUS_Eng_V.turn = 0x00;
 11362  00399E  0E00               	movlw	0
 11363  0039A0  6E3F               	movwf	(_STATUS_Eng_V+1)^0,c
 11364  0039A2                     
 11365                           ; BSR set to: 15
 11366  0039A2  0012               	return		;funcret
 11367  0039A4                     __end_of_EPWM3_STOP:
 11368                           	opt callstack 0
 11369                           
 11370 ;; *************** function _INT0_ISR *****************
 11371 ;; Defined at:
 11372 ;;		line 58 in file "mcc_generated_files/interrupt_manager.c"
 11373 ;; Parameters:    Size  Location     Type
 11374 ;;		None
 11375 ;; Auto vars:     Size  Location     Type
 11376 ;;		None
 11377 ;; Return value:  Size  Location     Type
 11378 ;;                  1    wreg      void 
 11379 ;; Registers used:
 11380 ;;		None
 11381 ;; Tracked objects:
 11382 ;;		On entry : 0/0
 11383 ;;		On exit  : 0/0
 11384 ;;		Unchanged: 0/0
 11385 ;; Data sizes:     COMRAM   BANK0   BANK1   BANK2   BANK3   BANK4   BANK5   BANK6   BANK7   BANK8   BANK9  BANK10  BANK1
      +1  BANK12  BANK13  BANK14  BANK15
 11386 ;;      Params:         0       0       0       0       0       0       0       0       0       0       0       0       
      +0       0       0       0       0
 11387 ;;      Locals:         0       0       0       0       0       0       0       0       0       0       0       0       
      +0       0       0       0       0
 11388 ;;      Temps:          0       0       0       0       0       0       0       0       0       0       0       0       
      +0       0       0       0       0
 11389 ;;      Totals:         0       0       0       0       0       0       0       0       0       0       0       0       
      +0       0       0       0       0
 11390 ;;Total ram usage:        0 bytes
 11391 ;; Hardware stack levels used:    1
 11392 ;; This function calls:
 11393 ;;		Nothing
 11394 ;; This function is called by:
 11395 ;;		_INTERRUPT_InterruptManagerHigh
 11396 ;; This function uses a non-reentrant model
 11397 ;;
 11398                           
 11399                           	psect	text86
 11400  003E08                     __ptext86:
 11401                           	opt callstack 0
 11402  003E08                     _INT0_ISR:
 11403                           	opt callstack 13
 11404  003E08                     
 11405                           ;mcc_generated_files/interrupt_manager.c: 62:     INTCONbits.INT0IF = 0;
 11406  003E08  92F2               	bcf	242,1,c	;volatile
 11407  003E0A  0012               	return		;funcret
 11408  003E0C                     __end_of_INT0_ISR:
 11409                           	opt callstack 0
 11410                           
 11411 ;; *************** function _EUSART1_Receive_ISR *****************
 11412 ;; Defined at:
 11413 ;;		line 192 in file "mcc_generated_files/eusart1.c"
 11414 ;; Parameters:    Size  Location     Type
 11415 ;;		None
 11416 ;; Auto vars:     Size  Location     Type
 11417 ;;		None
 11418 ;; Return value:  Size  Location     Type
 11419 ;;                  1    wreg      void 
 11420 ;; Registers used:
 11421 ;;		wreg, fsr2l, fsr2h, status,2, status,0, pclath, tosl, cstack
 11422 ;; Tracked objects:
 11423 ;;		On entry : 0/0
 11424 ;;		On exit  : 0/0
 11425 ;;		Unchanged: 0/0
 11426 ;; Data sizes:     COMRAM   BANK0   BANK1   BANK2   BANK3   BANK4   BANK5   BANK6   BANK7   BANK8   BANK9  BANK10  BANK1
      +1  BANK12  BANK13  BANK14  BANK15
 11427 ;;      Params:         0       0       0       0       0       0       0       0       0       0       0       0       
      +0       0       0       0       0
 11428 ;;      Locals:         0       0       0       0       0       0       0       0       0       0       0       0       
      +0       0       0       0       0
 11429 ;;      Temps:          0       0       0       0       0       0       0       0       0       0       0       0       
      +0       0       0       0       0
 11430 ;;      Totals:         0       0       0       0       0       0       0       0       0       0       0       0       
      +0       0       0       0       0
 11431 ;;Total ram usage:        0 bytes
 11432 ;; Hardware stack levels used:    1
 11433 ;; Hardware stack levels required when called:    2
 11434 ;; This function calls:
 11435 ;;		Absolute function
 11436 ;;		_EUSART1_DefaultErrorHandler
 11437 ;;		_EUSART1_DefaultFramingErrorHandler
 11438 ;;		_EUSART1_DefaultOverrunErrorHandler
 11439 ;;		_EUSART1_RxDataHandler
 11440 ;; This function is called by:
 11441 ;;		_EUSART1_Initialize
 11442 ;;		_INTERRUPT_InterruptManagerHigh
 11443 ;; This function uses a non-reentrant model
 11444 ;;
 11445                           
 11446                           	psect	text87
 11447  002CB8                     __ptext87:
 11448                           	opt callstack 0
 11449  002CB8                     _EUSART1_Receive_ISR:
 11450                           	opt callstack 11
 11451  002CB8                     
 11452                           ;mcc_generated_files/eusart1.c: 193:     eusart1RxStatusBuffer[eusart1RxHead].status = 0
      +                          ;
 11453  002CB8  0E60               	movlw	low _eusart1RxStatusBuffer
 11454  002CBA  2443               	addwf	_eusart1RxHead^0,w,c	;volatile
 11455  002CBC  6ED9               	movwf	fsr2l,c
 11456  002CBE  6ADA               	clrf	fsr2h,c
 11457  002CC0  0E00               	movlw	high _eusart1RxStatusBuffer
 11458  002CC2  22DA               	addwfc	fsr2h,f,c
 11459  002CC4  0E00               	movlw	0
 11460  002CC6  6EDF               	movwf	indf2,c
 11461  002CC8                     
 11462                           ;mcc_generated_files/eusart1.c: 194:     if (RCSTA1bits.FERR) {
 11463  002CC8  A4AB               	btfss	171,2,c	;volatile
 11464  002CCA  EF69  F016         	goto	i2u481_41
 11465  002CCE  EF6B  F016         	goto	i2u481_40
 11466  002CD2                     i2u481_41:
 11467  002CD2  EF7F  F016         	goto	i2l6092
 11468  002CD6                     i2u481_40:
 11469  002CD6                     
 11470                           ;mcc_generated_files/eusart1.c: 195:         eusart1RxStatusBuffer[eusart1RxHead].ferr =
      +                           1;
 11471  002CD6  0E60               	movlw	low _eusart1RxStatusBuffer
 11472  002CD8  2443               	addwf	_eusart1RxHead^0,w,c	;volatile
 11473  002CDA  6ED9               	movwf	fsr2l,c
 11474  002CDC  6ADA               	clrf	fsr2h,c
 11475  002CDE  0E00               	movlw	high _eusart1RxStatusBuffer
 11476  002CE0  22DA               	addwfc	fsr2h,f,c
 11477  002CE2  0100               	movlb	0	; () banked
 11478  002CE4  82DF               	bsf	indf2,1,c
 11479  002CE6                     
 11480                           ; BSR set to: 0
 11481                           ;mcc_generated_files/eusart1.c: 196:         EUSART1_FramingErrorHandler();
 11482  002CE6  D802               	call	i2u482_48
 11483  002CE8  EF7F  F016         	goto	i2u482_49
 11484  002CEC                     i2u482_48:
 11485  002CEC  0005               	push	
 11486  002CEE  6EFA               	movwf	pclath,c
 11487  002CF0  51B2               	movf	_EUSART1_FramingErrorHandler& (0+255),w,b
 11488  002CF2  6EFD               	movwf	tosl,c
 11489  002CF4  51B3               	movf	(_EUSART1_FramingErrorHandler+1)& (0+255),w,b
 11490  002CF6  6EFE               	movwf	tosh,c
 11491  002CF8  6AFF               	clrf	tosu,c
 11492  002CFA  50FA               	movf	pclath,w,c
 11493  002CFC  0012               	return		;indir
 11494  002CFE                     i2u482_49:
 11495  002CFE                     i2l6092:
 11496                           
 11497                           ;mcc_generated_files/eusart1.c: 198:     if (RCSTA1bits.OERR) {
 11498  002CFE  A2AB               	btfss	171,1,c	;volatile
 11499  002D00  EF84  F016         	goto	i2u483_41
 11500  002D04  EF86  F016         	goto	i2u483_40
 11501  002D08                     i2u483_41:
 11502  002D08  EF9A  F016         	goto	i2l6098
 11503  002D0C                     i2u483_40:
 11504  002D0C                     
 11505                           ;mcc_generated_files/eusart1.c: 199:         eusart1RxStatusBuffer[eusart1RxHead].oerr =
      +                           1;
 11506  002D0C  0E60               	movlw	low _eusart1RxStatusBuffer
 11507  002D0E  2443               	addwf	_eusart1RxHead^0,w,c	;volatile
 11508  002D10  6ED9               	movwf	fsr2l,c
 11509  002D12  6ADA               	clrf	fsr2h,c
 11510  002D14  0E00               	movlw	high _eusart1RxStatusBuffer
 11511  002D16  22DA               	addwfc	fsr2h,f,c
 11512  002D18  0100               	movlb	0	; () banked
 11513  002D1A  84DF               	bsf	indf2,2,c
 11514  002D1C                     
 11515                           ; BSR set to: 0
 11516                           ;mcc_generated_files/eusart1.c: 200:         EUSART1_OverrunErrorHandler();
 11517  002D1C  D802               	call	i2u484_48
 11518  002D1E  EF9A  F016         	goto	i2u484_49
 11519  002D22                     i2u484_48:
 11520  002D22  0005               	push	
 11521  002D24  6EFA               	movwf	pclath,c
 11522  002D26  51B0               	movf	_EUSART1_OverrunErrorHandler& (0+255),w,b
 11523  002D28  6EFD               	movwf	tosl,c
 11524  002D2A  51B1               	movf	(_EUSART1_OverrunErrorHandler+1)& (0+255),w,b
 11525  002D2C  6EFE               	movwf	tosh,c
 11526  002D2E  6AFF               	clrf	tosu,c
 11527  002D30  50FA               	movf	pclath,w,c
 11528  002D32  0012               	return		;indir
 11529  002D34                     i2u484_49:
 11530  002D34                     i2l6098:
 11531                           
 11532                           ;mcc_generated_files/eusart1.c: 202:     if (eusart1RxStatusBuffer[eusart1RxHead].status
      +                          ) {
 11533  002D34  0E60               	movlw	low _eusart1RxStatusBuffer
 11534  002D36  2443               	addwf	_eusart1RxHead^0,w,c	;volatile
 11535  002D38  6ED9               	movwf	fsr2l,c
 11536  002D3A  6ADA               	clrf	fsr2h,c
 11537  002D3C  0E00               	movlw	high _eusart1RxStatusBuffer
 11538  002D3E  22DA               	addwfc	fsr2h,f,c
 11539  002D40  50DF               	movf	indf2,w,c
 11540  002D42  B4D8               	btfsc	status,2,c
 11541  002D44  EFA6  F016         	goto	i2u485_41
 11542  002D48  EFA8  F016         	goto	i2u485_40
 11543  002D4C                     i2u485_41:
 11544  002D4C  EFB7  F016         	goto	i2l6102
 11545  002D50                     i2u485_40:
 11546  002D50                     
 11547                           ;mcc_generated_files/eusart1.c: 203:         EUSART1_ErrorHandler();
 11548  002D50  D802               	call	i2u486_48
 11549  002D52  EFB5  F016         	goto	i2u486_49
 11550  002D56                     i2u486_48:
 11551  002D56  0005               	push	
 11552  002D58  6EFA               	movwf	pclath,c
 11553  002D5A  0100               	movlb	0	; () banked
 11554  002D5C  51AE               	movf	_EUSART1_ErrorHandler& (0+255),w,b
 11555  002D5E  6EFD               	movwf	tosl,c
 11556  002D60  51AF               	movf	(_EUSART1_ErrorHandler+1)& (0+255),w,b
 11557  002D62  6EFE               	movwf	tosh,c
 11558  002D64  6AFF               	clrf	tosu,c
 11559  002D66  50FA               	movf	pclath,w,c
 11560  002D68  0012               	return		;indir
 11561  002D6A                     i2u486_49:
 11562                           
 11563                           ;mcc_generated_files/eusart1.c: 204:     } else {
 11564  002D6A  EFB9  F016         	goto	i2l555
 11565  002D6E                     i2l6102:
 11566                           
 11567                           ;mcc_generated_files/eusart1.c: 205:         EUSART1_RxDataHandler();
 11568  002D6E  ECFB  F015         	call	_EUSART1_RxDataHandler	;wreg free
 11569  002D72                     i2l555:
 11570  002D72  0012               	return		;funcret
 11571  002D74                     __end_of_EUSART1_Receive_ISR:
 11572                           	opt callstack 0
 11573                           
 11574 ;; *************** function _EUSART1_DefaultOverrunErrorHandler *****************
 11575 ;; Defined at:
 11576 ;;		line 239 in file "mcc_generated_files/eusart1.c"
 11577 ;; Parameters:    Size  Location     Type
 11578 ;;		None
 11579 ;; Auto vars:     Size  Location     Type
 11580 ;;		None
 11581 ;; Return value:  Size  Location     Type
 11582 ;;                  1    wreg      void 
 11583 ;; Registers used:
 11584 ;;		None
 11585 ;; Tracked objects:
 11586 ;;		On entry : 0/0
 11587 ;;		On exit  : 0/0
 11588 ;;		Unchanged: 0/0
 11589 ;; Data sizes:     COMRAM   BANK0   BANK1   BANK2   BANK3   BANK4   BANK5   BANK6   BANK7   BANK8   BANK9  BANK10  BANK1
      +1  BANK12  BANK13  BANK14  BANK15
 11590 ;;      Params:         0       0       0       0       0       0       0       0       0       0       0       0       
      +0       0       0       0       0
 11591 ;;      Locals:         0       0       0       0       0       0       0       0       0       0       0       0       
      +0       0       0       0       0
 11592 ;;      Temps:          0       0       0       0       0       0       0       0       0       0       0       0       
      +0       0       0       0       0
 11593 ;;      Totals:         0       0       0       0       0       0       0       0       0       0       0       0       
      +0       0       0       0       0
 11594 ;;Total ram usage:        0 bytes
 11595 ;; Hardware stack levels used:    1
 11596 ;; This function calls:
 11597 ;;		Nothing
 11598 ;; This function is called by:
 11599 ;;		_EUSART1_Initialize
 11600 ;;		_EUSART1_Receive_ISR
 11601 ;; This function uses a non-reentrant model
 11602 ;;
 11603                           
 11604                           	psect	text88
 11605  003DEC                     __ptext88:
 11606                           	opt callstack 0
 11607  003DEC                     _EUSART1_DefaultOverrunErrorHandler:
 11608                           	opt callstack 12
 11609  003DEC                     
 11610                           ;mcc_generated_files/eusart1.c: 241:     RCSTA1bits.CREN = 0;
 11611  003DEC  98AB               	bcf	171,4,c	;volatile
 11612                           
 11613                           ;mcc_generated_files/eusart1.c: 242:     RCSTA1bits.CREN = 1;
 11614  003DEE  88AB               	bsf	171,4,c	;volatile
 11615  003DF0  0012               	return		;funcret
 11616  003DF2                     __end_of_EUSART1_DefaultOverrunErrorHandler:
 11617                           	opt callstack 0
 11618                           
 11619 ;; *************** function _EUSART1_DefaultFramingErrorHandler *****************
 11620 ;; Defined at:
 11621 ;;		line 235 in file "mcc_generated_files/eusart1.c"
 11622 ;; Parameters:    Size  Location     Type
 11623 ;;		None
 11624 ;; Auto vars:     Size  Location     Type
 11625 ;;		None
 11626 ;; Return value:  Size  Location     Type
 11627 ;;                  1    wreg      void 
 11628 ;; Registers used:
 11629 ;;		None
 11630 ;; Tracked objects:
 11631 ;;		On entry : 0/0
 11632 ;;		On exit  : 0/0
 11633 ;;		Unchanged: 0/0
 11634 ;; Data sizes:     COMRAM   BANK0   BANK1   BANK2   BANK3   BANK4   BANK5   BANK6   BANK7   BANK8   BANK9  BANK10  BANK1
      +1  BANK12  BANK13  BANK14  BANK15
 11635 ;;      Params:         0       0       0       0       0       0       0       0       0       0       0       0       
      +0       0       0       0       0
 11636 ;;      Locals:         0       0       0       0       0       0       0       0       0       0       0       0       
      +0       0       0       0       0
 11637 ;;      Temps:          0       0       0       0       0       0       0       0       0       0       0       0       
      +0       0       0       0       0
 11638 ;;      Totals:         0       0       0       0       0       0       0       0       0       0       0       0       
      +0       0       0       0       0
 11639 ;;Total ram usage:        0 bytes
 11640 ;; Hardware stack levels used:    1
 11641 ;; This function calls:
 11642 ;;		Nothing
 11643 ;; This function is called by:
 11644 ;;		_EUSART1_Initialize
 11645 ;;		_EUSART1_Receive_ISR
 11646 ;; This function uses a non-reentrant model
 11647 ;;
 11648                           
 11649                           	psect	text89
 11650  003E0C                     __ptext89:
 11651                           	opt callstack 0
 11652  003E0C                     _EUSART1_DefaultFramingErrorHandler:
 11653                           	opt callstack 12
 11654  003E0C  0012               	return		;funcret
 11655  003E0E                     __end_of_EUSART1_DefaultFramingErrorHandler:
 11656                           	opt callstack 0
 11657                           
 11658 ;; *************** function _EUSART1_DefaultErrorHandler *****************
 11659 ;; Defined at:
 11660 ;;		line 245 in file "mcc_generated_files/eusart1.c"
 11661 ;; Parameters:    Size  Location     Type
 11662 ;;		None
 11663 ;; Auto vars:     Size  Location     Type
 11664 ;;		None
 11665 ;; Return value:  Size  Location     Type
 11666 ;;                  1    wreg      void 
 11667 ;; Registers used:
 11668 ;;		wreg, fsr2l, fsr2h, status,2, status,0, cstack
 11669 ;; Tracked objects:
 11670 ;;		On entry : 0/0
 11671 ;;		On exit  : 0/0
 11672 ;;		Unchanged: 0/0
 11673 ;; Data sizes:     COMRAM   BANK0   BANK1   BANK2   BANK3   BANK4   BANK5   BANK6   BANK7   BANK8   BANK9  BANK10  BANK1
      +1  BANK12  BANK13  BANK14  BANK15
 11674 ;;      Params:         0       0       0       0       0       0       0       0       0       0       0       0       
      +0       0       0       0       0
 11675 ;;      Locals:         0       0       0       0       0       0       0       0       0       0       0       0       
      +0       0       0       0       0
 11676 ;;      Temps:          0       0       0       0       0       0       0       0       0       0       0       0       
      +0       0       0       0       0
 11677 ;;      Totals:         0       0       0       0       0       0       0       0       0       0       0       0       
      +0       0       0       0       0
 11678 ;;Total ram usage:        0 bytes
 11679 ;; Hardware stack levels used:    1
 11680 ;; Hardware stack levels required when called:    1
 11681 ;; This function calls:
 11682 ;;		_EUSART1_RxDataHandler
 11683 ;; This function is called by:
 11684 ;;		_EUSART1_Initialize
 11685 ;;		_EUSART1_Receive_ISR
 11686 ;; This function uses a non-reentrant model
 11687 ;;
 11688                           
 11689                           	psect	text90
 11690  003DF2                     __ptext90:
 11691                           	opt callstack 0
 11692  003DF2                     _EUSART1_DefaultErrorHandler:
 11693                           	opt callstack 11
 11694  003DF2                     
 11695                           ;mcc_generated_files/eusart1.c: 246:     EUSART1_RxDataHandler();
 11696  003DF2  ECFB  F015         	call	_EUSART1_RxDataHandler	;wreg free
 11697  003DF6  0012               	return		;funcret
 11698  003DF8                     __end_of_EUSART1_DefaultErrorHandler:
 11699                           	opt callstack 0
 11700                           
 11701 ;; *************** function _EUSART1_RxDataHandler *****************
 11702 ;; Defined at:
 11703 ;;		line 210 in file "mcc_generated_files/eusart1.c"
 11704 ;; Parameters:    Size  Location     Type
 11705 ;;		None
 11706 ;; Auto vars:     Size  Location     Type
 11707 ;;		None
 11708 ;; Return value:  Size  Location     Type
 11709 ;;                  1    wreg      void 
 11710 ;; Registers used:
 11711 ;;		wreg, fsr2l, fsr2h, status,2, status,0
 11712 ;; Tracked objects:
 11713 ;;		On entry : 0/0
 11714 ;;		On exit  : 0/0
 11715 ;;		Unchanged: 0/0
 11716 ;; Data sizes:     COMRAM   BANK0   BANK1   BANK2   BANK3   BANK4   BANK5   BANK6   BANK7   BANK8   BANK9  BANK10  BANK1
      +1  BANK12  BANK13  BANK14  BANK15
 11717 ;;      Params:         0       0       0       0       0       0       0       0       0       0       0       0       
      +0       0       0       0       0
 11718 ;;      Locals:         0       0       0       0       0       0       0       0       0       0       0       0       
      +0       0       0       0       0
 11719 ;;      Temps:          1       0       0       0       0       0       0       0       0       0       0       0       
      +0       0       0       0       0
 11720 ;;      Totals:         1       0       0       0       0       0       0       0       0       0       0       0       
      +0       0       0       0       0
 11721 ;;Total ram usage:        1 bytes
 11722 ;; Hardware stack levels used:    1
 11723 ;; This function calls:
 11724 ;;		Nothing
 11725 ;; This function is called by:
 11726 ;;		_EUSART1_Receive_ISR
 11727 ;;		_EUSART1_DefaultErrorHandler
 11728 ;; This function uses a non-reentrant model
 11729 ;;
 11730                           
 11731                           	psect	text91
 11732  002BF6                     __ptext91:
 11733                           	opt callstack 0
 11734  002BF6                     _EUSART1_RxDataHandler:
 11735                           	opt callstack 12
 11736  002BF6                     
 11737                           ;mcc_generated_files/eusart1.c: 211:     if (RCREG1 == 58 && DataRx1 == 0) {
 11738  002BF6  0E3A               	movlw	58
 11739  002BF8  18AE               	xorwf	174,w,c	;volatile
 11740  002BFA  A4D8               	btfss	status,2,c
 11741  002BFC  EF02  F016         	goto	i2u439_41
 11742  002C00  EF04  F016         	goto	i2u439_40
 11743  002C04                     i2u439_41:
 11744  002C04  EF13  F016         	goto	i2l5494
 11745  002C08                     i2u439_40:
 11746  002C08  0100               	movlb	0	; () banked
 11747  002C0A  51BD               	movf	_DataRx1& (0+255),w,b
 11748  002C0C  A4D8               	btfss	status,2,c
 11749  002C0E  EF0B  F016         	goto	i2u440_41
 11750  002C12  EF0D  F016         	goto	i2u440_40
 11751  002C16                     i2u440_41:
 11752  002C16  EF13  F016         	goto	i2l5494
 11753  002C1A                     i2u440_40:
 11754  002C1A                     
 11755                           ; BSR set to: 0
 11756                           ;mcc_generated_files/eusart1.c: 212:         DataRx1 = 1;
 11757  002C1A  0E01               	movlw	1
 11758  002C1C  6FBD               	movwf	_DataRx1& (0+255),b
 11759                           
 11760                           ;mcc_generated_files/eusart1.c: 213:         caracter_count = 0;
 11761  002C1E  0E00               	movlw	0
 11762  002C20  6FBC               	movwf	_caracter_count& (0+255),b
 11763                           
 11764                           ;mcc_generated_files/eusart1.c: 214:     } else if (DataRx1) {
 11765  002C22  EF5B  F016         	goto	i2l566
 11766  002C26                     i2l5494:
 11767  002C26  0100               	movlb	0	; () banked
 11768  002C28  51BD               	movf	_DataRx1& (0+255),w,b
 11769  002C2A  B4D8               	btfsc	status,2,c
 11770  002C2C  EF1A  F016         	goto	i2u441_41
 11771  002C30  EF1C  F016         	goto	i2u441_40
 11772  002C34                     i2u441_41:
 11773  002C34  EF59  F016         	goto	i2l5514
 11774  002C38                     i2u441_40:
 11775  002C38                     
 11776                           ; BSR set to: 0
 11777                           ;mcc_generated_files/eusart1.c: 215:         eusart1RxBuffer[eusart1RxHead] = RCREG1;
 11778  002C38  0E18               	movlw	low _eusart1RxBuffer
 11779  002C3A  2443               	addwf	_eusart1RxHead^0,w,c	;volatile
 11780  002C3C  6ED9               	movwf	fsr2l,c
 11781  002C3E  6ADA               	clrf	fsr2h,c
 11782  002C40  0E01               	movlw	high _eusart1RxBuffer
 11783  002C42  22DA               	addwfc	fsr2h,f,c
 11784  002C44  CFAE FFDF          	movff	4014,indf2	;volatile
 11785                           
 11786                           ;mcc_generated_files/eusart1.c: 216:         if (eusart1RxBuffer[eusart1RxHead] == 59) {
 11787  002C48  0E18               	movlw	low _eusart1RxBuffer
 11788  002C4A  2443               	addwf	_eusart1RxHead^0,w,c	;volatile
 11789  002C4C  6ED9               	movwf	fsr2l,c
 11790  002C4E  6ADA               	clrf	fsr2h,c
 11791  002C50  0E01               	movlw	high _eusart1RxBuffer
 11792  002C52  22DA               	addwfc	fsr2h,f,c
 11793  002C54  0E3B               	movlw	59
 11794  002C56  18DE               	xorwf	postinc2,w,c
 11795  002C58  A4D8               	btfss	status,2,c
 11796  002C5A  EF31  F016         	goto	i2u442_41
 11797  002C5E  EF33  F016         	goto	i2u442_40
 11798  002C62                     i2u442_41:
 11799  002C62  EF3E  F016         	goto	i2l5504
 11800  002C66                     i2u442_40:
 11801  002C66                     
 11802                           ; BSR set to: 0
 11803                           ;mcc_generated_files/eusart1.c: 219:             usart1_busy++;
 11804  002C66  2A4B               	incf	_usart1_busy^0,f,c	;volatile
 11805  002C68                     
 11806                           ; BSR set to: 0
 11807                           ;mcc_generated_files/eusart1.c: 220:             eusart1RxBuffer[eusart1RxHead] = '\0';
 11808  002C68  0E18               	movlw	low _eusart1RxBuffer
 11809  002C6A  2443               	addwf	_eusart1RxHead^0,w,c	;volatile
 11810  002C6C  6ED9               	movwf	fsr2l,c
 11811  002C6E  6ADA               	clrf	fsr2h,c
 11812  002C70  0E01               	movlw	high _eusart1RxBuffer
 11813  002C72  22DA               	addwfc	fsr2h,f,c
 11814  002C74  0E00               	movlw	0
 11815  002C76  6EDF               	movwf	indf2,c
 11816  002C78                     
 11817                           ; BSR set to: 0
 11818                           ;mcc_generated_files/eusart1.c: 221:             DataRx1 = 0;
 11819  002C78  0E00               	movlw	0
 11820  002C7A  6FBD               	movwf	_DataRx1& (0+255),b
 11821  002C7C                     i2l5504:
 11822                           
 11823                           ; BSR set to: 0
 11824                           ;mcc_generated_files/eusart1.c: 223:         if (sizeof (eusart1RxBuffer) <= ++eusart1Rx
      +                          Head)
 11825  002C7C  2A43               	incf	_eusart1RxHead^0,f,c	;volatile
 11826  002C7E  0E17               	movlw	23
 11827  002C80  6443               	cpfsgt	_eusart1RxHead^0,c	;volatile
 11828  002C82  EF45  F016         	goto	i2u443_41
 11829  002C86  EF47  F016         	goto	i2u443_40
 11830  002C8A                     i2u443_41:
 11831  002C8A  EF49  F016         	goto	i2l5508
 11832  002C8E                     i2u443_40:
 11833  002C8E                     
 11834                           ; BSR set to: 0
 11835                           ;mcc_generated_files/eusart1.c: 224:             eusart1RxHead = 0;
 11836  002C8E  0E00               	movlw	0
 11837  002C90  6E43               	movwf	_eusart1RxHead^0,c	;volatile
 11838  002C92                     i2l5508:
 11839                           
 11840                           ; BSR set to: 0
 11841                           ;mcc_generated_files/eusart1.c: 225:         if (caracter_count >= sizeof (eusart1RxBuff
      +                          er))
 11842  002C92  0E17               	movlw	23
 11843  002C94  65BC               	cpfsgt	_caracter_count& (0+255),b
 11844  002C96  EF4F  F016         	goto	i2u444_41
 11845  002C9A  EF51  F016         	goto	i2u444_40
 11846  002C9E                     i2u444_41:
 11847  002C9E  EF55  F016         	goto	i2l5512
 11848  002CA2                     i2u444_40:
 11849  002CA2                     
 11850                           ; BSR set to: 0
 11851                           ;mcc_generated_files/eusart1.c: 226:             DataRx1 = 0;
 11852  002CA2  0E00               	movlw	0
 11853  002CA4  6FBD               	movwf	_DataRx1& (0+255),b
 11854  002CA6  EF56  F016         	goto	i2l564
 11855  002CAA                     i2l5512:
 11856                           
 11857                           ; BSR set to: 0
 11858                           ;mcc_generated_files/eusart1.c: 228:             caracter_count++;
 11859  002CAA  2BBC               	incf	_caracter_count& (0+255),f,b
 11860  002CAC                     i2l564:
 11861                           
 11862                           ; BSR set to: 0
 11863                           ;mcc_generated_files/eusart1.c: 229:         eusart1RxCount++;
 11864  002CAC  2BBF               	incf	_eusart1RxCount& (0+255),f,b	;volatile
 11865                           
 11866                           ;mcc_generated_files/eusart1.c: 230:     } else
 11867  002CAE  EF5B  F016         	goto	i2l566
 11868  002CB2                     i2l5514:
 11869                           
 11870                           ; BSR set to: 0
 11871                           ;mcc_generated_files/eusart1.c: 231:         DataRx1 = 0;
 11872  002CB2  0E00               	movlw	0
 11873  002CB4  6FBD               	movwf	_DataRx1& (0+255),b
 11874  002CB6                     i2l566:
 11875                           
 11876                           ; BSR set to: 0
 11877  002CB6  0012               	return		;funcret
 11878  002CB8                     __end_of_EUSART1_RxDataHandler:
 11879                           	opt callstack 0
 11880                           
 11881                           	psect	text92
 11882  000000                     __ptext92:
 11883                           	opt callstack 0
 11884  000000                     
 11885                           	psect	rparam
 11886  0000                     
 11887                           	psect	temp
 11888  00004C                     btemp:
 11889                           	opt callstack 0
 11890  00004C                     	ds	1
 11891  0000                     int$flags	set	btemp
 11892  0000                     wtemp8	set	btemp+1
 11893  0000                     ttemp5	set	btemp+1
 11894  0000                     ttemp6	set	btemp+4
 11895  0000                     ttemp7	set	btemp+8
 11896                           tosu	equ	0xFFF
 11897                           tosh	equ	0xFFE
 11898                           tosl	equ	0xFFD
 11899                           stkptr	equ	0xFFC
 11900                           pclatu	equ	0xFFB
 11901                           pclath	equ	0xFFA
 11902                           pcl	equ	0xFF9
 11903                           tblptru	equ	0xFF8
 11904                           tblptrh	equ	0xFF7
 11905                           tblptrl	equ	0xFF6
 11906                           tablat	equ	0xFF5
 11907                           prodh	equ	0xFF4
 11908                           prodl	equ	0xFF3
 11909                           indf0	equ	0xFEF
 11910                           postinc0	equ	0xFEE
 11911                           postdec0	equ	0xFED
 11912                           preinc0	equ	0xFEC
 11913                           plusw0	equ	0xFEB
 11914                           fsr0h	equ	0xFEA
 11915                           fsr0l	equ	0xFE9
 11916                           wreg	equ	0xFE8
 11917                           indf1	equ	0xFE7
 11918                           postinc1	equ	0xFE6
 11919                           postdec1	equ	0xFE5
 11920                           preinc1	equ	0xFE4
 11921                           plusw1	equ	0xFE3
 11922                           fsr1h	equ	0xFE2
 11923                           fsr1l	equ	0xFE1
 11924                           bsr	equ	0xFE0
 11925                           indf2	equ	0xFDF
 11926                           postinc2	equ	0xFDE
 11927                           postdec2	equ	0xFDD
 11928                           preinc2	equ	0xFDC
 11929                           plusw2	equ	0xFDB
 11930                           fsr2h	equ	0xFDA
 11931                           fsr2l	equ	0xFD9
 11932                           status	equ	0xFD8


Data Sizes:
    Strings     57
    Constant    0
    Data        0
    BSS         223
    Persistent  0
    Stack       0

Auto Spaces:
    Space          Size  Autos    Used
    COMRAM           94     56      75
    BANK0           160     60     160
    BANK1           256     13     117
    BANK2           256      0       0
    BANK3           256      0       0
    BANK4           256      0       0
    BANK5           256      0       0
    BANK6           256      0       0
    BANK7           256      0       0
    BANK8           256      0       0
    BANK9           256      0       0
    BANK10          256      0       0
    BANK11          256      0       0
    BANK12          256      0       0
    BANK13          256      0       0
    BANK14          256      0       0
    BANK15           56      0       0

Pointer List with Targets:

    strlen@s	PTR const unsigned char  size(2) Largest target is 32
		 -> dbuf(BANK1[32]), 

    strlen@a	PTR const unsigned char  size(2) Largest target is 32
		 -> dbuf(BANK1[32]), 

    printf@fmt	PTR const unsigned char  size(2) Largest target is 16
		 -> STR_16(CODE[4]), STR_15(CODE[4]), STR_14(CODE[5]), STR_13(CODE[4]), 
		 -> STR_12(CODE[4]), STR_11(CODE[4]), STR_10(CODE[4]), STR_9(CODE[4]), 
		 -> STR_8(CODE[4]), STR_7(CODE[4]), STR_6(CODE[4]), STR_5(CODE[4]), 
		 -> STR_4(CODE[4]), STR_3(CODE[4]), STR_2(CODE[4]), STR_1(CODE[16]), 

    printf@ap	PTR void [1] size(2) Largest target is 2
		 -> ?_printf(BANK1[2]), 

    fputs@s	PTR const unsigned char  size(2) Largest target is 32
		 -> dbuf(BANK1[32]), 

    fputs@fp	PTR struct _IO_FILE size(2) Largest target is 0
		 -> NULL(NULL[0]), 

    S3473_IO_FILE$buffer	PTR unsigned char  size(2) Largest target is 0

    fputc@fp.buffer	PTR unsigned char  size(2) Largest target is 0

    fputc@fp	PTR struct _IO_FILE size(2) Largest target is 0
		 -> NULL(NULL[0]), 

    vfprintf@ap	PTR PTR void  size(2) Largest target is 2
		 -> printf@ap(BANK0[2]), 

    vfprintf@fp	PTR struct _IO_FILE size(2) Largest target is 0
		 -> NULL(NULL[0]), 

    vfprintf@fmt	PTR const unsigned char  size(2) Largest target is 16
		 -> STR_16(CODE[4]), STR_15(CODE[4]), STR_14(CODE[5]), STR_13(CODE[4]), 
		 -> STR_12(CODE[4]), STR_11(CODE[4]), STR_10(CODE[4]), STR_9(CODE[4]), 
		 -> STR_8(CODE[4]), STR_7(CODE[4]), STR_6(CODE[4]), STR_5(CODE[4]), 
		 -> STR_4(CODE[4]), STR_3(CODE[4]), STR_2(CODE[4]), STR_1(CODE[16]), 

    vfprintf@cfmt	PTR unsigned char  size(2) Largest target is 16
		 -> STR_16(CODE[4]), STR_15(CODE[4]), STR_14(CODE[5]), STR_13(CODE[4]), 
		 -> STR_12(CODE[4]), STR_11(CODE[4]), STR_10(CODE[4]), STR_9(CODE[4]), 
		 -> STR_8(CODE[4]), STR_7(CODE[4]), STR_6(CODE[4]), STR_5(CODE[4]), 
		 -> STR_4(CODE[4]), STR_3(CODE[4]), STR_2(CODE[4]), STR_1(CODE[16]), 

    vfpfcnvrt@fp	PTR struct _IO_FILE size(2) Largest target is 0
		 -> NULL(NULL[0]), 

    vfpfcnvrt@ap	PTR PTR void  size(2) Largest target is 2
		 -> printf@ap(BANK0[2]), 

    vfpfcnvrt@fmt	PTR PTR unsigned char  size(2) Largest target is 2
		 -> vfprintf@cfmt(BANK0[2]), 

    dtoa@fp	PTR struct _IO_FILE size(2) Largest target is 0
		 -> NULL(NULL[0]), 

    pad@fp	PTR struct _IO_FILE size(2) Largest target is 0
		 -> NULL(NULL[0]), 

    pad@buf	PTR unsigned char  size(2) Largest target is 32
		 -> dbuf(BANK1[32]), 

    EUSART1_SetRxInterruptHandler@interruptHandler	PTR FTN()void  size(2) Largest target is 1
		 -> EUSART1_Receive_ISR(), 

    EUSART1_RxDefaultInterruptHandler	PTR FTN()void  size(2) Largest target is 1
		 -> Absolute function(), EUSART1_Receive_ISR(), 

    EUSART1_SetTxInterruptHandler@interruptHandler	PTR FTN()void  size(2) Largest target is 1
		 -> EUSART1_Transmit_ISR(), 

    EUSART1_TxDefaultInterruptHandler	PTR FTN()void  size(2) Largest target is 1
		 -> Absolute function(), EUSART1_Transmit_ISR(), 

    EUSART1_SetErrorHandler@interruptHandler	PTR FTN()void  size(2) Largest target is 1
		 -> EUSART1_DefaultErrorHandler(), 

    EUSART1_SetOverrunErrorHandler@interruptHandler	PTR FTN()void  size(2) Largest target is 1
		 -> EUSART1_DefaultOverrunErrorHandler(), 

    EUSART1_SetFramingErrorHandler@interruptHandler	PTR FTN()void  size(2) Largest target is 1
		 -> EUSART1_DefaultFramingErrorHandler(), 

    EUSART1_ErrorHandler	PTR FTN()void  size(2) Largest target is 1
		 -> Absolute function(), EUSART1_DefaultErrorHandler(), 

    EUSART1_OverrunErrorHandler	PTR FTN()void  size(2) Largest target is 1
		 -> Absolute function(), EUSART1_DefaultOverrunErrorHandler(), 

    EUSART1_FramingErrorHandler	PTR FTN()void  size(2) Largest target is 1
		 -> Absolute function(), EUSART1_DefaultFramingErrorHandler(), 

    i2c2_gets@ptrData	PTR unsigned char  size(2) Largest target is 2
		 -> BH1750_Data_Read@raw_value(BANK0[2]), 


Critical Paths under _main in COMRAM

    _init_App->_ADC_GetConversion
    _vfpfcnvrt->_dtoa
    _dtoa->_pad
    _pad->_fputs
    _fputs->_fputc
    _fputc->_putch
    _putch->_EUSART1_Write
    _abs->___aomod
    _ADC_GetConversion->___lwdiv
    _i2c2_Open->_i2c2_control
    _i2c2_gets->_i2c2_control
    _i2c2_control->_TMR0_period
    _TMR0_period->_TMR0_WriteTimer
    _TMR0_Initialize->_TMR0_WriteTimer
    _TMR0_WriteTimer->___aldiv
    _EUSART1_Initialize->_EUSART1_SetErrorHandler
    _EUSART1_Initialize->_EUSART1_SetFramingErrorHandler
    _EUSART1_Initialize->_EUSART1_SetOverrunErrorHandler
    _EUSART1_Initialize->_EUSART1_SetRxInterruptHandler
    _EUSART1_Initialize->_EUSART1_SetTxInterruptHandler
    _EPWM3_period->_EPWM3_duty_const
    _EPWM3_engine_config->_EPWM3_duty_const
    _EPWM3_duty_const->___fltol
    _EPWM2_period->_EPWM2_duty_const
    ___aldiv->___lmul
    _EPWM2_engine_config->_EPWM2_duty_const
    ___fltol->___fldiv
    ___fltol->___flmul
    ___flmul->___xxtofl
    _EPWM2_duty_const->___fldiv
    ___xxtofl->___wmul
    ___fldiv->___xxtofl

Critical Paths under _INTERRUPT_InterruptManagerLow in COMRAM

    _TMR3_Reload->_TMR3_WriteTimer
    _TMR1_Reload->_TMR1_WriteTimer

Critical Paths under _INTERRUPT_InterruptManagerHigh in COMRAM

    _INT1_ISR->_EPWM3_STOP
    _EUSART1_Receive_ISR->_EUSART1_RxDataHandler
    _EUSART1_DefaultErrorHandler->_EUSART1_RxDataHandler

Critical Paths under _main in BANK0

    _main->_azi_lim_control
    _azi_lim_control->_jump_azi_ctrl
    _jump_azi_ctrl->_printf
    _printf->_vfprintf
    _vfprintf->_vfpfcnvrt
    _vfpfcnvrt->_dtoa
    _EPWM2_engine_SoftStop->_EPWM2_engine_config
    _i2c_BH1750_init->_BH1750_measure
    _BH1750_measure->_BH1750_Data_Read
    _i2c_BH1750_open->_i2c2_Open
    _BH1750_Data_Read->___fltol
    _EPWM3_Initialize->_EPWM3_engine_config
    _EPWM3_period->_EPWM3_duty_const
    _EPWM3_engine_config->_EPWM3_duty_const
    _EPWM3_duty_const->___fltol
    _EPWM2_Initialize->_EPWM2_engine_config
    _EPWM2_engine_config->___fltol
    ___fltol->___fldiv
    ___fltol->___flmul
    _EPWM2_duty_const->___fldiv

Critical Paths under _INTERRUPT_InterruptManagerLow in BANK0

    None.

Critical Paths under _INTERRUPT_InterruptManagerHigh in BANK0

    None.

Critical Paths under _main in BANK1

    _main->_azi_lim_control
    _azi_lim_control->_printf
    _jump_azi_ctrl->_printf

Critical Paths under _INTERRUPT_InterruptManagerLow in BANK1

    None.

Critical Paths under _INTERRUPT_InterruptManagerHigh in BANK1

    None.

Critical Paths under _main in BANK2

    None.

Critical Paths under _INTERRUPT_InterruptManagerLow in BANK2

    None.

Critical Paths under _INTERRUPT_InterruptManagerHigh in BANK2

    None.

Critical Paths under _main in BANK3

    None.

Critical Paths under _INTERRUPT_InterruptManagerLow in BANK3

    None.

Critical Paths under _INTERRUPT_InterruptManagerHigh in BANK3

    None.

Critical Paths under _main in BANK4

    None.

Critical Paths under _INTERRUPT_InterruptManagerLow in BANK4

    None.

Critical Paths under _INTERRUPT_InterruptManagerHigh in BANK4

    None.

Critical Paths under _main in BANK5

    None.

Critical Paths under _INTERRUPT_InterruptManagerLow in BANK5

    None.

Critical Paths under _INTERRUPT_InterruptManagerHigh in BANK5

    None.

Critical Paths under _main in BANK6

    None.

Critical Paths under _INTERRUPT_InterruptManagerLow in BANK6

    None.

Critical Paths under _INTERRUPT_InterruptManagerHigh in BANK6

    None.

Critical Paths under _main in BANK7

    None.

Critical Paths under _INTERRUPT_InterruptManagerLow in BANK7

    None.

Critical Paths under _INTERRUPT_InterruptManagerHigh in BANK7

    None.

Critical Paths under _main in BANK8

    None.

Critical Paths under _INTERRUPT_InterruptManagerLow in BANK8

    None.

Critical Paths under _INTERRUPT_InterruptManagerHigh in BANK8

    None.

Critical Paths under _main in BANK9

    None.

Critical Paths under _INTERRUPT_InterruptManagerLow in BANK9

    None.

Critical Paths under _INTERRUPT_InterruptManagerHigh in BANK9

    None.

Critical Paths under _main in BANK10

    None.

Critical Paths under _INTERRUPT_InterruptManagerLow in BANK10

    None.

Critical Paths under _INTERRUPT_InterruptManagerHigh in BANK10

    None.

Critical Paths under _main in BANK11

    None.

Critical Paths under _INTERRUPT_InterruptManagerLow in BANK11

    None.

Critical Paths under _INTERRUPT_InterruptManagerHigh in BANK11

    None.

Critical Paths under _main in BANK12

    None.

Critical Paths under _INTERRUPT_InterruptManagerLow in BANK12

    None.

Critical Paths under _INTERRUPT_InterruptManagerHigh in BANK12

    None.

Critical Paths under _main in BANK13

    None.

Critical Paths under _INTERRUPT_InterruptManagerLow in BANK13

    None.

Critical Paths under _INTERRUPT_InterruptManagerHigh in BANK13

    None.

Critical Paths under _main in BANK14

    None.

Critical Paths under _INTERRUPT_InterruptManagerLow in BANK14

    None.

Critical Paths under _INTERRUPT_InterruptManagerHigh in BANK14

    None.

Critical Paths under _main in BANK15

    None.

Critical Paths under _INTERRUPT_InterruptManagerLow in BANK15

    None.

Critical Paths under _INTERRUPT_InterruptManagerHigh in BANK15

    None.

Call Graph Tables:

 ---------------------------------------------------------------------------------
 (Depth) Function   	        Calls       Base Space   Used Autos Params    Refs
 ---------------------------------------------------------------------------------
 (0) _main                                                 3     3      0  107962
                                             11 BANK1      2     2      0
                     _BH1750_measure
                  _SYSTEM_Initialize
                    _azi_lim_control
                           _init_App
                             _printf
 ---------------------------------------------------------------------------------
 (1) _init_App                                             1     1      0     870
                                             34 COMRAM     1     1      0
                  _ADC_GetConversion
 ---------------------------------------------------------------------------------
 (1) _azi_lim_control                                      3     3      0   43586
                                             58 BANK0      2     2      0
                                             10 BANK1      1     1      0
                  _ADC_GetConversion
              _EPWM2_engine_SoftStop
                      _jump_azi_ctrl
                             _printf
 ---------------------------------------------------------------------------------
 (2) _jump_azi_ctrl                                        2     2      0   21547
                                             56 BANK0      2     2      0
              _EPWM2_engine_SoftStop
                                _abs
                             _printf
 ---------------------------------------------------------------------------------
 (1) _printf                                              14     4     10    9542
                                             52 BANK0      4     4      0
                                              0 BANK1     10     0     10
                           _vfprintf
 ---------------------------------------------------------------------------------
 (2) _vfprintf                                             8     2      6    8021
                                             44 BANK0      8     2      6
                          _vfpfcnvrt
 ---------------------------------------------------------------------------------
 (3) _vfpfcnvrt                                           42    36      6    7548
                                             28 BANK0     16    10      6
                               _dtoa
                              _fputc
 ---------------------------------------------------------------------------------
 (4) _dtoa                                                36    26     10    5773
                                             48 COMRAM     8     8      0
                                              0 BANK0     28    18     10
                            ___aodiv
                            ___aomod
                                _abs
                                _pad
 ---------------------------------------------------------------------------------
 (5) _pad                                                 11     5      6    3417
                                             37 COMRAM    11     5      6
                              _fputc
                              _fputs
                             _strlen
 ---------------------------------------------------------------------------------
 (6) _strlen                                               4     2      2     220
                                             19 COMRAM     4     2      2
 ---------------------------------------------------------------------------------
 (6) _fputs                                                7     3      4    1537
                                             30 COMRAM     7     3      4
                              _fputc
 ---------------------------------------------------------------------------------
 (4) _fputc                                                9     5      4    1037
                                             21 COMRAM     9     5      4
                              _putch
 ---------------------------------------------------------------------------------
 (5) _putch                                                1     1      0      93
                                             20 COMRAM     1     1      0
                      _EUSART1_Write
 ---------------------------------------------------------------------------------
 (6) _EUSART1_Write                                        1     1      0      62
                                             19 COMRAM     1     1      0
                _EUSART1_is_tx_ready
 ---------------------------------------------------------------------------------
 (7) _EUSART1_is_tx_ready                                  0     0      0       0
 ---------------------------------------------------------------------------------
 (5) _abs                                                  4     2      2     273
                                             37 COMRAM     4     2      2
                            ___aomod (ARG)
 ---------------------------------------------------------------------------------
 (5) ___aomod                                             18     2     16     613
                                             19 COMRAM    18     2     16
 ---------------------------------------------------------------------------------
 (5) ___aodiv                                             26    10     16     625
                                             19 COMRAM    26    10     16
 ---------------------------------------------------------------------------------
 (3) _EPWM2_engine_SoftStop                                0     0      0   11698
                _EPWM2_engine_config
                   _EPWM2_engine_off
            _TMR0_HasOverflowOccured
                        _TMR0_Reload
                    _TMR0_StartTimer
                     _TMR0_StopTimer
                        _TMR0_period
                _TMR0_request_period
 ---------------------------------------------------------------------------------
 (4) _EPWM2_engine_off                                     0     0      0       0
                  _EPWM2_outputs_off
                     _TMR2_StopTimer
 ---------------------------------------------------------------------------------
 (2) _ADC_GetConversion                                    8     6      2     768
                                             26 COMRAM     8     6      2
                            ___lwdiv
 ---------------------------------------------------------------------------------
 (3) ___lwdiv                                              7     3      4     421
                                             19 COMRAM     7     3      4
 ---------------------------------------------------------------------------------
 (1) _SYSTEM_Initialize                                    0     0      0   44411
                     _ADC_Initialize
                   _EPWM2_Initialize
                   _EPWM3_Initialize
                 _EUSART1_Initialize
               _INTERRUPT_Initialize
              _OSCILLATOR_Initialize
             _PIN_MANAGER_Initialize
                    _TMR0_Initialize
                          _i2c2_init
                    _i2c_BH1750_init
 ---------------------------------------------------------------------------------
 (2) _i2c_BH1750_init                                      0     0      0    9553
                     _BH1750_measure
 ---------------------------------------------------------------------------------
 (3) _BH1750_measure                                      12    10      2    9553
                                             28 BANK0     12    10      2
                   _BH1750_Data_Read
                            ___lldiv
                    _i2c_BH1750_open
 ---------------------------------------------------------------------------------
 (4) _i2c_BH1750_open                                      3     3      0    1943
                                              2 BANK0      3     3      0
                          _i2c2_Open
 ---------------------------------------------------------------------------------
 (5) _i2c2_Open                                            2     1      1    1912
                                              0 BANK0      2     1      1
                       _i2c2_control
                          _i2c2_init
 ---------------------------------------------------------------------------------
 (4) ___lldiv                                             13     5      8     314
                                             19 COMRAM    13     5      8
 ---------------------------------------------------------------------------------
 (4) _BH1750_Data_Read                                     9     7      2    6580
                                             19 BANK0      9     7      2
                            ___fldiv
                            ___fltol
                           ___xxtofl
                          _i2c2_gets
 ---------------------------------------------------------------------------------
 (5) _i2c2_gets                                            4     1      3    2067
                                              0 BANK0      4     1      3
                       _i2c2_control
                          _i2c2_init
 ---------------------------------------------------------------------------------
 (6) _i2c2_init                                            0     0      0       0
 ---------------------------------------------------------------------------------
 (6) _i2c2_control                                         3     3      0    1760
                                             53 COMRAM     3     3      0
            _TMR0_HasOverflowOccured
                        _TMR0_Reload
                    _TMR0_StartTimer
                     _TMR0_StopTimer
                        _TMR0_period
                _TMR0_request_period
 ---------------------------------------------------------------------------------
 (4) _TMR0_request_period                                  0     0      0       0
 ---------------------------------------------------------------------------------
 (4) _TMR0_period                                          1     1      0    1729
                                             52 COMRAM     1     1      0
                    _TMR0_WriteTimer
 ---------------------------------------------------------------------------------
 (4) _TMR0_StopTimer                                       0     0      0       0
 ---------------------------------------------------------------------------------
 (4) _TMR0_StartTimer                                      0     0      0       0
 ---------------------------------------------------------------------------------
 (4) _TMR0_Reload                                          0     0      0       0
 ---------------------------------------------------------------------------------
 (4) _TMR0_HasOverflowOccured                              0     0      0       0
 ---------------------------------------------------------------------------------
 (2) _TMR0_Initialize                                      1     1      0    1729
                                             52 COMRAM     1     1      0
                    _TMR0_WriteTimer
 ---------------------------------------------------------------------------------
 (5) _TMR0_WriteTimer                                      7     5      2    1667
                                             45 COMRAM     7     5      2
                            ___aldiv
                             ___lmul
 ---------------------------------------------------------------------------------
 (6) ___lmul                                              12     4      8     456
                                             19 COMRAM    12     4      8
 ---------------------------------------------------------------------------------
 (2) _PIN_MANAGER_Initialize                               0     0      0       0
 ---------------------------------------------------------------------------------
 (2) _OSCILLATOR_Initialize                                0     0      0       0
 ---------------------------------------------------------------------------------
 (2) _INTERRUPT_Initialize                                 0     0      0       0
                       _EXT_INT_init
 ---------------------------------------------------------------------------------
 (3) _EXT_INT_init                                         0     0      0       0
 ---------------------------------------------------------------------------------
 (2) _EUSART1_Initialize                                   0     0      0     490
            _EUSART1_SetErrorHandler
     _EUSART1_SetFramingErrorHandler
     _EUSART1_SetOverrunErrorHandler
      _EUSART1_SetRxInterruptHandler
      _EUSART1_SetTxInterruptHandler
 ---------------------------------------------------------------------------------
 (3) _EUSART1_SetTxInterruptHandler                        2     0      2      98
                                             19 COMRAM     2     0      2
 ---------------------------------------------------------------------------------
 (3) _EUSART1_SetRxInterruptHandler                        2     0      2      98
                                             19 COMRAM     2     0      2
 ---------------------------------------------------------------------------------
 (3) _EUSART1_SetOverrunErrorHandler                       2     0      2      98
                                             19 COMRAM     2     0      2
 ---------------------------------------------------------------------------------
 (3) _EUSART1_SetFramingErrorHandler                       2     0      2      98
                                             19 COMRAM     2     0      2
 ---------------------------------------------------------------------------------
 (3) _EUSART1_SetErrorHandler                              2     0      2      98
                                             19 COMRAM     2     0      2
 ---------------------------------------------------------------------------------
 (2) _EPWM3_Initialize                                     1     1      0   17192
                                             33 BANK0      1     1      0
                _EPWM3_engine_config
                  _EPWM3_outputs_off
                       _EPWM3_period
                     _TMR4_StopTimer
                    _TMR4_WriteTimer
 ---------------------------------------------------------------------------------
 (3) _TMR4_WriteTimer                                      1     1      0      22
                                             19 COMRAM     1     1      0
 ---------------------------------------------------------------------------------
 (3) _TMR4_StopTimer                                       0     0      0       0
 ---------------------------------------------------------------------------------
 (3) _EPWM3_period                                         3     3      0    6262
                                             23 BANK0      3     3      0
                   _EPWM3_duty_const
            _TMR4_LoadPeriodRegister
                            ___aldiv
 ---------------------------------------------------------------------------------
 (4) _TMR4_LoadPeriodRegister                              1     1      0      22
                                             19 COMRAM     1     1      0
 ---------------------------------------------------------------------------------
 (3) _EPWM3_outputs_off                                    0     0      0       0
 ---------------------------------------------------------------------------------
 (3) _EPWM3_engine_config                                 10     9      1   10846
                                             23 BANK0     10     9      1
                   _EPWM3_duty_const
                            ___flmul
                            ___fltol
                           ___xxtofl
 ---------------------------------------------------------------------------------
 (4) _EPWM3_duty_const                                     5     1      4    5100
                                             55 COMRAM     1     1      0
                                             19 BANK0      4     0      4
                            ___fldiv
                            ___fltol
                             ___wmul
                           ___xxtofl
 ---------------------------------------------------------------------------------
 (2) _EPWM2_Initialize                                     1     1      0   15447
                                             29 BANK0      1     1      0
                _EPWM2_engine_config
                  _EPWM2_outputs_off
                       _EPWM2_period
                     _TMR2_StopTimer
                    _TMR2_WriteTimer
 ---------------------------------------------------------------------------------
 (3) _TMR2_WriteTimer                                      1     1      0      22
                                             19 COMRAM     1     1      0
 ---------------------------------------------------------------------------------
 (5) _TMR2_StopTimer                                       0     0      0       0
 ---------------------------------------------------------------------------------
 (3) _EPWM2_period                                         3     3      0    5394
                                             13 BANK0      3     3      0
                   _EPWM2_duty_const
            _TMR2_LoadPeriodRegister
                            ___aldiv
 ---------------------------------------------------------------------------------
 (6) ___aldiv                                             14     6      8     985
                                             31 COMRAM    14     6      8
                             ___lmul (ARG)
 ---------------------------------------------------------------------------------
 (4) _TMR2_LoadPeriodRegister                              1     1      0      31
                                             19 COMRAM     1     1      0
 ---------------------------------------------------------------------------------
 (5) _EPWM2_outputs_off                                    0     0      0       0
 ---------------------------------------------------------------------------------
 (4) _EPWM2_engine_config                                 10     9      1    9969
                                             19 BANK0     10     9      1
                   _EPWM2_duty_const
                            ___flmul
                            ___fltol
                           ___xxtofl
 ---------------------------------------------------------------------------------
 (5) ___fltol                                             10     6      4     877
                                             51 COMRAM     4     0      4
                                             13 BANK0      6     6      0
                            ___fldiv (ARG)
                            ___flmul (ARG)
                           ___xxtofl (ARG)
 ---------------------------------------------------------------------------------
 (5) ___flmul                                             25    17      8    3053
                                             39 COMRAM    12     4      8
                                              0 BANK0     13    13      0
                           ___xxtofl (ARG)
 ---------------------------------------------------------------------------------
 (5) _EPWM2_duty_const                                     5     1      4    4223
                                             51 COMRAM     5     1      4
                            ___fldiv
                             ___wmul
                           ___xxtofl
 ---------------------------------------------------------------------------------
 (5) ___xxtofl                                            14    10      4    1106
                                             25 COMRAM    14    10      4
                             ___wmul (ARG)
 ---------------------------------------------------------------------------------
 (6) ___wmul                                               6     2      4     692
                                             19 COMRAM     6     2      4
 ---------------------------------------------------------------------------------
 (6) ___fldiv                                             25    17      8    2363
                                             39 COMRAM    12     4      8
                                              0 BANK0     13    13      0
                             ___wmul (ARG)
                           ___xxtofl (ARG)
 ---------------------------------------------------------------------------------
 (2) _ADC_Initialize                                       0     0      0       0
 ---------------------------------------------------------------------------------
 Estimated maximum stack depth 7
 ---------------------------------------------------------------------------------
 (Depth) Function   	        Calls       Base Space   Used Autos Params    Refs
 ---------------------------------------------------------------------------------
 (13) _INTERRUPT_InterruptManagerLow                       7     7      0     328
                                             12 COMRAM     7     7      0
                   Absolute function *
               _EUSART1_Transmit_ISR *
                           _INT2_ISR
                           _TMR1_ISR
                           _TMR3_ISR
 ---------------------------------------------------------------------------------
 (14) _TMR3_ISR                                            0     0      0     164
                        _TMR3_Reload
 ---------------------------------------------------------------------------------
 (15) _TMR3_Reload                                         0     0      0     164
                    _TMR3_WriteTimer
 ---------------------------------------------------------------------------------
 (16) _TMR3_WriteTimer                                     2     0      2     164
                                             10 COMRAM     2     0      2
 ---------------------------------------------------------------------------------
 (14) _TMR1_ISR                                            0     0      0     164
                        _TMR1_Reload
 ---------------------------------------------------------------------------------
 (15) _TMR1_Reload                                         0     0      0     164
                    _TMR1_WriteTimer
 ---------------------------------------------------------------------------------
 (16) _TMR1_WriteTimer                                     2     0      2     164
                                             10 COMRAM     2     0      2
 ---------------------------------------------------------------------------------
 (14) _INT2_ISR                                            0     0      0       0
 ---------------------------------------------------------------------------------
 (14) _EUSART1_Transmit_ISR                                0     0      0       0
 ---------------------------------------------------------------------------------
 (19) Absolute function(Fake)                              0     0      0       0
 ---------------------------------------------------------------------------------
 Estimated maximum stack depth 19
 ---------------------------------------------------------------------------------
 (Depth) Function   	        Calls       Base Space   Used Autos Params    Refs
 ---------------------------------------------------------------------------------
 (17) _INTERRUPT_InterruptManagerHigh                      6     6      0      45
                                              4 COMRAM     6     6      0
                   Absolute function *
                _EUSART1_Receive_ISR *
                           _INT0_ISR
                           _INT1_ISR
 ---------------------------------------------------------------------------------
 (18) _INT1_ISR                                            0     0      0      45
                         _EPWM3_STOP
 ---------------------------------------------------------------------------------
 (19) _EPWM3_STOP                                          4     4      0      45
                                              0 COMRAM     4     4      0
 ---------------------------------------------------------------------------------
 (18) _INT0_ISR                                            0     0      0       0
 ---------------------------------------------------------------------------------
 (18) _EUSART1_Receive_ISR                                 0     0      0       0
                   Absolute function *
        _EUSART1_DefaultErrorHandler *
 _EUSART1_DefaultFramingErrorHandler *
 _EUSART1_DefaultOverrunErrorHandler *
              _EUSART1_RxDataHandler
 ---------------------------------------------------------------------------------
 (19) _EUSART1_DefaultOverrunErrorHandler                  0     0      0       0
 ---------------------------------------------------------------------------------
 (19) _EUSART1_DefaultFramingErrorHandler                  0     0      0       0
 ---------------------------------------------------------------------------------
 (19) _EUSART1_DefaultErrorHandler                         0     0      0       0
              _EUSART1_RxDataHandler
 ---------------------------------------------------------------------------------
 (19) _EUSART1_RxDataHandler                               1     1      0       0
                                              0 COMRAM     1     1      0
 ---------------------------------------------------------------------------------
 (19) Absolute function(Fake)                              0     0      0       0
 ---------------------------------------------------------------------------------
 Estimated maximum stack depth 19
 ---------------------------------------------------------------------------------

 Call Graph Graphs:

 _main (ROOT)
   _BH1750_measure
     _BH1750_Data_Read
       ___fldiv
         ___wmul (ARG)
         ___xxtofl (ARG)
           ___wmul (ARG)
       ___fltol
         ___fldiv (ARG)
           ___wmul (ARG)
           ___xxtofl (ARG)
             ___wmul (ARG)
         ___flmul (ARG)
           ___xxtofl (ARG)
             ___wmul (ARG)
         ___xxtofl (ARG)
           ___wmul (ARG)
       ___xxtofl
         ___wmul (ARG)
       _i2c2_gets
         _i2c2_control
           _TMR0_HasOverflowOccured
           _TMR0_Reload
           _TMR0_StartTimer
           _TMR0_StopTimer
           _TMR0_period
             _TMR0_WriteTimer
               ___aldiv
                 ___lmul (ARG)
               ___lmul
           _TMR0_request_period
         _i2c2_init
     ___lldiv
     _i2c_BH1750_open
       _i2c2_Open
         _i2c2_control
           _TMR0_HasOverflowOccured
           _TMR0_Reload
           _TMR0_StartTimer
           _TMR0_StopTimer
           _TMR0_period
             _TMR0_WriteTimer
               ___aldiv
                 ___lmul (ARG)
               ___lmul
           _TMR0_request_period
         _i2c2_init
   _SYSTEM_Initialize
     _ADC_Initialize
     _EPWM2_Initialize
       _EPWM2_engine_config
         _EPWM2_duty_const
           ___fldiv
             ___wmul (ARG)
             ___xxtofl (ARG)
               ___wmul (ARG)
           ___wmul
           ___xxtofl
             ___wmul (ARG)
         ___flmul
           ___xxtofl (ARG)
             ___wmul (ARG)
         ___fltol
           ___fldiv (ARG)
             ___wmul (ARG)
             ___xxtofl (ARG)
               ___wmul (ARG)
           ___flmul (ARG)
             ___xxtofl (ARG)
               ___wmul (ARG)
           ___xxtofl (ARG)
             ___wmul (ARG)
         ___xxtofl
           ___wmul (ARG)
       _EPWM2_outputs_off
       _EPWM2_period
         _EPWM2_duty_const
           ___fldiv
             ___wmul (ARG)
             ___xxtofl (ARG)
               ___wmul (ARG)
           ___wmul
           ___xxtofl
             ___wmul (ARG)
         _TMR2_LoadPeriodRegister
         ___aldiv
           ___lmul (ARG)
       _TMR2_StopTimer
       _TMR2_WriteTimer
     _EPWM3_Initialize
       _EPWM3_engine_config
         _EPWM3_duty_const
           ___fldiv
             ___wmul (ARG)
             ___xxtofl (ARG)
               ___wmul (ARG)
           ___fltol
             ___fldiv (ARG)
               ___wmul (ARG)
               ___xxtofl (ARG)
                 ___wmul (ARG)
             ___flmul (ARG)
               ___xxtofl (ARG)
                 ___wmul (ARG)
             ___xxtofl (ARG)
               ___wmul (ARG)
           ___wmul
           ___xxtofl
             ___wmul (ARG)
         ___flmul
           ___xxtofl (ARG)
             ___wmul (ARG)
         ___fltol
           ___fldiv (ARG)
             ___wmul (ARG)
             ___xxtofl (ARG)
               ___wmul (ARG)
           ___flmul (ARG)
             ___xxtofl (ARG)
               ___wmul (ARG)
           ___xxtofl (ARG)
             ___wmul (ARG)
         ___xxtofl
           ___wmul (ARG)
       _EPWM3_outputs_off
       _EPWM3_period
         _EPWM3_duty_const
           ___fldiv
             ___wmul (ARG)
             ___xxtofl (ARG)
               ___wmul (ARG)
           ___fltol
             ___fldiv (ARG)
               ___wmul (ARG)
               ___xxtofl (ARG)
                 ___wmul (ARG)
             ___flmul (ARG)
               ___xxtofl (ARG)
                 ___wmul (ARG)
             ___xxtofl (ARG)
               ___wmul (ARG)
           ___wmul
           ___xxtofl
             ___wmul (ARG)
         _TMR4_LoadPeriodRegister
         ___aldiv
           ___lmul (ARG)
       _TMR4_StopTimer
       _TMR4_WriteTimer
     _EUSART1_Initialize
       _EUSART1_SetErrorHandler
       _EUSART1_SetFramingErrorHandler
       _EUSART1_SetOverrunErrorHandler
       _EUSART1_SetRxInterruptHandler
       _EUSART1_SetTxInterruptHandler
     _INTERRUPT_Initialize
       _EXT_INT_init
     _OSCILLATOR_Initialize
     _PIN_MANAGER_Initialize
     _TMR0_Initialize
       _TMR0_WriteTimer
         ___aldiv
           ___lmul (ARG)
         ___lmul
     _i2c2_init
     _i2c_BH1750_init
       _BH1750_measure
         _BH1750_Data_Read
           ___fldiv
             ___wmul (ARG)
             ___xxtofl (ARG)
               ___wmul (ARG)
           ___fltol
             ___fldiv (ARG)
               ___wmul (ARG)
               ___xxtofl (ARG)
                 ___wmul (ARG)
             ___flmul (ARG)
               ___xxtofl (ARG)
                 ___wmul (ARG)
             ___xxtofl (ARG)
               ___wmul (ARG)
           ___xxtofl
             ___wmul (ARG)
           _i2c2_gets
             _i2c2_control
               _TMR0_HasOverflowOccured
               _TMR0_Reload
               _TMR0_StartTimer
               _TMR0_StopTimer
               _TMR0_period
                 _TMR0_WriteTimer
                   ___aldiv
                     ___lmul (ARG)
                   ___lmul
               _TMR0_request_period
             _i2c2_init
         ___lldiv
         _i2c_BH1750_open
           _i2c2_Open
             _i2c2_control
               _TMR0_HasOverflowOccured
               _TMR0_Reload
               _TMR0_StartTimer
               _TMR0_StopTimer
               _TMR0_period
                 _TMR0_WriteTimer
                   ___aldiv
                     ___lmul (ARG)
                   ___lmul
               _TMR0_request_period
             _i2c2_init
   _azi_lim_control
     _ADC_GetConversion
       ___lwdiv
     _EPWM2_engine_SoftStop
       _EPWM2_engine_config
         _EPWM2_duty_const
           ___fldiv
             ___wmul (ARG)
             ___xxtofl (ARG)
               ___wmul (ARG)
           ___wmul
           ___xxtofl
             ___wmul (ARG)
         ___flmul
           ___xxtofl (ARG)
             ___wmul (ARG)
         ___fltol
           ___fldiv (ARG)
             ___wmul (ARG)
             ___xxtofl (ARG)
               ___wmul (ARG)
           ___flmul (ARG)
             ___xxtofl (ARG)
               ___wmul (ARG)
           ___xxtofl (ARG)
             ___wmul (ARG)
         ___xxtofl
           ___wmul (ARG)
       _EPWM2_engine_off
         _EPWM2_outputs_off
         _TMR2_StopTimer
       _TMR0_HasOverflowOccured
       _TMR0_Reload
       _TMR0_StartTimer
       _TMR0_StopTimer
       _TMR0_period
         _TMR0_WriteTimer
           ___aldiv
             ___lmul (ARG)
           ___lmul
       _TMR0_request_period
     _jump_azi_ctrl
       _EPWM2_engine_SoftStop
         _EPWM2_engine_config
           _EPWM2_duty_const
             ___fldiv
               ___wmul (ARG)
               ___xxtofl (ARG)
                 ___wmul (ARG)
             ___wmul
             ___xxtofl
               ___wmul (ARG)
           ___flmul
             ___xxtofl (ARG)
               ___wmul (ARG)
           ___fltol
             ___fldiv (ARG)
               ___wmul (ARG)
               ___xxtofl (ARG)
                 ___wmul (ARG)
             ___flmul (ARG)
               ___xxtofl (ARG)
                 ___wmul (ARG)
             ___xxtofl (ARG)
               ___wmul (ARG)
           ___xxtofl
             ___wmul (ARG)
         _EPWM2_engine_off
           _EPWM2_outputs_off
           _TMR2_StopTimer
         _TMR0_HasOverflowOccured
         _TMR0_Reload
         _TMR0_StartTimer
         _TMR0_StopTimer
         _TMR0_period
           _TMR0_WriteTimer
             ___aldiv
               ___lmul (ARG)
             ___lmul
         _TMR0_request_period
       _abs
         ___aomod (ARG)
       _printf
         _vfprintf
           _vfpfcnvrt
             _dtoa
               ___aodiv
               ___aomod
               _abs
                 ___aomod (ARG)
               _pad
                 _fputc
                   _putch
                     _EUSART1_Write
                       _EUSART1_is_tx_ready
                 _fputs
                   _fputc
                     _putch
                       _EUSART1_Write
                         _EUSART1_is_tx_ready
                 _strlen
             _fputc
               _putch
                 _EUSART1_Write
                   _EUSART1_is_tx_ready
     _printf
       _vfprintf
         _vfpfcnvrt
           _dtoa
             ___aodiv
             ___aomod
             _abs
               ___aomod (ARG)
             _pad
               _fputc
                 _putch
                   _EUSART1_Write
                     _EUSART1_is_tx_ready
               _fputs
                 _fputc
                   _putch
                     _EUSART1_Write
                       _EUSART1_is_tx_ready
               _strlen
           _fputc
             _putch
               _EUSART1_Write
                 _EUSART1_is_tx_ready
   _init_App
     _ADC_GetConversion
       ___lwdiv
   _printf
     _vfprintf
       _vfpfcnvrt
         _dtoa
           ___aodiv
           ___aomod
           _abs
             ___aomod (ARG)
           _pad
             _fputc
               _putch
                 _EUSART1_Write
                   _EUSART1_is_tx_ready
             _fputs
               _fputc
                 _putch
                   _EUSART1_Write
                     _EUSART1_is_tx_ready
             _strlen
         _fputc
           _putch
             _EUSART1_Write
               _EUSART1_is_tx_ready

 _INTERRUPT_InterruptManagerLow (ROOT)
   Absolute function(Fake) *
   _EUSART1_Transmit_ISR *
   _INT2_ISR *
   _TMR1_ISR *
     _TMR1_Reload
       _TMR1_WriteTimer
   _TMR3_ISR *
     _TMR3_Reload
       _TMR3_WriteTimer

 _INTERRUPT_InterruptManagerHigh (ROOT)
   Absolute function(Fake) *
   _EUSART1_Receive_ISR *
     Absolute function(Fake) *
     _EUSART1_DefaultErrorHandler *
       _EUSART1_RxDataHandler
     _EUSART1_DefaultFramingErrorHandler *
     _EUSART1_DefaultOverrunErrorHandler *
     _EUSART1_RxDataHandler *
   _INT0_ISR *
   _INT1_ISR *
     _EPWM3_STOP

 Address spaces:
Name               Size   Autos  Total    Cost      Usage
BIGRAM             F37      0       0      37        0.0%
EEDATA             400      0       0       0        0.0%
BITBANK14          100      0       0      33        0.0%
BANK14             100      0       0      34        0.0%
BITBANK13          100      0       0      31        0.0%
BANK13             100      0       0      32        0.0%
BITBANK12          100      0       0      29        0.0%
BANK12             100      0       0      30        0.0%
BITBANK11          100      0       0      27        0.0%
BANK11             100      0       0      28        0.0%
BITBANK10          100      0       0      25        0.0%
BANK10             100      0       0      26        0.0%
BITBANK9           100      0       0      23        0.0%
BANK9              100      0       0      24        0.0%
BITBANK8           100      0       0      21        0.0%
BANK8              100      0       0      22        0.0%
BITBANK7           100      0       0      19        0.0%
BANK7              100      0       0      20        0.0%
BITBANK6           100      0       0      17        0.0%
BANK6              100      0       0      18        0.0%
BITBANK5           100      0       0      15        0.0%
BANK5              100      0       0      16        0.0%
BITBANK4           100      0       0      13        0.0%
BANK4              100      0       0      14        0.0%
BITBANK3           100      0       0      10        0.0%
BANK3              100      0       0      11        0.0%
BITBANK2           100      0       0       8        0.0%
BANK2              100      0       0       9        0.0%
BITBANK1           100      0       0       6        0.0%
BANK1              100      D      75       7       45.7%
BITBANK0            A0      0       0       4        0.0%
BANK0               A0     3C      A0       5      100.0%
BITCOMRAM           5E      0       0       0        0.0%
COMRAM              5E     38      4B       1       79.8%
BITBANK15           38      0       0      35        0.0%
BANK15              38      0       0      36        0.0%
BITSFR_1             0      0       0     200        0.0%
SFR_1                0      0       0     200        0.0%
BITSFR               0      0       0     200        0.0%
SFR                  0      0       0     200        0.0%
STACK                0      0       0       2        0.0%
NULL                 0      0       0       0        0.0%
ABS                  0      0     160      12        0.0%
DATA                 0      0     160       3        0.0%
CODE                 0      0       0       0        0.0%


Microchip Technology PIC18 Macro Assembler V2.10 build 88905656 
Symbol Table                                                                                   Mon Nov 30 08:32:32 2020

                                   ?_EPWM3_STOP 0001                        _eusart1TxBufferRemaining 0044  
                                             _T 00BB                                    ___fldiv@aexp 00D0  
                                  ___fldiv@bexp 00CF                                    ___fldiv@sign 00C8  
               __end_of_TMR0_HasOverflowOccured 3D2C                                              l42 3CDC  
                                            l45 3CEA                                              l39 3B4C  
                                            l82 39E8                         __size_of_BH1750_measure 012A  
                                            bsr 000FE0                             ___wmul@multiplicand 0016  
                               _timer0ReloadVal 00AC                                    __CFG_CP0$OFF 000000  
                                  __CFG_CP1$OFF 000000                                    __CFG_CP2$OFF 000000  
                                  __CFG_CP3$OFF 000000                                _EPWM2_engine_off 3C1A  
                                           l305 3C3C                                             l163 315A  
                                           l171 2156                                             l420 2AB4  
                                           l157 3736                                             l149 33B6  
                                           l325 3618                                             l270 3444  
                                           l174 3DEA                                             l422 2ACC  
                                           l327 3644                                             l512 3D00  
                                           l418 2B32                                             l371 2EF8  
                                           l284 354A                                             l292 241A  
                                           l700 3DFA                                             l372 2F7A  
                                           l509 35C8                                             l373 2EFA  
                                           l278 37AE                                             l710 3D64  
                                           l382 2978                                             l542 3D6E  
                                           l295 3E06                                             l391 2A28  
                                           l375 2F08                                             l535 3908  
                                           l368 3CB6                                             l392 2A2A  
                                           l536 391E                                             l633 3D3C  
                                           l713 3D2A                                             l393 2A2C  
                                           l377 2F40                                             l386 2A54  
                                           l707 30BE                                             l395 2A3A  
                                           l539 394A                                             l636 3C9A  
                                           l396 2A42                                             l388 29C8  
                                           l581 3D8C                                             l397 2A44  
                                           l590 3D82                                             l902 3320  
                                           l584 3DA0                                             l841 3DA8  
                                           l578 3D96                                             l587 3D78  
                                           l691 3D16                                             l907 2ED2  
                                           l844 3DB0                                             l790 3DC0  
                                           l838 3DE4                                             l694 3DDE  
                                           l918 2544                                             l784 3E02  
                                           l688 3CD2                                             l865 3C5C  
                                           l697 3DFE                                             l873 34C8  
                                           l787 3DB8                                             l892 3AE6  
                                           l869 3468                                    __CFG_CPB$OFF 000000  
                                           _PR2 000FBB                                             _PR4 000F52  
                                  __CFG_CPD$OFF 000000                                     _usart1_busy 004B  
                               _timer1ReloadVal 00AA                                             _abs 3A2E  
                              ?_i2c_BH1750_init 0001                                             _pad 2B34  
                              ?_i2c_BH1750_open 0001                                             tosl 000FFD  
                                           wreg 000FE8                        __end_of_EPWM2_Initialize 3446  
                                  ___flmul@aexp 00C5                                    ___flmul@bexp 00CA  
                                  ___flmul@sign 00C4                                    ___flmul@temp 00CF  
                                  ___flmul@prod 00CB                                   ?_EPWM2_period 0001  
                                  __CFG_LVP$OFF 000000                                   ?_EPWM3_period 0001  
                                  ___fltol@exp1 00D6                                            ?_abs 0026  
                                          l1213 2B78                                            l1216 2BBA  
                                          l1224 18A4                                            l1080 31E4  
                                          l1218 2BF4                                            l1226 18AC  
                                          l1162 2668                                            l1251 1CA6  
                                          l1155 36BE                                            l1083 31F4  
                                          l1340 2774                                            l1244 1AE6  
                                          l1261 3C18                                            l1272 387C  
                                          l1273 388C                                            l1257 38E8  
                                          l1258 38F0                                 _timer3ReloadVal 00A8  
                                          l1295 301E                                            l1375 1FE2  
                                          l1288 300E                                            l1388 22BA  
                                          l1558 287C                                            l1752 381A  
                                          l1930 1DF2                                            l1843 1802  
                                          l1923 1D96                                            l1916 1CFE  
                                          l1845 1662                                            l1854 16A8  
                                          l1919 1E5A                                            l1759 3822  
                                          l1951 328A                                            l1856 1720  
                                          l1848 1626                                            l5400 3DE6  
                                          l5232 3DAC                                            l1936 3A64  
                                          l7000 186E                                            l1857 170E  
                                          l1882 12F8                                            l7010 18C6  
                                          l7002 187C                                            l1875 1102  
                                          l1939 3A6C                                            l7100 1536  
                                          l1892 1428                                            l1884 1370  
                                          l5340 2F8C                                            l1972 3B1C  
                                          l7020 18F2                                            l7012 18D4  
                                          l7004 187E                                            l1885 135E  
                                          l7102 154C                                            l5350 2FCE  
                                          l5342 2FA2                                            l7030 1A02  
                                          l7022 1974                                            l7014 18DA  
                                          l7006 1898                                            l1966 3BA2  
                                          ?_pad 0026                                            l1879 1466  
                                          l1959 3A2C                                            l7120 15A0  
                                          l7104 155C                                            l7112 157C  
                                          l7200 1CAA                                            l5520 3C94  
                                          l5352 2FEC                                            l5344 2FAA  
                                          l7040 1A74                                            l7032 1A20  
                                          l7024 197C                                            l7016 18E2  
                                          l7008 18B4                                            l7130 15F2  
                                          l7122 15BA                                            l7114 158C  
                                          l7106 1564                                            l7202 1CBA  
                                          l5418 3DB4                                            l5354 2FFC  
                                          l5346 2FB6                                            l5338 2F7C  
                                          l7050 1AAE                                            l7042 1A82  
                                          l7034 1A3A                                            l7026 1982  
                                          l7018 18EC                                            l7140 164E  
                                          l7132 1602                                            l7124 15CA  
                                          l7116 158C                                            l7108 1568  
                                          l7220 1D80                                            l7212 1D38  
                                          l7204 1CC8                                            l5460 3D8E  
                                          l5356 2FFE                                            l5348 2FC4  
                                          l7044 1A88                                            l7052 1ABE  
                                          l7036 1A54                                            l7028 19E6  
                                          l7150 168E                                            l7142 1650  
                                          l7134 1616                                            l7126 15DA  
                                          l7070 1496                                            l7062 1468  
                                          l7230 1E00                                            l7222 1D8C  
                                          l7214 1D40                                            l7206 1D0E  
                                          l5462 3D84                                            l5518 3C7E  
                                          l5630 39A4                                            l7310 29A8  
                                          l7302 2976                                            l5358 3008  
                                          l7046 1A9A                                            l7038 1A62  
                                          l8110 3164                                            l7160 16CA  
                                          l7152 1698                                            l7144 1660  
                                          l7136 1624                                            l7128 15EA  
                                          l7080 14D0                                            l7072 14A6  
                                          l7064 1476                                            l7056 3BF4  
                                          l7240 1E48                                            l7232 1E02  
                                          l7224 1DC8                                            l7216 1D4C  
                                          l7208 1D24                                            l7400 106A  
                                          l5464 3D98                                            l5456 3D7A  
                                          l5800 3584                                            l5640 3D36  
                                          l5632 39E6                                            l7304 2986  
                                          l7048 1AA6                                            l8120 31A2  
                                          l8112 3174                                            l8104 315C  
                                          l7170 173C                                            l7162 16D8  
                                          l7154 16A6                                            l7146 1672  
                                          l7138 1630                                            l7090 14FC  
                                          l7082 14D6                                            l7074 14B6  
                                          l7066 1484                                            l7058 3C10  
                                          l7242 1E4A                                            l7234 1E06  
                                          l7226 1DD4                                            l7218 1D7E  
                                          l7250 34CC                                            l7410 10A6  
                                          l7402 107A                                            l5394 3DE0  
                                          l5458 3D70                                            l5810 35B2  
                                          l5802 3590                                            l5642 3D38  
                                          l7330 29E4                                            l7322 29CA  
                                          l7314 29AE                                            l7306 298E  
                                          l8130 31EC                                            l8122 31BA  
                                          l8114 3176                                            l8210 287E  
                                          l5740 3C3E                                            l7180 17A8  
                                          l7172 174A                                            l7164 1706  
                                          l7148 1688                                            l7156 16B8  
                                          l7092 150C                                            l7084 14DC  
                                          l7076 14B8                                            l7068 1486  
                                          l7236 1E2A                                            l7228 1DE2  
                                          l7252 34DC                                            l7500 13C8  
                                          l7420 10DC                                            l7412 10AC  
                                          l7404 108A                                            l5396 3DA4  
                                          l5820 35C6                                            l5812 35B6  
                                          l5804 359C                                            l5644 3D3A  
                                          l5636 3D2C                                            l5628 3CD4  
                                          l7332 29F0                                            l7308 29A4  
                                          l7260 2EEE                                            l6700 321A  
                                          l8124 31C2                                            l8116 3186  
                                          l8220 288E                                            l8212 2882  
                                          l5750 3C58                                            l5742 3C48  
                                          l7190 17F6                                            l7182 17C2  
                                          l7174 1774                                            l7158 16C6  
                                          l7094 151C                                            l7086 14EA  
                                          l7078 14C0                                            l7238 1E3A  
                                          l7254 353A                                            l7510 143C  
                                          l7502 13E2                                            l7422 10EC  
                                          l7414 10BA                                            l7406 1090  
                                          l7246 3E00                                            l5814 35BA  
                                          l5806 35A8                                            l5638 3D32  
                                          l6710 3824                                            l7342 2A10  
                                          l7334 29F6                                            l7262 2EF2  
                                          l6702 3224                                            l7350 1AE8  
                                          l8150 25B4                                            l8142 257A  
                                          l8134 254A                                            l8126 31D8  
                                          l8118 3190                                            l8230 28FE  
                                          l8222 28A2                                            l8214 2884  
                                          l5744 3C4C                                            l7192 17F8  
                                          l7184 17DE                                            l7168 1730  
                                          l7176 1778                                            l7096 151E  
                                          l7088 14EC                                            l7512 144A  
                                          l7504 13F6                                            l7440 116E  
                                          l7432 1136                                            l7424 10F2  
                                          l7416 10BC                                            l7408 10A0  
                                          l7248 3E04                                            l6720 266A  
                                          l5816 35BE                                            l5808 35AE  
                                          l6712 3834                                            l6800 3DDA  
                                          l7344 2A22                                            l6704 3242  
                                          l7360 1B58                                            l7352 1B0E  
                                          l8152 25C4                                            l8144 2592  
                                          l8136 2560                                            l8128 31E0  
                                          l8232 2904                                            l8224 28D0  
                                          l8216 2886                                            l5746 3C50  
                                          l7186 17E2                                            l7178 1792  
                                          l7098 1526                                            l7514 144C  
                                          l7506 1410                                            l7450 11B8  
                                          l7442 1186                                            l7434 1142  
                                          l7426 1112                                            l7418 10CC  
                                          l7530 27CC                                            l7522 2776  
                                          l6730 269E                                            l6722 266E  
                                          l5818 35C2                                            l6714 3842  
                                          l6810 3D5A                                            l7346 2A52  
                                          l7290 2F5E                                            l7282 2F44  
                                          l7274 2F26                                            l7266 2F0C  
                                          l7258 2ED8                                            l7610 3C38  
                                          l7602 3C1A                                            l6706 3278  
                                          l7370 1C24                                            l7362 1B7E  
                                          l7354 1B1C                                            l8170 2612  
                                          l8154 25C8                                            l8146 25A2  
                                          l8138 2574                                            l8234 2914  
                                          l8242 293A                                            l8218 288A  
                                          l5748 3C54                                            l7188 17F0  
                                          l7508 142C                                            l7516 1452  
                                          l7460 120E                                            l7452 11C8  
                                          l7444 1192                                            l7436 114C  
                                          l7428 1122                                            l7532 27CE  
                                          l7524 278E                                            l6740 26E0  
                                          l6732 26AE                                            l6724 267C  
                                          l7700 213E                                            l5780 3552  
                                          l6716 3852                                            l6812 3D60  
                                          l6804 3D04                                            l7620 32AA  
                                          l7604 3C2A                                            l6900 218A  
                                          l7380 1C62                                            l7372 1C32  
                                          l7364 1BC6                                            l7356 1B2E  
                                          l8172 2620                                            l8164 25E6  
                                          l8148 25A6                                            l8236 2924  
                                          l8228 28EE                                            l7518 1456  
                                          l7470 12B2                                            l7462 122A  
                                          l7454 11D4                                            l7446 119E  
                                          l7438 1162                                            l7534 27DE  
                                          l6750 2732                                            l6742 26EC  
                                          l6734 26B2                                            l6726 268C  
                                          l7710 376A                                            l5790 3572  
                                          l5782 3554                                            l6718 385C  
                                          l6822 3DF8                                            l6806 3D12  
                                          l7630 3318                                            l7622 32B6  
                                          l7614 3290                                            l7606 3C2C  
                                          l6910 21E2                                            l6902 218E  
                                          l6830 2B42                                            l7374 1C46  
                                          l7358 1B32                                            l8174 2630  
                                          l8166 25FE                                            l8158 25CE  
                                          l8182 2638                                            l8238 2934  
                                          l7480 1308                                            l7472 12C0  
                                          l7464 1236                                            l7456 11E4  
                                          l7448 11AC                                            l7392 103C  
                                          l7560 285C                                            l7544 2808  
                                          l7536 27E2                                            l7528 27A2  
                                          l6760 2764                                            l6752 2734  
                                          l6744 26FA                                            l6736 26C2  
                                          l6728 2690                                            l7712 37A2  
                                          l7704 373C                                            l5792 3576  
                                          l5784 3560                                            l6816 3DFC  
                                          l7616 3294                                            l7800 37CA  
                                          l7608 3C34                                            l7720 35DE  
                                          l6920 2264                                            l6912 21F6  
                                          l6904 219C                                            l6824 3A2E  
                                          l6680 3930                                            l6672 38F4  
                                          l6840 2B98                                            l6832 2B56  
                                          l7368 1BFE                                            l7384 1C6E  
                                          l8168 260E                                            l8184 2666  
                                          l7482 1316                                            l7474 12DE  
                                          l7466 1252                                            l7458 11FE  
                                          l7394 104A                                            l7562 286C  
                                          l7554 2830                                            l7546 2812  
                                          l7538 27F0                                            l6754 273E  
                                          l6746 2704                                            l6738 26D8  
                                          l7706 3750                                            l7570 3130  
                                          l5794 357A                                            l5786 3562  
                                          l5778 354C                                            l6770 304E  
                                          l6818 3D18                                            l6930 3C9C  
                                          l7298 2F78                                            l7618 329E  
                                          l7626 32C2                                            l7810 3804  
                                          l7802 37D2                                            l7730 361A  
                                          l7722 35F2                                            l6850 1E5C  
                                          l6914 2204                                            l6922 226A  
                                          l6906 21BC                                            l6826 3A48  
                                          l6682 3932                                            l6674 38F4  
                                          l6842 2B9C                                            l6834 2B64  
                                          l7386 1C94                                            l7378 1C54  
                                          l7492 1380                                            l7484 131A  
                                          l7476 12E8                                            l7468 127C  
                                          l7396 1058                                            l7556 283C  
                                          l7548 281C                                            l7580 22E8  
                                          l6748 2722                                            l6756 2744  
                                          l7708 3760                                            l7820 33C0  
                                          l7572 314A                                            l7900 33A8  
                                          l5796 357E                                            l5788 356E  
                                          l6772 305A                                            l6764 3022  
                                          l6940 2A6C                                            l6932 3CAC  
                                          l7636 331E                                            l7628 32FE  
                                          l7812 380C                                            l7804 37DA  
                                          l7740 363E                                            l7732 361E  
                                          l7724 35FC                                            l7716 35CA  
                                          l6860 1EA0                                            l6852 1E60  
                                          l6924 227A                                            l6916 2232  
                                          l6908 21DA                                            l6668 3CEC  
                                          l6684 3942                                            l6676 3916  
                                          l6692 3D68                                            l6844 2BC8  
                                          l6836 2B70                                            l6828 2B34  
                                          l7494 138C                                            l7486 1328  
                                          l7478 12F6                                            l7398 105A  
                                          l7558 284C                                            l7590 2388  
                                          l7582 22F8                                            l6758 2754  
                                          l7830 33EA                                            l7822 33C2  
                                          l7566 30C2                                            l7670 36C4  
                                          l7902 33AA                                            l5798 3582  
                                          l6774 30A4                                            l6766 3032  
                                          l7910 3CBA                                            l6950 2A9A  
                                          l6942 2A76                                            l6934 3CB2  
                                          l7654 2E64                                            l7646 2E2E  
                                          l7750 2450                                            l7814 380E  
                                          l7806 37E8                                            l7742 3642  
                                          l7734 3628                                            l7726 3600  
                                          l7718 35DA                                            l6870 1EF6  
                                          l6862 1EC0                                            l6854 1E6E  
                                          l6926 229A                                            l6918 2252  
                                          l6686 3946                                            l6678 3920  
                                          l6782 39EA                                            l6790 3AE8  
                                          l6846 2BDC                                            l6838 2B84  
                                          l7662 388E                                            l7496 139A  
                                          l7488 1356                                            l7592 23F0  
                                          l7584 2348                                            l7576 22C0  
                                          l7840 33FE                                            l7832 33F0  
                                          l7824 33C4                                            l7568 30D2  
                                          l7672 36D8                                            l7904 33AE  
                                          l6776 30A8                                            l6768 303E  
                                          l7912 3CBE                                            l6960 2AC2  
                                          l6952 2AA8                                            l6944 2A7A  
                                          l7656 2E6A                                            l7648 2E52  
                                          l7760 248A                                            l7752 2458  
                                          l7920 3AAE                                            l7816 3814  
                                          l7808 37EE                                            l7736 362A  
                                          l7728 3604                                            l6880 1F78  
                                          l6872 1F0A                                            l6864 1EC4  
                                          l6856 1E8E                                            l6688 3948  
                                          l6696 31F6                                            l6784 39F6  
                                          l6792 3AF4                                            l7664 3896  
                                          l7498 13C4                                            l7594 240A  
                                          l7586 2362                                            l7578 22D6  
                                          l7850 3430                                            l7842 3406  
                                          l7834 33F4                                            l7826 33C8  
                                          l7818 33BC                                            l7690 2070  
                                          l7682 1FE8                                            l7674 36E8  
                                          l7906 33B2                                            l6778 30AC  
                                          l7914 3CC0                                            l6970 2ADE  
                                          l6962 2AC6                                            l6954 2AAC  
                                          l6946 2A7C                                            l6938 2A58  
                                          l7658 2E80                                            l7770 24DA  
                                          l7754 2466                                            l7746 2420  
                                          l7930 3ADA                                            l7922 3AB4  
                                          l7738 363A                                            l6890 1FC2  
                                          l6882 1F7A                                            l6874 1F18  
                                          l6866 1ED0                                            l6858 1E92  
                                          l6698 3208                                            l6786 3A08  
                                          l6794 3AF8                                            l7666 38A4  
                                          l8562 2950                                            l7588 2376  
                                          l7860 3440                                            l7852 3434  
                                          l7844 340E                                            l7836 33F8  
                                          l7828 33E0                                            l7692 208C  
                                          l7684 1FFE                                            l7676 36F2  
                                          l7916 3CCE                                            l6956 2AAE  
                                          l6980 2B16                                            l6948 2A84  
                                          l7780 2500                                            l7772 24DE  
                                          l7764 249E                                            l7756 2476  
                                          l7748 243A                                            l7924 3AB8  
                                          l7940 3476                                            l6884 1F8C  
                                          l6876 1F2A                                            l6868 1EEE  
                                          l6788 3A0C                                            l6796 3B10  
                                          l7668 38CA                                            l8564 2650  
                                          l7598 3DBC                                            l7854 3436  
                                          l7846 3426                                            l7838 33FC  
                                          l7694 20A8                                            l7686 2010  
                                          l7678 372A                                            l7870 332E  
                                          l6982 2B2A                                            l8566 32D8  
                                          l7782 2504                                            l7766 24B8  
                                          l7758 2486                                            l7926 3AC2  
                                          l7942 3492                                            l7934 3448  
                                          l6878 1F58                                            l6886 1F92  
                                          l6894 2158                                            l7790 3B7C  
                                          l7950 3646                                            l7856 3438  
                                          l7848 342A                                            l7696 20BA  
                                          l7688 2020                                            l7880 3364  
                                          l7872 3334                                            l7864 3326  
                                          l6984 2B2E                                            l8568 2AF8  
                                          l6968 2ADA                                            l7784 2516  
                                          l7768 24C6                                            l7928 3ACE  
                                          l7944 349C                                            l7936 3454  
                                          l6888 1FA2                                            l6896 215C  
                                          l7792 3B86                                            l7960 3694  
                                          l7952 3658                                            l7858 343C  
                                          l7698 2122                                            l7890 337E  
                                          l7882 3368                                            l7874 334E  
                                          l7866 332A                                            l6986 2B30  
                                          l6978 2AE4                                            l7786 251E  
                                          l7778 24EE                                            l7946 34AE  
                                          l7938 3466                                            l6898 216A  
                                          l6994 1804                                            l7962 36A4  
                                          l7954 3670                                            l7892 3398  
                                          l7884 336C                                            l7876 3358  
                                          l7868 332C                                            l7980 3B2A  
                                          l7796 37B0                                            l6996 1824  
                                          l7964 36A8                                            l7956 3678  
                                          l7894 339C                                            l7886 336E  
                                          l7878 335E                                            l7990 3B44  
                                          l7982 3B30                                            l7798 37B8  
                                          l6998 184E                                            l7958 3690  
                                          l7974 36BC                                            l7966 36B6  
                                          l7896 33A2                                            l7888 3376  
                                          l7992 3B48                                            l7984 3B36  
                                          l7898 33A6                                            l7986 3B3A  
                                          l7978 3B1E                                            l7988 3B40  
                                          STR_1 1001                                            STR_2 1026  
                                          STR_3 1032                                            STR_4 1036  
                                          STR_5 101E                                            STR_6 101A  
                                          STR_7 1022                                            STR_8 102E  
                                          _LATA 000F89                                            _LATB 000F8A  
                                          _LATC 000F8B                                            _LATD 000F8C  
                                          _LATE 000F8D                                            u4230 2FA2  
                                          u4231 2F9E                                            u4240 2FC4  
                                          u6000 187C                                            u4241 2FC0  
                                          u6001 1878                                            u4250 2FEC  
                                          u6010 1898                                            u4251 2FE8  
                                          u6011 1894                                            u6100 1A82  
                                          u6020 18C6                                            u6101 1A7E  
                                          u6021 18C2                                            u6110 1A9A  
                                          u6030 18D4                                            u6111 1A96  
                                          u6031 18D0                                            u6200 1602  
                                          u6120 1484                                            u7000 2010  
                                          u6040 1A02                                            u6201 15FE  
                                          u6121 1480                                            u7001 200C  
                                          u6041 19FE                                            u6210 1624  
                                          u6130 1496                                            u7010 2020  
                                          u6050 1A20                                            u6211 1620  
                                          u6131 1492                                            u7011 201C  
                                          u6051 1A1C                                            u6300 1730  
                                          u6220 164E                                            u6140 14A6  
                                          u7020 20BA                                            u7100 2476  
                                          u6060 1A3A                                            u6301 172C  
                                          u6221 164A                                            u6141 14A2  
                                          u7021 20B6                                            u7101 2472  
                                          u6061 1A36                                            u6310 174A  
                                          u6230 1672                                            u6150 14EA  
                                          u7030 3750                                            u4550 3CEA  
                                          u7110 2486                                            u5510 3CFE  
                                          u6070 1A54                                            u6311 1746  
                                          u6231 166E                                            u6151 14E6  
                                          u7031 374C                                            u4551 3CE6  
                                          u7111 2482                                            u5511 3CF8  
                                          u6071 1A50                                            u6320 1792  
                                          u6240 1688                                            u6160 14FC  
                                          u6400 1DE2                                            u7040 3760  
                                          u5600 3842                                            u7120 24DA  
                                          u7200 34AE                                            u5520 3D00  
                                          u6080 1A62                                            u6321 178E  
                                          u6241 1684                                            u6161 14F8  
                                          u6401 1DDE                                            u7041 375C  
                                          u5601 383E                                            u7121 24D6  
                                          u7201 34AA                                            u6081 1A5E  
                                          u6330 17C2                                            u6250 16A6  
                                          u6170 150C                                            u6410 1DF2  
                                          u5610 387C                                            u7130 2516  
                                          u7050 35DA                                            u5530 3908  
                                          u6090 1A74                                            u7210 3658  
                                          u6331 17BE                                            u6251 16A2  
                                          u6171 1508                                            u6411 1DEE  
                                          u5611 3878                                            u7131 2512  
                                          u7051 35D6                                            u5531 3904  
                                          u6091 1A70                                            u7211 3654  
                                          u6340 17F0                                            u6260 16C6  
                                          u6180 154C                                            u6420 1E00  
                                          u5620 267C                                            u6500 2F5A  
                                          u7140 37CA                                            u7060 35F2  
                                          u5540 3916                                            u5700 3A2C  
                                          u7220 3690                                            u6341 17EC  
                                          u6261 16C2                                            u6181 1548  
                                          u6421 1DFC                                            u5621 2678  
                                          u6501 2F56                                            u7141 37C6  
                                          u7061 35EE                                            u5541 3912  
                                          u5701 3A28                                            u7221 368C  
                                          u6270 16D8                                            u6190 158C  
                                          u6430 1E3A                                            u6350 1CBA  
                                          u5630 269E                                            u6510 2F74  
                                          u7150 37E8                                            u7070 3618  
                                          u5550 3942                                            u5710 3B10  
                                          u7230 36A4                                            u6271 16D4  
                                          u6191 1588                                            u6431 1E36  
                                          u6351 1CB6                                            u5631 269A  
                                          u6511 2F70                                            u7151 37E4  
                                          u7071 3614                                            u5551 393E  
                                          u5711 3B0C                                            u7231 36A0  
                                          u6280 1706                                            u6440 1E48  
                                          u6360 1CC8                                            u5640 26D8  
                                          u5720 3D28                                            u6520 2986  
                                          u7160 3804                                            u7080 363A  
                                          u5560 3208                                            u6600 1B0E  
                                          u7400 2592                                            u6281 1702  
                                          u6441 1E44                                            u6361 1CC4  
                                          u5641 26D4                                            u5721 3D22  
                                          u6521 2982                                            u7161 3800  
                                          u7081 3636                                            u5801 1ECA  
                                          u5561 3204                                            u6601 1B0A  
                                          u7401 258E                                            u6290 171C  
                                          u6370 1D24                                            u6450 34DC  
                                          u5650 26FA                                            u7170 33E0  
                                          u6530 29A4                                            u7090 2450  
                                          u5810 1EEE                                            u5730 3A48  
                                          u5570 321A                                            u6610 1B58  
                                          u7410 25A2                                            u6291 1718  
                                          u6371 1D20                                            u6451 34D8  
                                          u5651 26F6                                            u7171 33DC  
                                          u6531 29A0                                            u7091 244C  
                                          u5811 1EEA                                            u5731 3A44  
                                          u5571 3216                                            u6611 1B54  
                                          u7411 259E                                            u6380 1D7A  
                                          u6700 1112                                            u5660 2722  
                                          u7180 334E                                            u6540 29C4  
                                          u6460 2EEE                                            u5820 1F18  
                                          u5900 227A                                            u5580 3242  
                                          u5740 2B42                                            u6620 1B7E  
                                          u7420 25C4                                            u7500 28FE  
                                          u6381 1D76                                            u6701 110E  
                                          u5661 271E                                            u7181 334A  
                                          u6541 29C0                                            u6461 2EEA  
                                          u5821 1F14                                            u5901 2276  
                                          u5581 323E                                            u5741 2B3E  
                                          u6621 1B7A                                            u7421 25C0  
                                          u7501 28FA                                            u6390 1DC4  
                                          u6710 1122                                            u5670 2754  
                                          u5726 3D2A                                            u5910 2A6C  
                                          u6550 29E0                                            u6470 2F08  
                                          u7190 3476                                            u5830 1F58  
                                          u5590 3278                                            u5750 2B64  
                                          u6630 1C24                                            u7430 25E2  
                                          u7510 2914                                            u6391 1DC0  
                                          u6711 111E                                            u5671 2750  
                                          u5911 2A68                                            u6551 29DC  
                                          u6471 2F04                                            u7191 3472  
                                          u5831 1F54                                            u5591 3274  
                                          u5751 2B60                                            u6631 1C20  
                                          u7431 25DE                                            u7511 2910  
                                          u6800 13E2                                            u6720 129C  
                                          u6640 1058                                            u5680 3032  
                                          u5920 2A9A                                            u6560 2A0C  
                                          u6480 2F22                                            u5840 1FA2  
                                          u5760 2BBA                                            u7440 25FE  
                                          u7360 3186                                            u7520 2924  
                                          u6801 13DE                                            u6641 1054  
                                          u5681 302E                                            u5921 2A96  
                                          u6561 2A08                                            u6481 2F1E  
                                          u5841 1F9E                                            u5761 2BB6  
                                          u7441 25FA                                            u7361 3182  
                                          u7521 2920                                            u6810 1410  
                                          u6730 12F6                                            u6650 106A  
                                          u5690 304E                                            u5930 2AA8  
                                          u6570 2A22                                            u6490 2F3C  
                                          u5850 216A                                            u5770 2BC8  
                                          u7450 260E                                            u7370 31BA  
                                          u7530 2934                                            u6811 140C  
                                          u6731 12F2                                            u6651 1066  
                                          u5691 304A                                            u5931 2AA4  
                                          u6571 2A1E                                            u6491 2F38  
                                          u5851 2166                                            u5771 2BC4  
                                          u7451 260A                                            u7371 31B6  
                                          u7531 2930                                            u6820 144A  
                                          u6740 1316                                            u6660 107A  
                                          u6900 30D2                                            u5940 2AC2  
                                          u6580 2A3A                                            u5780 1E6E  
                                          u5860 219C                                            u7460 2630  
                                          u7380 31D8                                            u6821 1446  
                                          u6741 1312                                            u6725 1292  
                                          u6661 1076                                            u6901 30CE  
                                          u5941 2ABE                                            u6581 2A36  
                                          u5781 1E6A                                            u5861 2198  
                                          u7461 262C                                            u7381 31D4  
                                          u6750 1328                                            u6670 10BA  
                                          u6830 278E                                            u6910 22E8  
                                          u5950 2ADA                                            u6590 2A52  
                                          u5790 1EA0                                            u5870 21DA  
                                          u7390 2574                                            u6751 1324  
                                          u6671 10B6                                            u6831 278A  
                                          u6911 22E4                                            u5951 2AD6  
                                          u6591 2A4E                                            u5791 1E9C  
                                          u5871 21D6                                            u7391 2570  
                                          u6760 1356                                            u6680 10CC  
                                          u6840 27C2                                            u6920 22F8  
                                          u5960 2B2A                                            u5880 2204  
                                          u6761 1352                                            u6681 10C8  
                                          u6921 22F4                                            u5961 2B26  
                                          u5881 2200                                            u6770 136C  
                                          u6690 10DC                                            u6850 27F0  
                                          u6930 2388                                            u5890 2232  
                                          u5970 1836                                            u6771 1368  
                                          u6691 10D8                                            u6851 27EC  
                                          u6931 2384                                            u5891 222E  
                                          u5971 1830                                            u6780 1380  
                                          u6860 2804                                            u6940 3C2A  
                                          u5980 1838                                            u6781 137C  
                                          u6861 2800                                            u6845 27B8  
                                          u6941 3C26                                            u6790 139A  
                                          u6870 282C                                            u6950 3318  
                                          u5990 184E                                            u6791 1396  
                                          u6871 2828                                            u6951 3314  
                                          u7807 3496                                            u5991 184A  
                                          u6880 284C                                            u6960 2E52  
                                          u6881 2848                                            u6961 2E4E  
                                          u7817 24AA                                            u6890 285C  
                                          u6970 38E8                                            u6891 2858  
                                          u6971 38E4                                            u6980 36D8  
                                          u6981 36D4                                            u6990 36E8  
                                          u6991 36E4                                            u7797 28DC  
                                          _TMR2 000FBC                                            _TMR4 000F53  
                           azi_lim_control@move 0172                                            _WPUB 000F61  
                                 _EUSART1_Write 38F2                                   __CFG_FCMEN$ON 000000  
                                          abs@a 0026                                            _dbuf 0148  
                                          _main 287E                                            _dtoa 1804  
                                          _prec 00A6                                 _TMR0_StartTimer 3DFC  
                                          _nout 00A2                                            pad@i 002D  
                                          pad@p 002A                                            fsr1h 000FE2  
                                          fsr2h 000FDA                                            indf2 000FDF  
                                          fsr1l 000FE1                                            pad@w 002F  
                                          fsr2l 000FD9                                            btemp 004C  
                                 __CFG_BORV$220 000000                                            prodh 000FF4  
                                          prodl 000FF3                                            start 00FC  
                                 __CFG_IESO$OFF 000000                                 ___fldiv@new_exp 00C9  
                      __end_of_EPWM3_Initialize 33B8                  fp__EUSART1_DefaultErrorHandler 0000  
                                  ___param_bank 000000                            __end_of_i2c2_control 2B34  
                     ADC_GetConversion@averaged 001B                     __end_of_TMR0_request_period 3DE0  
                          EPWM2_Initialize@freq 00E1                                           ??_abs 0028  
                   EPWM3_engine_config@interval 00DE                                           ??_pad 002C  
            EPWM2_engine_config@pulse_width_bit 00DF                         __end_of_TMR0_Initialize 3CD4  
                              __end_of_INT0_ISR 3E0C                                __end_of_INT1_ISR 3DDA  
                              _EPWM2_duty_const 34CA                                __end_of_INT2_ISR 3C7E  
                __size_of_OSCILLATOR_Initialize 0018                   __end_of_OSCILLATOR_Initialize 3CEC  
                         _eusart1RxStatusBuffer 0060                                   ___fltol@sign1 00D5  
                               __end_of___aldiv 2776                                 __end_of___aodiv 1FE4  
                                         ?_main 0001                                           ?_dtoa 00C4  
                               __end_of___aomod 22BC                                 __end_of___fldiv 1804  
                                         _EEADR 000FA9                                           STR_12 1016  
                                         STR_14 1011                                           STR_15 102A  
                                         STR_16 102A                                 __end_of___flmul 1468  
                               __end_of___fltol 287E                                 __end_of___lldiv 3020  
                                         _T0CON 000FD5                                           _T1CON 000FCD  
                                         _T3CON 000FB1                                 __end_of___lwdiv 3824  
                                         i2l209 39A2                                           i1l545 3AAA  
                                         i1l548 3AAC                                           i1l820 3BCA  
                               _TMR0_WriteTimer 3020                                           i1l662 005A  
                                         i1l647 3C7C                                           i1l743 3BF2  
                                         i1l823 3D4A                                           i1l663 00DC  
                                         i1l664 0094                                           i1l746 3D58  
                                         i1l826 3DC8                                           i1l666 00B8  
                                         i1l749 3DD0                                           i1l669 00DC  
                                         i2l642 3DD8                                           i2l555 2D72  
                                         i2l564 2CAC                                           i2l572 3DF0  
                                         i2l652 2DB0                                           i2l653 2E0E  
                                         i2l566 2CB6                                           i2l654 2DEA  
                                         i2l575 3DF6                                           i2l639 3E0A  
                                         i2l569 3E0C                                           i2l657 2E0E  
                              i2c2_Open@address 00C4                                    vfpfcnvrt@fmt 00E2  
                                         _TMR0H 000FD7                                           _TMR1H 000FCF  
                                         _TMR0L 000FD6                                           _TMR1L 000FCE  
                                         _TMR3H 000FB3                                           _TMR3L 000FB2  
                                         _PORTD 000F83                                           _TRISA 000F92  
                                         _TRISB 000F93                                           _TRISC 000F94  
                                         _TRISD 000F95                                           _TRISE 000F96  
                                 __CFG_WRT0$OFF 000000                                   __CFG_WRT1$OFF 000000  
                                 __CFG_WRT2$OFF 000000                             ___lmul@multiplicand 0018  
                                 __CFG_WRT3$OFF 000000                            _EUSART1_Transmit_ISR 3A6E  
                                __CFG_EBTR0$OFF 000000                                  __CFG_EBTR1$OFF 000000  
                                __CFG_EBTR2$OFF 000000                                  __CFG_EBTR3$OFF 000000  
                                ??_EPWM2_period 00D1                                __end_of_TMR1_ISR 3DD2  
                                 __CFG_WRTB$OFF 000000                                __end_of_TMR3_ISR 3DCA  
                                 __CFG_WRTC$OFF 000000                                   __CFG_WRTD$OFF 000000  
                                ??_EPWM3_period 00DB                                  __CFG_EBTRB$OFF 000000  
                                         _flags 003C                                           _fputc 31F6  
                                         _fputs 39EA                             __size_of_EPWM3_STOP 0058  
                            __CFG_MCLRE$EXTMCLR 000000                                           pad@fp 0026  
                                         _width 00A4                                           _putch 3D66  
                                         dtoa@d 00C6                                           dtoa@i 00DE  
                                         dtoa@n 00D6                                           dtoa@p 00D0  
                                         dtoa@s 00D4                                           dtoa@w 00D2  
                                ?_EUSART1_Write 0001                                           pclath 000FFA  
                              _EPWM3_duty_const 30C0                                           tablat 000FF5  
                                         ttemp5 004D                                           ttemp6 0050  
                                         ttemp7 0054                                           status 000FD8  
                                         wtemp8 004D                            EPWM2_duty_const@freq 0038  
                                __CFG_HFOFST$ON 000000                __size_of_TMR2_LoadPeriodRegister 0008  
                                __CFG_FOSC$HSMP 000000           fp__EUSART1_DefaultFramingErrorHandler 0000  
    __end_of_EUSART1_DefaultFramingErrorHandler 3E0E     __size_of_EUSART1_DefaultFramingErrorHandler 0002  
          ??_EUSART1_DefaultFramingErrorHandler 0001             ?_EUSART1_DefaultFramingErrorHandler 0001  
            _EUSART1_DefaultFramingErrorHandler 3E0C                                 _TMR1_WriteTimer 3BCC  
                ?_INTERRUPT_InterruptManagerLow 0001                                 __initialization 3B4E  
                    __end_of_EUSART1_Initialize 35CA                                    __end_of_main 2972  
                                  __end_of_dtoa 1AE8                                          ??_main 0173  
                                        ??_dtoa 0031                              __size_of_i2c2_Open 00A8  
                                 __activetblptr 000003                              __size_of_i2c2_gets 00E4  
                            __size_of_i2c2_init 001C                                  __CFG_PLLCFG$ON 000000  
                               _TMR2_WriteTimer 3DB2                             _EPWM2_engine_config 22BC  
                          EPWM3_Initialize@freq 00E5                        ?_TMR4_LoadPeriodRegister 0001  
                             ?_BH1750_Data_Read 00D7                           ?_EUSART1_Transmit_ISR 0001  
                         TMR0_Initialize@period 0035                              ??_BH1750_Data_Read 00D9  
                         __end_of_jump_azi_ctrl 36C0                         __end_of_TMR0_StartTimer 3E00  
                                        _ADCON0 000FC2                                          _ADCON1 000FC1  
                                        _ADCON2 000FC0                                          ?_fputc 0016  
                                        ?_fputs 001F                                          _ADRESH 000FC4  
                                        _EEADRH 000FAA                                          _ADRESL 000FC3  
                                        _EEDATA 000FA8                                          _CCPR2L 000F67  
                                        _CCPR3L 000F5E                                          _EECON2 000FA7  
                                        _ANSELA 000F38                                          ?_putch 0001  
                                        _ANSELB 000F39                                          _ANSELC 000F3A  
                                        _ANSELD 000F3B                                          _ANSELE 000F3C  
                                        _T1GCON 000FCC                                          _T3GCON 000FB4  
                       TMR1_WriteTimer@timerVal 000B                                          i1l6120 3C7A  
                                        i1l6114 3C5E                                          i1l6130 3DCA  
                                        i1l6116 3C70                                          i1l6132 3DCC  
                                        i1l6124 3DC2                                          i1l6300 0076  
                                        i1l6118 3C76                                          i1l6126 3DC4  
                                        i1l6302 00A2                                          i1l6080 3AA0  
                                        i1l6072 3A6E                                          i1l6304 00B0  
                                        i1l6082 3AA4                                          i1l6074 3A7E  
                                        i1l5530 3BE0                                          i1l6306 00C6  
                                        i1l6076 3A8E                                          i1l5532 3BE4  
                                        i1l5524 3BCC                                          i1l5540 3BA4  
                                        i1l6308 00D4                                          i1l6078 3A90  
                                        i1l5526 3BDA                                          i1l5534 3BEA  
                                        i1l5542 3BB2                                          i1l5550 3BC2  
                               _azi_lim_control 2546                                          i1l5536 3BEE  
                                        i1l5528 3BDC                                          i1l5552 3BC6  
                                        i1l5544 3BB4                                          i1l5546 3BB8  
                                        i1l5548 3BBC                                          i1l6292 0036  
                                        i1l6294 0044                                  __CFG_WDTEN$OFF 000000  
                                        i1l6296 0052                                          i1l6298 0068  
                                        i2l6100 2D50                                          i2l6102 2D6E  
                                        i2l6110 3DD6                                          i2l6106 3E08  
                                        i2l5500 2C68                                          i2l6108 3DD2  
                                        i1l5884 3D4C                                          i2l5510 2CA2  
                                        i2l5502 2C78                                          i2l5512 2CAA  
                                        i2l5504 2C7C                                          i1l5888 3D3E  
                                        i2l5506 2C8E                                          i2l5514 2CB2  
                                        i2l6090 2CE6                                          i2l5508 2C92  
                                        i2l6092 2CFE                                          i2l6084 2CB8  
                                        i2l6094 2D0C                                          i2l6086 2CC8  
                                        i2l6096 2D1C                                          i2l6088 2CD6  
                                        i2l6280 2DA8                                          i2l5490 2C08  
                                        i2l6098 2D34                                          i2l6282 2DBE  
                                        i2l5492 2C1A                                          i2l6284 2DCC  
                                        i2l6276 2D8C                                          i2l5494 2C26  
                                        i2l6286 2DF8                                          i2l6278 2D9A  
                       TMR4_WriteTimer@timerVal 0014                                          i2l5496 2C38  
                                        i2l5488 2BF6                                          i2l6288 2E06  
                                        i2l5498 2C66                                          i2l5850 3974  
                                        i2l5860 399A                                          i2l5852 3984  
                                        i2l5862 399E                                          i2l5854 3992  
                                        i2l5846 394C                                          i2l5880 3DEC  
                                        i2l5856 3994                                          i2l5848 395A  
                                        i2l5882 3DF2                                          i2l5858 3998  
                                        _RCREG1 000FAE                                          _RCSTA1 000FAB  
                                        _OSCCON 000FD3                    __size_of_EUSART1_is_tx_ready 0016  
              __size_of_TMR0_HasOverflowOccured 0014                                          _SPBRG1 000FAF  
                                        _TXREG1 000FAD                                __end_of___xxtofl 1E5C  
                         EPWM2_period@freq_lure 00C0                                          _TXSTA1 000FAC  
                          ?_EPWM2_engine_config 00D7                                 _TMR3_WriteTimer 3BA4  
                  __size_of_EPWM3_engine_config 0174                                  __CFG_PWRTEN$ON 000000  
                                __CFG_XINST$OFF 000000                                    _CCPTMRS0bits 000F49  
                                  vfprintf@cfmt 00F6                                    ?_TMR0_Reload 0001  
                                        ___lmul 3824                            EPWM3_duty_const@freq 0038  
                                  ?_TMR1_Reload 0001                                       ??___aldiv 0028  
                                     ??___aodiv 0024                                       ??___aomod 0024  
                                        ___wmul 3BF4                                       ??___fldiv 0030  
                                __CFG_STVREN$ON 000000                                       ??___flmul 0030  
                                     ??___fltol 00D1                         __end_of_TMR0_WriteTimer 30C0  
                                     ??___lldiv 001C                                    ?_TMR3_Reload 0001  
                                     ??___lwdiv 0018                                  _BH1750_measure 241C  
                              __end_of_init_App 31F6                        ?_EUSART1_SetErrorHandler 0014  
                              ?_TMR0_Initialize 0001                                          clear_0 3B54  
                                        clear_1 3B60                                          clear_2 3B6C  
                                        _printf 3B7C                                          pad@buf 0028  
              ??_EUSART1_SetOverrunErrorHandler 0016                 ?_EUSART1_SetOverrunErrorHandler 0014  
                                  ?_TMR0_period 0001                                          dtoa@fp 00C4  
                                        _strlen 3AE8                                          fputc@c 0016  
                               _TMR4_WriteTimer 3DA2                                          fputs@c 0023  
                                        fputs@i 0024                                          fputs@s 001F  
                                  __mediumconst 0000                                          tblptrh 000FF7  
                                        tblptrl 000FF6                                          tblptru 000FF8  
                      ADC_GetConversion@channel 001F                                   ?_EXT_INT_init 0001  
                              __end_of_vfprintf 38F2                                 ??_EUSART1_Write 0014  
                                  _caract_count 00B9                         __end_of_TMR1_WriteTimer 3BF4  
                               _eusart1RxBuffer 0118                   __size_of_INTERRUPT_Initialize 0012  
                               _eusart1TxBuffer 0130                                    ___xxtofl@arg 0024  
                                  ___xxtofl@exp 0023                ??_INTERRUPT_InterruptManagerHigh 0005  
               ?_INTERRUPT_InterruptManagerHigh 0001                               _SYSTEM_Initialize 3B1E  
                                  ___xxtofl@val 001A                                      __accesstop 0060  
                       __end_of__initialization 3B72                                       ?_INT0_ISR 0001  
                               __CFG_PBADEN$OFF 000000                                       ?_INT1_ISR 0001  
                                     ?_INT2_ISR 0001                        __end_of_EPWM2_engine_off 3C3E  
                         ??_EPWM2_engine_config 00D8                  __size_of_EPWM2_engine_SoftStop 007C  
                             __end_of_i2c2_Open 2F7C                   __end_of_EPWM2_engine_SoftStop 3646  
                            ?_SYSTEM_Initialize 0001                           __size_of_i2c2_control 00DE  
                                 ___rparam_used 000001                               __end_of_i2c2_gets 2A56  
                             __end_of_i2c2_init 3CB8                                      ___fltol@f1 0034  
                __size_of_EUSART1_RxDataHandler 00C2                   __end_of_EUSART1_RxDataHandler 2CB8  
                        __end_of_BH1750_measure 2546                                  __pcstackCOMRAM 0001  
                                  ??_EPWM3_STOP 0001                            __end_of_EPWM2_period 37B0  
                           ??_SYSTEM_Initialize 0039                            __end_of_EPWM3_period 3738  
                                     ?_TMR1_ISR 0001                                       ?_TMR3_ISR 0001  
                       __end_of_TMR2_WriteTimer 3DBA                                   __end_of_fputc 328C  
                                 __end_of_fputs 3A2E                                   __end_of_putch 3D70  
               __end_of_TMR4_LoadPeriodRegister 3DB2                        EPWM3_duty_const@interval 009A  
                        ??_EUSART1_Transmit_ISR 000B                         EPWM3_engine_config@duty 00DB  
                       EPWM3_engine_config@turn 00E2                         __end_of_azi_lim_control 266A  
                   __end_of_EUSART1_Receive_ISR 2D74                                  ??_EXT_INT_init 0014  
                             ?_EPWM2_Initialize 0001                                ?_TMR0_StartTimer 0001  
                                  _i2c2_control 2A56                                         ??_fputc 001A  
                     __end_of_SYSTEM_Initialize 3B4E                                         ??_fputs 0023  
                       __end_of_TMR3_WriteTimer 3BCC                              ??_EPWM2_Initialize 0039  
                                       ??_putch 0015                                   _eusart1RxHead 0043  
                                 _eusart1TxHead 0046                              __end_of_EPWM3_STOP 39A4  
                                 _eusart1RxTail 0042                                      __pbssBANK0 0060  
                                    __pbssBANK1 0100                                   _eusart1TxTail 0045  
             _EUSART1_TxDefaultInterruptHandler 00B6                        __end_of_EPWM2_duty_const 354C  
               ??_EUSART1_SetRxInterruptHandler 0016                         _TMR2_LoadPeriodRegister 3DBA  
                                    ??_INT0_ISR 0001                                      ??_INT1_ISR 0005  
                                    ??_INT2_ISR 000B                 __end_of_EUSART1_SetErrorHandler 3DA2  
                            __CFG_CCP2MX$PORTC1 000000                               ?_EPWM3_Initialize 0001  
                               ?_BH1750_measure 00E0                         __size_of_TMR0_StopTimer 0004  
                                       ?___lmul 0014                                         ?___wmul 0014  
                                    ??_TMR1_ISR 000D                                      ??_TMR3_ISR 000D  
                            __CFG_CCP3MX$PORTE0 000000                                ?_TMR0_WriteTimer 002E  
                       __end_of_TMR4_WriteTimer 3DAA                              ??_EPWM3_Initialize 0039  
                     BH1750_Data_Read@Read_meas 00DB                                  ___lmul@product 001C  
                      __end_of_EPWM3_duty_const 315C                                EPWM2_period@freq 00D3  
                            BH1750_measure@acum 00E4                                         ?_printf 0168  
                       __size_of_ADC_Initialize 0020                                         ?_strlen 0014  
        __end_of_EUSART1_SetFramingErrorHandler 3D98         __size_of_EUSART1_SetFramingErrorHandler 000A  
                _EUSART1_SetFramingErrorHandler 3D8E                           EPWM3_period@freq_lure 00C1  
                             _EPWM2_outputs_off 3E04                                       ?___xxtofl 001A  
                  ?_EUSART1_DefaultErrorHandler 0001                                         _OSCCON2 000FD2  
                            ?_EPWM2_outputs_off 0001                              __size_of_vfpfcnvrt 01C0  
                                       _SPBRGH1 000FB0                                         _SSP2ADD 000F6E  
                                       _SSP1BUF 000FC9                                         _SSP2BUF 000F6F  
                       __size_of_TMR2_StopTimer 0004                                ?_TMR1_WriteTimer 000B  
                       _TMR0_HasOverflowOccured 3D18                        __size_of_i2c_BH1750_init 003A  
                                       _DataRx1 00BD                        __size_of_i2c_BH1750_open 0096  
                           ??_EPWM2_outputs_off 0014                                       ?_init_App 0001  
                         i2c2_gets@slaveAddress 00C7                                         __Hparam 0000  
                                       __Lparam 0000                               _count_EPWM2_SStop 0047  
                             _count_EPWM3_SStop 0049                     EPWM2_engine_config@interval 00DA  
                                       ___aldiv 266A                         __size_of_TMR4_StopTimer 0006  
                                       ___aodiv 1E5C                                         ___aomod 2158  
                                       ___fldiv 1468                                 __size_of___lmul 006A  
                                       ___flmul 103C                                         ___fltol 2776  
                                       ___lldiv 2F7C                                 __size_of___wmul 0026  
                                       ___lwdiv 37B0                                ?_TMR2_WriteTimer 0001  
                                     ?_vfprintf 00F0                                    __psmallconst 1000  
                          __size_of_TMR0_Reload 000C                            __size_of_TMR1_Reload 000E  
                                       __pcinit 3B4E                       __end_of_EPWM2_outputs_off 3E08  
                                       __ramtop 1000                                EPWM3_period@freq 00DD  
                           _EUSART1_is_tx_ready 3CEC                            __size_of_TMR3_Reload 000E  
                                       __ptext0 287E                                         __ptext1 315C  
                                       __ptext2 2546                                         __ptext3 3646  
                                       __ptext4 3B7C                                         __ptext5 388E  
                                       __ptext6 1AE8                                         __ptext7 1804  
                                       __ptext8 2B34                                         __ptext9 3AE8  
                               __size_of_printf 0028                                         _command 0100  
                                     _T0CONbits 000FD5                                 __size_of_strlen 0036  
                                     _T1CONbits 000FCD                    __size_of_TMR0_request_period 0006  
                             _EPWM3_outputs_off 3DE6                           _OSCILLATOR_Initialize 3CD4  
                                     _T2CONbits 000FBA                                    __size_of_abs 0040  
                                  __size_of_pad 00C2                                      ??___xxtofl 001E  
                                     _T3CONbits 000FB1                            __size_of_TMR0_period 0016  
                           _EPWM3_engine_config 1FE4                                ___aldiv@dividend 0020  
                                     _T4CONbits 000F51                              _EUSART1_Initialize 354C  
                      ??_PIN_MANAGER_Initialize 0014                                ?_azi_lim_control 0001  
                            ?_EPWM3_outputs_off 0001                   ??_EUSART1_DefaultErrorHandler 0002  
                     ??_TMR2_LoadPeriodRegister 0014                      __size_of_SYSTEM_Initialize 0030  
                                __pintcode_body 2D74                            end_of_initialization 3B72  
                              ?_TMR3_WriteTimer 000B                             ?_EUSART1_Initialize 0001  
                           ??_EPWM3_outputs_off 0014                            ?_EUSART1_is_tx_ready 0001  
                                    ??_init_App 0023                                         fputc@fp 0018  
                   _EUSART1_OverrunErrorHandler 00B0                                         int_func 2D74  
                                       fputs@fp 0021                __size_of_TMR4_LoadPeriodRegister 0008  
                         __size_of_EPWM2_period 0078                       __size_of_BH1750_Data_Read 00AA  
                         __size_of_EPWM3_period 0078                                 ___lldiv@divisor 0018  
                          ?_EPWM3_engine_config 00DB           __end_of_EUSART1_SetRxInterruptHandler 3D84  
        __size_of_EUSART1_SetRxInterruptHandler 000A                   _EUSART1_SetRxInterruptHandler 3D7A  
                               ___lldiv@counter 0020                               __end_of_vfpfcnvrt 1CA8  
                          __end_of_EXT_INT_init 3C9C                                ___aldiv@quotient 002A  
                                       postdec2 000FDD                                         postinc0 000FEE  
                                       postinc1 000FE6                                         postinc2 000FDE  
                                    ??_vfprintf 0039                                ?_TMR4_WriteTimer 0001  
                          ??_EUSART1_Initialize 0016                                         strlen@a 0016  
                                       strlen@s 0014                       __end_of_EPWM3_outputs_off 3DEC  
                                 ___xxtofl@sign 0022                                       _TRISAbits 000F92  
                                     _TRISCbits 000F94                       BH1750_Data_Read@raw_value 00DE  
                     ??_TMR0_HasOverflowOccured 0014                         fp__EUSART1_Transmit_ISR 0000  
                                   ___fldiv@grs 00CB                                     ___fldiv@rem 00C4  
                        i2c_BH1750_open@channel 00C8                __size_of_EUSART1_SetErrorHandler 000A  
                                  _EPWM2_period 3738                             EUSART1_Write@txData 0014  
                                  _EPWM3_period 36C0                         TMR2_WriteTimer@timerVal 0014  
                         ??_EUSART1_is_tx_ready 0014                                     ___flmul@grs 00C6  
                     BH1750_Data_Read@lux_value 00DC              EPWM3_engine_config@pulse_width_bit 00E3  
                                   _CCP2CONbits 000F66                               ?_EPWM2_engine_off 0001  
                                   _CCP3CONbits 000F5D                           ??_EPWM3_engine_config 00DC  
                             __size_of_INT0_ISR 0004                               __size_of_INT1_ISR 0008  
                             __size_of_INT2_ISR 0020                               ??_i2c_BH1750_init 0039  
          __size_of_EUSART1_DefaultErrorHandler 0006                               ??_i2c_BH1750_open 00C6  
                            ??_EPWM2_engine_off 0014                                       _i2c2_Open 2ED4  
                                _TMR0_StopTimer 3DF8                                       _i2c2_gets 2972  
                                     _i2c2_init 3C9C                          BH1750_measure@Data_lux 00E8  
                                   _ECCP2ASbits 000F64                    __end_of_INTERRUPT_Initialize 3D3E  
                                   _ECCP3ASbits 000F5B                          __size_of_jump_azi_ctrl 007A  
                                __end_of___lmul 388E                                     vfpfcnvrt@ap 00E4  
                                   vfpfcnvrt@fp 00E0                                     vfpfcnvrt@ll 00E8  
                                __end_of___wmul 3C1A                      __size_of_EPWM2_outputs_off 0004  
                             __size_of_TMR1_ISR 0008                               __size_of_TMR3_ISR 0008  
                                _ADC_Initialize 3C3E                          ?_OSCILLATOR_Initialize 0001  
                                     _i2c_Error 009E                TMR2_LoadPeriodRegister@periodVal 0014  
                        ADC_GetConversion@accum 0020                                  __end_of_printf 3BA4  
                        ADC_GetConversion@count 0022                                  __end_of_strlen 3B1E  
                           start_initialization 3B4E                        __size_of_TMR0_Initialize 001C  
               __size_of_PIN_MANAGER_Initialize 0046                                     __end_of_abs 3A6E  
                                   __end_of_pad 2BF6                                  _TMR2_StopTimer 3E00  
                   __end_of_EPWM2_engine_config 241C   EUSART1_SetRxInterruptHandler@interruptHandler 0014  
 EUSART1_SetTxInterruptHandler@interruptHandler 0014                                     putch@txData 0015  
                         __end_of_EUSART1_Write 394C                               ?_EPWM2_duty_const 0034  
                        fp__EUSART1_Receive_ISR 0000                                ??_BH1750_measure 00E2  
                            ??_EPWM2_duty_const 0038                          __end_of_TMR0_StopTimer 3DFC  
                     __size_of_EPWM2_Initialize 008E                           _EPWM2_engine_SoftStop 35CA  
                                   vfprintf@fmt 00F2                                      ?_i2c2_Open 00C4  
                                _TMR4_StopTimer 3DE0                                        ??___lmul 001C  
                                    ?_i2c2_gets 00C4                                      ?_i2c2_init 0001  
                                      ??___wmul 0018                           i2c2_Open@slaveAddress 00C5  
                         _EUSART1_RxDataHandler 2BF6                  ?_EUSART1_SetRxInterruptHandler 0014  
                        __end_of_ADC_Initialize 3C5E                      __size_of_EPWM3_outputs_off 0006  
                             ?_EPWM3_duty_const 00D7                                        ??_printf 0039  
                                      ??_strlen 0016                                  _eusart1RxCount 00BF  
                                     ___fldiv@a 002C                                       ___fldiv@b 0028  
                            ??_EPWM3_duty_const 0038                          __end_of_TMR2_StopTimer 3E04  
                       EPWM2_engine_config@duty 00D7                                       ___flmul@a 002C  
                                     ___flmul@b 0028                                     __pbssCOMRAM 0039  
                       EPWM2_engine_config@turn 00DE               _EUSART1_RxDefaultInterruptHandler 00B4  
                 __size_of_EUSART1_Transmit_ISR 0040                       __size_of_EPWM3_Initialize 0096  
                                 __pcstackBANK0 00C4                                   __pcstackBANK1 0168  
                              ___aodiv@dividend 0014                               __size_of___xxtofl 01B4  
                                 _jump_azi_ctrl 3646                 ??_EUSART1_SetTxInterruptHandler 0016  
              ??_EUSART1_SetFramingErrorHandler 0016                 ?_EUSART1_SetFramingErrorHandler 0014  
                       _TMR4_LoadPeriodRegister 3DAA                    __size_of_EUSART1_Receive_ISR 00BC  
                         __size_of_EXT_INT_init 001E                                _BH1750_Data_Read 2E2A  
                           _TMR0_request_period 3DDA                        __size_of_TMR0_StartTimer 0004  
                             __size_of_init_App 009A                                 ?_TMR0_StopTimer 0001  
                        __end_of_TMR4_StopTimer 3DE6                                ___lwdiv@dividend 0014  
                        _PIN_MANAGER_Initialize 39A4                                       _dtoa$3012 00CE  
                                     __pintcode 0008                                        ?___aldiv 0020  
                                      ?___aodiv 0014                                        ?___aomod 0014  
                                      ?___fldiv 0028                                ___aodiv@quotient 0026  
                                      ?___flmul 0028                                        ?___fltol 0034  
                                      ?___lldiv 0014                                        ?___lwdiv 0014  
                               ?_ADC_Initialize 0001                                     __pintcodelo 0018  
                              __CFG_PRICLKEN$ON 000000                       EPWM3_STOP@pulse_width_bit 0003  
                             __size_of_vfprintf 0064                            ?_TMR0_request_period 0001  
                                   __smallconst 1000                                        _BAUDCON1 000FB8  
         fp__EUSART1_DefaultOverrunErrorHandler 0000      __end_of_EUSART1_DefaultOverrunErrorHandler 3DF2  
   __size_of_EUSART1_DefaultOverrunErrorHandler 0006            ??_EUSART1_DefaultOverrunErrorHandler 0001  
           ?_EUSART1_DefaultOverrunErrorHandler 0001              _EUSART1_DefaultOverrunErrorHandler 3DEC  
                               ?_TMR2_StopTimer 0001                        __size_of_TMR0_WriteTimer 00A0  
                          _EUSART1_ErrorHandler 00AE                         _EUSART1_SetErrorHandler 3D98  
                                ?_jump_azi_ctrl 0001                                ___lwdiv@quotient 0019  
                                  _EXT_INT_init 3C7E                                  __size_of_fputc 0096  
                                __size_of_fputs 0044                           TMR0_WriteTimer@period 0033  
                                __size_of_putch 000A                            _INTERRUPT_Initialize 3D2C  
                               ___aldiv@divisor 0024                               ??_TMR0_Initialize 0035  
                               ___aldiv@counter 0028                                        _INT0_ISR 3E08  
                                      _INT1_ISR 3DD2                                        _INT2_ISR 3C5E  
                                ___wmul@product 0018                                        _LATAbits 000F89  
       EUSART1_SetErrorHandler@interruptHandler 0014                                        _LATCbits 000F8B  
                                      _IPR1bits 000F9F                                        _IPR2bits 000FA2  
                                      _PIE1bits 000F9D                                        _PIE2bits 000FA0  
                        ?_EPWM2_engine_SoftStop 0001                                    _interval_ISR 00C3  
                               ?_TMR4_StopTimer 0001                        __size_of_TMR1_WriteTimer 0028  
                                      i1u520_20 00C6                                        i1u520_21 00C2  
                                      i1u521_20 00D4                                        i1u513_20 0044  
                                      i1u521_21 00D0                                        i1u513_21 0040  
                                      i1u514_20 0052                                        i1u514_21 004E  
                                      i1u515_20 0068                                        i1u515_21 0064  
                                      i1u516_20 0076                                        i1u516_21 0072  
                                      i1u445_20 3BDA                                        i1u445_21 3BD6  
                                      i1u446_20 3BB2                                        i1u518_20 00A2  
                                      i1u517_28 007C                                        i1u446_21 3BAE  
                                      i1u518_21 009E                                        i1u517_29 0090  
                                      i1u519_20 00B0                                        i1u519_21 00AC  
                                      i1u480_20 3AA0                                        i1u480_21 3A9C  
                        jump_azi_ctrl@dif_value 00FC                                        i1u479_20 3A7E  
                                      i1u487_20 3C70                                        i1u479_21 3A7A  
                                      i1u487_21 3C6C                                        i2u511_40 2DF8  
                                      i2u510_48 2DD2                                        i2u511_41 2DF4  
                                      i2u510_49 2DE6                                        i2u440_40 2C1A  
                                      i2u512_40 2E06                                        i2u440_41 2C16  
                                      i2u512_41 2E02                                        i2u441_40 2C38  
                                      i2u441_41 2C34                                        _PIR1bits 000F9E  
                                      i2u442_40 2C66                                        i2u506_40 2D9A  
                                      i2u442_41 2C62                                        i2u506_41 2D96  
                                      i2u443_40 2C8E                                        i2u507_40 2DA8  
                                      i2u443_41 2C8A                                        i2u507_41 2DA4  
                                      _PIR2bits 000FA1                                        i2u444_40 2CA2  
                                      i2u508_40 2DBE                                        i2u444_41 2C9E  
                                      i2u508_41 2DBA                                        i2u509_40 2DCC  
                                      i2u509_41 2DC8                                        i2u439_40 2C08  
                                      i2u439_41 2C04                                        i2u481_40 2CD6  
                                      i2u481_41 2CD2                                        i2u483_40 2D0C  
                                      i2u482_48 2CEC                                        i2u483_41 2D08  
                                      i2u482_49 2CFE                                        i2u485_40 2D50  
                                      i2u484_48 2D22                                        i2u485_41 2D4C  
                                      i2u484_49 2D34                                        i2u486_48 2D56  
                                      i2u486_49 2D6A                                   ??_TMR0_Reload 0014  
                                   ??_i2c2_Open 0039                                        i2u782_47 398A  
                        ?_EUSART1_RxDataHandler 0001                                        _RCONbits 000FD0  
                                 ??_TMR1_Reload 000D                                __CFG_WDTPS$32768 000000  
                                   ??_i2c2_gets 0039                                     ??_i2c2_init 0014  
                                      _SSP2CON1 000F6C                                        _SSP2CON2 000F6B  
                                      _SSP2CON3 000F69                                        _TMR1_ISR 3DCA  
                                 ??_TMR3_Reload 000D                                        _TMR3_ISR 3DC2  
                                      _PSTR2CON 000F63                                        _PSTR3CON 000F5A  
                                      _SSP2STAT 000F6D                                       _vfpfcnvrt 1AE8  
                                 ??_TMR0_period 0035                                      _ADCON0bits 000FC2  
                             ___wmul@multiplier 0014                           ??_TMR0_request_period 0014  
                      __size_of_TMR2_WriteTimer 0008                       ??_TMR4_LoadPeriodRegister 0014  
                               _i2c_BH1750_init 3AAE                               ___lmul@multiplier 0014  
                               _i2c_BH1750_open 328C                                     _INTCON2bits 000FF1  
                                   _INTCON3bits 000FF0                           ?_INTERRUPT_Initialize 0001  
                                     _syst_Stat 0039                        __size_of_azi_lim_control 0124  
                                    _EECON1bits 000FA6                                       init_App@i 0023  
         __end_of_EUSART1_SetTxInterruptHandler 3D7A          __size_of_EUSART1_SetTxInterruptHandler 000A  
                 _EUSART1_SetTxInterruptHandler 3D70                                        __Hrparam 0000  
                              _EPWM2_Initialize 33B8                        __size_of_TMR3_WriteTimer 0028  
                                TMR0_period@per 0035                                      vfprintf@ap 00F4  
                                      __Lrparam 0000                                      vfprintf@fp 00F0  
                             _ADC_GetConversion 3446                              __CFG_BOREN$SBORDIS 000000  
                                   _MODE_BUTTON 00C2                              _count_EPWM2_SStart 0048  
                         BH1750_measure@channel 00EB                              _count_EPWM3_SStart 004A  
                             __CFG_P2BMX$PORTC0 000000                                   _request_light 0082  
                       ??_OSCILLATOR_Initialize 0014                              ?_ADC_GetConversion 001B  
                         BH1750_measure@average 00E0                               ??_TMR0_StartTimer 0014  
                              __size_of___aldiv 010C                                __size_of___aodiv 0188  
                              __size_of___aomod 0164                                __size_of___fldiv 039C  
                              __size_of___flmul 042C                                __size_of___fltol 0108  
                              __size_of___lldiv 00A4                     __size_of_EUSART1_Initialize 007E  
                                    ?_vfpfcnvrt 00E0                                __size_of___lwdiv 0074  
                               ___aodiv@divisor 001C                             __end_of_TMR0_Reload 3D66  
                               ___aodiv@counter 0024                       __size_of_EPWM2_engine_off 0024  
                           __end_of_TMR1_Reload 3D5A                       ??_EUSART1_SetErrorHandler 0016  
           __end_of_EUSART1_DefaultErrorHandler 3DF8                     _EUSART1_DefaultErrorHandler 3DF2  
                           ??_ADC_GetConversion 001D                             __end_of_TMR3_Reload 3D4C  
                      ?_TMR2_LoadPeriodRegister 0001                                        ___xxtofl 1CA8  
                                   _current_pos 0092                               _i2c_error_counter 00B8  
               ??_INTERRUPT_InterruptManagerLow 000D                                 ??_jump_azi_ctrl 0039  
                              _EPWM3_Initialize 3322                        __size_of_TMR4_WriteTimer 0008  
                   __end_of_EUSART1_is_tx_ready 3D02                                 ___lwdiv@divisor 0016  
                               ___lwdiv@counter 0018                             __end_of_TMR0_period 3D18  
                                      __ptext10 39EA                                        __ptext11 31F6  
                                      __ptext20 3446                                        __ptext12 3D66  
                                      __ptext21 37B0                                        __ptext13 38F2  
                                      __ptext30 3C9C                                        __ptext22 3B1E  
                                      __ptext14 3CEC                                        __ptext31 2A56  
                                      __ptext23 3AAE                                        __ptext15 3A2E  
                                      __ptext40 3824                                        __ptext32 3DDA  
                                      __ptext24 241C                                        __ptext16 2158  
                                      __ptext41 39A4                                        __ptext33 3D02  
                                      __ptext25 328C                                        __ptext17 1E5C  
                                      __ptext50 3D98                                        __ptext42 3CD4  
                                      __ptext34 3DF8                                        __ptext26 2ED4  
                                      __ptext18 35CA                                        __ptext51 3322  
                                      __ptext43 3D2C                                        __ptext35 3DFC  
                                      __ptext27 2F7C                                        __ptext19 3C1A  
                                      __ptext60 3DB2                                        __ptext52 3DA2  
                                      __ptext44 3C7E                                        __ptext36 3D5A  
                                      __ptext28 2E2A                                        __ptext61 3E00  
                                      __ptext53 3DE0                                        __ptext45 354C  
                                      __ptext37 3D18                                        __ptext29 2972  
                                      __ptext70 1CA8                                        __ptext62 3738  
                                      __ptext54 36C0                                        __ptext46 3D70  
                                      __ptext38 3CB8                                        __ptext71 3BF4  
                                      __ptext63 266A                                        __ptext55 3DAA  
                                      __ptext47 3D7A                                        __ptext39 3020  
                                      __ptext80 3BCC                                        __ptext72 1468  
                                      __ptext64 3DBA                                        __ptext56 3DE6  
                                      __ptext48 3D84                                        __ptext81 3C5E  
                                      __ptext73 3C3E                                        __ptext65 3E04  
                                      __ptext57 1FE4                                        __ptext49 3D8E  
                                      __ptext90 3DF2                                        __ptext82 3A6E  
                                      __ptext66 22BC                                        __ptext58 30C0  
                                      __ptext91 2BF6                                        __ptext75 3DC2  
                                      __ptext67 2776                                        __ptext59 33B8  
                                      __ptext92 0000                                        __ptext84 3DD2  
                                      __ptext76 3D3E                                        __ptext68 103C  
                                      __ptext85 394C                                        __ptext77 3BA4  
                                      __ptext69 34CA                                        __ptext86 3E08  
                                      __ptext78 3DCA                                        __ptext87 2CB8  
                                      __ptext79 3D4C                                        __ptext88 3DEC  
                                      __ptext89 3E0C                                   ?_i2c2_control 0001  
                                  _SSP2CON2bits 000F6B                     __end_of_EPWM3_engine_config 2158  
                       TMR0_WriteTimer@timerVal 0032                               ??_TMR0_WriteTimer 0030  
                                   _OSCCON2bits 000FD2                         TMR3_WriteTimer@timerVal 000B  
                                      _init_App 315C                                   __size_of_main 00F4  
                                 __size_of_dtoa 02E4                       __end_of_ADC_GetConversion 34CA  
EUSART1_SetOverrunErrorHandler@interruptHandler 0014                                      _EPWM3_STOP 394C  
                                      int$flags 004C                                        _vfprintf 388E  
                                     printf@fmt 0168                               ??_TMR1_WriteTimer 000D  
                     __size_of_EPWM2_duty_const 0082                     _EUSART1_FramingErrorHandler 00B2  
                           _EUSART1_Receive_ISR 2CB8                                    _SSP2STATbits 000F6D  
                             _flag_jump_azi_pos 00BA                                ___aomod@dividend 0014  
                              i2c2_gets@ptrData 00C4                        ?_TMR0_HasOverflowOccured 0001  
                       __end_of_i2c_BH1750_init 3AE8                         __end_of_i2c_BH1750_open 3322  
                      __end_of_BH1750_Data_Read 2ED4                                      _INTCONbits 000FF2  
                                   _PWM2CONbits 000F65                                     _PWM3CONbits 000F5C  
                                ??_i2c2_control 0036                                    _request_elec 0078  
                        ??_INTERRUPT_Initialize 0014                                        intlevel1 0000  
                                      intlevel2 0000                                ??_TMR0_StopTimer 0014  
                             ??_TMR2_WriteTimer 0014                       __size_of_EPWM3_duty_const 009C  
                          ?_EUSART1_Receive_ISR 0001                                 BH1750_measure@i 00EA  
                              ___lldiv@dividend 0014                         ?_PIN_MANAGER_Initialize 0001  
        __end_of_EUSART1_SetOverrunErrorHandler 3D8E         __size_of_EUSART1_SetOverrunErrorHandler 000A  
                _EUSART1_SetOverrunErrorHandler 3D84                                      _RCSTA1bits 000FAB  
                  __size_of_EPWM2_engine_config 0160                    __end_of_EUSART1_Transmit_ISR 3AAE  
                         i2c2_control@bit_field 0038                                ??_ADC_Initialize 0014  
                                  _STATUS_Eng_A 0040                                    _STATUS_Eng_V 003E  
                             ??_azi_lim_control 00FE                                     _TMR0_Reload 3D5A  
                                   _TMR1_Reload 3D4C                                        printf@ap 00FA  
                               i2c2_gets@length 00C6  EUSART1_SetFramingErrorHandler@interruptHandler 0014  
                ?_EUSART1_SetTxInterruptHandler 0014                                     _TMR3_Reload 3D3E  
                               ___aomod@divisor 001C                                     ??_vfpfcnvrt 00E6  
                              ??_TMR2_StopTimer 0014                                 ___aomod@counter 0024  
               __end_of_TMR2_LoadPeriodRegister 3DC2                               ??_TMR3_WriteTimer 000D  
                        __size_of_EUSART1_Write 005A                              _eusart1RxLastError 00BE  
                                   _request_pos 008A          __end_of_INTERRUPT_InterruptManagerHigh 2E2A  
       __size_of_INTERRUPT_InterruptManagerHigh 2E22                  _INTERRUPT_InterruptManagerHigh 0008  
                                   _TMR0_period 3D02                        EPWM2_duty_const@interval 0096  
                              ___lldiv@quotient 001C                                 _TMR0_Initialize 3CB8  
                                  ___aldiv@sign 0029                               __CFG_T3CMX$PORTB5 000000  
                                  _previous_pos 008E                                  _caracter_count 00BC  
         __end_of_INTERRUPT_InterruptManagerLow 00FC          __size_of_INTERRUPT_InterruptManagerLow 00E4  
                 _INTERRUPT_InterruptManagerLow 0018                                    ___aodiv@sign 0025  
                         ??_EUSART1_Receive_ISR 0002                  __end_of_PIN_MANAGER_Initialize 39EA  
                              ??_TMR4_StopTimer 0014                         ??_EPWM2_engine_SoftStop 0039  
                             ??_TMR4_WriteTimer 0014                         ??_EUSART1_RxDataHandler 0001  
                    __size_of_ADC_GetConversion 0084                                    ___aomod@sign 0025  
              TMR4_LoadPeriodRegister@periodVal 0014  
